LX51 LINKER/LOCATER V4.66.93.0                                                          07/09/2019  16:24:51  PAGE 1


LX51 LINKER/LOCATER V4.66.93.0, INVOKED BY:
D:\SOFT\KEIL5\C51\BIN\LX51.EXE .\obj\main.obj, .\obj\STARTUP_M5.obj, .\obj\dgus_config.obj, ..\..\lib\dgus_api.lib, ..\.
>> .\lib\dwin_51.lib, ..\..\lib\uart.lib, ..\..\lib\usb.lib TO .\obj\T5L51 PRINT (.\list\T5L51.map) REMOVEUNUSED CLASSES
>>  (XDATA (X:0X8000-X:0XFFFF), HDATA (X:0X8000-X:0XFFFF))


CPU MODE:     8051 MODE
MEMORY MODEL: LARGE


INPUT MODULES INCLUDED:
  .\obj\main.obj (MAIN)
         COMMENT TYPE 0: C51 V9.59.0.0
  .\obj\STARTUP_M5.obj (?C_STARTUP)
         COMMENT TYPE 1: A51 / ASM51 Assembler
  .\obj\dgus_config.obj (DGUS_CONFIG)
         COMMENT TYPE 0: C51 V9.59.0.0
  ..\..\lib\dgus_api.lib (DGUS)
         COMMENT TYPE 0: C51 V9.59.0.0
  ..\..\lib\dwin_51.lib (SYS)
         COMMENT TYPE 0: C51 V9.59.0.0
  ..\..\lib\uart.lib (UART)
         COMMENT TYPE 0: C51 V9.59.0.0
  ..\..\lib\usb.lib (PARA_PORT)
         COMMENT TYPE 0: C51 V9.59.0.0
  ..\..\lib\usb.lib (USB_DGUS)
         COMMENT TYPE 0: C51 V9.59.0.0
  ..\..\lib\usb.lib (APP_INTERFACE)
         COMMENT TYPE 0: C51 V9.59.0.0
  ..\..\lib\usb.lib (FILE_SYS)
         COMMENT TYPE 0: C51 V9.59.0.0
  D:\SOFT\KEIL5\C51\LIB\C51L.LIB (?C_INIT)
         COMMENT TYPE 1: A51 / ASM51 Assembler
  D:\SOFT\KEIL5\C51\LIB\C51L.LIB (?C?CLDPTR)
         COMMENT TYPE 1: A51 / ASM51 Assembler
  D:\SOFT\KEIL5\C51\LIB\C51L.LIB (?C?CLDOPTR)
         COMMENT TYPE 1: A51 / ASM51 Assembler
  D:\SOFT\KEIL5\C51\LIB\C51L.LIB (?C?CILDPTR)
         COMMENT TYPE 1: A51 / ASM51 Assembler
  D:\SOFT\KEIL5\C51\LIB\C51L.LIB (?C?CSTPTR)
         COMMENT TYPE 1: A51 / ASM51 Assembler
  D:\SOFT\KEIL5\C51\LIB\C51L.LIB (?C?CSTOPTR)
         COMMENT TYPE 1: A51 / ASM51 Assembler
  D:\SOFT\KEIL5\C51\LIB\C51L.LIB (?C?UIDIV)
         COMMENT TYPE 1: A51 / ASM51 Assembler
  D:\SOFT\KEIL5\C51\LIB\C51L.LIB (?C?IILDX)
         COMMENT TYPE 1: A51 / ASM51 Assembler
  D:\SOFT\KEIL5\C51\LIB\C51L.LIB (?C?ILDIX)
         COMMENT TYPE 1: A51 / ASM51 Assembler
  D:\SOFT\KEIL5\C51\LIB\C51L.LIB (?C?ILDPTR)
         COMMENT TYPE 1: A51 / ASM51 Assembler
  D:\SOFT\KEIL5\C51\LIB\C51L.LIB (?C?ILDOPTR)
         COMMENT TYPE 1: A51 / ASM51 Assembler
  D:\SOFT\KEIL5\C51\LIB\C51L.LIB (?C?IILDPTR)
         COMMENT TYPE 1: A51 / ASM51 Assembler
  D:\SOFT\KEIL5\C51\LIB\C51L.LIB (?C?ISTPTR)
         COMMENT TYPE 1: A51 / ASM51 Assembler
  D:\SOFT\KEIL5\C51\LIB\C51L.LIB (?C?ISTOPTR)
         COMMENT TYPE 1: A51 / ASM51 Assembler
  D:\SOFT\KEIL5\C51\LIB\C51L.LIB (?C?ULCMP)
         COMMENT TYPE 1: A51 / ASM51 Assembler
  D:\SOFT\KEIL5\C51\LIB\C51L.LIB (?C?ULSHR)
         COMMENT TYPE 1: A51 / ASM51 Assembler
  D:\SOFT\KEIL5\C51\LIB\C51L.LIB (?C?LSHL)
         COMMENT TYPE 1: A51 / ASM51 Assembler
  D:\SOFT\KEIL5\C51\LIB\C51L.LIB (?C?LLDOPTR)
LX51 LINKER/LOCATER V4.66.93.0                                                        07/09/2019  16:24:51  PAGE 2


         COMMENT TYPE 1: A51 / ASM51 Assembler
  D:\SOFT\KEIL5\C51\LIB\C51L.LIB (?C?LSTPTR)
         COMMENT TYPE 1: A51 / ASM51 Assembler
  D:\SOFT\KEIL5\C51\LIB\C51L.LIB (?C?LSTOPTR)
         COMMENT TYPE 1: A51 / ASM51 Assembler
  D:\SOFT\KEIL5\C51\LIB\C51L.LIB (?C?LLDPTR0)
         COMMENT TYPE 1: A51 / ASM51 Assembler
  D:\SOFT\KEIL5\C51\LIB\C51L.LIB (?C?LLDIXDATA)
         COMMENT TYPE 1: A51 / ASM51 Assembler
  D:\SOFT\KEIL5\C51\LIB\C51L.LIB (?C?LSTXDATA)
         COMMENT TYPE 1: A51 / ASM51 Assembler
  D:\SOFT\KEIL5\C51\LIB\C51L.LIB (?C?LSTKXDATA)
         COMMENT TYPE 1: A51 / ASM51 Assembler
  D:\SOFT\KEIL5\C51\LIB\C51L.LIB (?C?LSTKPTR)
         COMMENT TYPE 1: A51 / ASM51 Assembler
  D:\SOFT\KEIL5\C51\LIB\C51L.LIB (?C_XBP)
         COMMENT TYPE 1: A51 / ASM51 Assembler
  D:\SOFT\KEIL5\C51\LIB\C51L.LIB (?C?ADDXBP)
         COMMENT TYPE 1: A51 / ASM51 Assembler
  D:\SOFT\KEIL5\C51\LIB\C51L.LIB (?C?XBPOFF)
         COMMENT TYPE 1: A51 / ASM51 Assembler
  D:\SOFT\KEIL5\C51\LIB\C51L.LIB (PRINTF)
         COMMENT TYPE 1: A51 / ASM51 Assembler
  D:\SOFT\KEIL5\C51\LIB\C51L.LIB (?C?STRCPY)
         COMMENT TYPE 1: A51 / ASM51 Assembler
  D:\SOFT\KEIL5\C51\LIB\C51L.LIB (STRNCPY)
         COMMENT TYPE 1: C51 Compiler
  D:\SOFT\KEIL5\C51\LIB\C51L.LIB (STRLEN)
         COMMENT TYPE 1: A51 / ASM51 Assembler
  D:\SOFT\KEIL5\C51\LIB\C51L.LIB (STRSTR)
         COMMENT TYPE 1: C51 Compiler
  D:\SOFT\KEIL5\C51\LIB\C51L.LIB (?C?MEMSET)
         COMMENT TYPE 1: A51 / ASM51 Assembler
  D:\SOFT\KEIL5\C51\LIB\C51L.LIB (?C?LLDIDATA)
         COMMENT TYPE 1: A51 / ASM51 Assembler
  D:\SOFT\KEIL5\C51\LIB\C51L.LIB (?C?LLDXDATA)
         COMMENT TYPE 1: A51 / ASM51 Assembler
  D:\SOFT\KEIL5\C51\LIB\C51L.LIB (?C?LLDPDATA)
         COMMENT TYPE 1: A51 / ASM51 Assembler
  D:\SOFT\KEIL5\C51\LIB\C51L.LIB (?C?LLDCODE)
         COMMENT TYPE 1: A51 / ASM51 Assembler
  D:\SOFT\KEIL5\C51\LIB\C51L.LIB (?C?LLDIDATA0)
         COMMENT TYPE 1: A51 / ASM51 Assembler
  D:\SOFT\KEIL5\C51\LIB\C51L.LIB (?C?LLDXDATA0)
         COMMENT TYPE 1: A51 / ASM51 Assembler
  D:\SOFT\KEIL5\C51\LIB\C51L.LIB (?C?LLDPDATA0)
         COMMENT TYPE 1: A51 / ASM51 Assembler
  D:\SOFT\KEIL5\C51\LIB\C51L.LIB (?C?LLDCODE0)
         COMMENT TYPE 1: A51 / ASM51 Assembler
  D:\SOFT\KEIL5\C51\LIB\C51L.LIB (?C?LSTIDATA)
         COMMENT TYPE 1: A51 / ASM51 Assembler
  D:\SOFT\KEIL5\C51\LIB\C51L.LIB (?C?LSTPDATA)
         COMMENT TYPE 1: A51 / ASM51 Assembler
  D:\SOFT\KEIL5\C51\LIB\C51L.LIB (?C?LSTKIDATA)
         COMMENT TYPE 1: A51 / ASM51 Assembler
  D:\SOFT\KEIL5\C51\LIB\C51L.LIB (?C?LSTKPDATA)
         COMMENT TYPE 1: A51 / ASM51 Assembler
  D:\SOFT\KEIL5\C51\LIB\C51L.LIB (?C?PLDIXDATA)
         COMMENT TYPE 1: A51 / ASM51 Assembler
  D:\SOFT\KEIL5\C51\LIB\C51L.LIB (?C?PSTXDATA)
         COMMENT TYPE 1: A51 / ASM51 Assembler
  D:\SOFT\KEIL5\C51\LIB\C51L.LIB (?C?CCASE)
         COMMENT TYPE 1: A51 / ASM51 Assembler
  D:\SOFT\KEIL5\C51\LIB\C51L.LIB (PUTCHAR)
         COMMENT TYPE 1: A51 / ASM51 Assembler
LX51 LINKER/LOCATER V4.66.93.0                                                        07/09/2019  16:24:51  PAGE 3




ACTIVE MEMORY CLASSES OF MODULE:  .\obj\T5L51 (MAIN)

BASE        START       END         USED      MEMORY CLASS
==========================================================
X:000000H   X:008000H   X:00FFFFH   00362BH   XDATA
X:000000H   X:008000H   X:00FFFFH             HDATA
C:000000H   C:000000H   C:00FFFFH   004688H   CODE
I:000000H   I:000000H   I:0000FFH   000001H   IDATA
C:000000H   C:000000H   C:00FFFFH   000066H   CONST
I:000000H   I:000000H   I:00007FH   00000FH   DATA
I:000020H.0 I:000020H.0 I:00002FH.7 000001H.1 BIT


MEMORY MAP OF MODULE:  .\obj\T5L51 (MAIN)


START     STOP      LENGTH    ALIGN  RELOC    MEMORY CLASS   SEGMENT NAME
=========================================================================

* * * * * * * * * * *   D A T A   M E M O R Y   * * * * * * * * * * * * *
000000H   000007H   000008H   ---    AT..     DATA           "REG BANK 0"
000008H   00000CH   000005H   BYTE   UNIT     DATA           _DATA_GROUP_
00000DH   00000EH   000002H   BYTE   UNIT     DATA           ?C?LIB_DATA
00000FH.0 00001FH.7 000011H.0 ---    ---      **GAP**
000020H.0 000021H.0 000001H.1 BIT    UNIT     BIT            _BIT_GROUP_
000021H.1 000021H   000000H.7 ---    ---      **GAP**
000022H   000022H   000001H   BYTE   UNIT     IDATA          ?STACK

* * * * * * * * * * *   C O D E   M E M O R Y   * * * * * * * * * * * * *
000000H   000002H   000003H   ---    OFFS..   CODE           ?CO??C_STARTUP?0
000003H   00000AH   000008H   BYTE   UNIT     CODE           ?PR?QUERY376INTERRUPT?FILE_SYS
00000BH   00000DH   000003H   BYTE   OFFS..   CODE           ?MAIN?0000B
00000EH   0000F1H   0000E4H   BYTE   UNIT     CODE           ?PR?ACKCREATEORDELPATH?USB_DGUS
0000F2H   0000F7H   000006H   BYTE   UNIT     CODE           ?C_INITSEG
0000F8H   0000FFH   000008H   ---    OFFS..   CODE           ?CO??C_STARTUP?1
000100H   000694H   000595H   BYTE   UNIT     CODE           ?C?LIB_CODE
000695H   000A85H   0003F1H   BYTE   UNIT     CODE           ?PR?MESSEAGESHOW?DGUS_CONFIG
000A86H   000E29H   0003A4H   BYTE   UNIT     CODE           ?PR?_WRITEFILE?APP_INTERFACE
000E2AH   00118EH   000365H   BYTE   UNIT     CODE           ?PR?PRINTF?PRINTF
00118FH   0014A0H   000312H   BYTE   UNIT     CODE           ?PR?_SYSUPFILESEND?APP_INTERFACE
0014A1H   00175FH   0002BFH   BYTE   UNIT     CODE           ?PR?_READFILE?APP_INTERFACE
001760H   0019E9H   00028AH   BYTE   UNIT     CODE           ?PR?_SYSUPGETFILEMESG?APP_INTERFACE
0019EAH   001C40H   000257H   BYTE   UNIT     CODE           ?PR?_SYSUPFILEMATCH?APP_INTERFACE
001C41H   001E7CH   00023CH   BYTE   UNIT     CODE           ?PR?_CH376SETFILEMESSAGE?FILE_SYS
001E7DH   00209EH   000222H   BYTE   UNIT     CODE           ?PR?ACKREADORWRITEFILE?USB_DGUS
00209FH   0022A7H   000209H   BYTE   UNIT     CODE           ?PR?_CH376GETFILEMESSAGE?FILE_SYS
0022A8H   00249AH   0001F3H   BYTE   UNIT     CODE           ?PR?ACKSEARCHFILE?USB_DGUS
00249BH   00265BH   0001C1H   BYTE   UNIT     CODE           ?PR?_?SYSTEMUPDRIVER?USB_DGUS
00265CH   00280AH   0001AFH   BYTE   UNIT     CODE           ?PR?_READDGUS?DGUS
00280BH   0029B8H   0001AEH   BYTE   UNIT     CODE           ?PR?_WRITEDGUS?DGUS
0029B9H   002B5AH   0001A2H   BYTE   UNIT     CODE           ?PR?_CH376CREATEFILEORDIR?APP_INTERFACE
002B5BH   002CD7H   00017DH   BYTE   UNIT     CODE           ?PR?_CH376MATCHFILE?FILE_SYS
002CD8H   002E41H   00016AH   BYTE   UNIT     CODE           ?PR?_SYSTEMUPDATE?APP_INTERFACE
002E42H   002FAAH   000169H   BYTE   UNIT     CODE           ?PR?ACKGETORSETPATH?USB_DGUS
002FABH   003108H   00015EH   BYTE   UNIT     CODE           ?PR?_GETFILEMESSAGE?APP_INTERFACE
003109H   00325EH   000156H   BYTE   UNIT     CODE           ?PR?MAIN?MAIN
00325FH   0033A3H   000145H   BYTE   UNIT     CODE           ?PR?_SETFILEMESSAGE?APP_INTERFACE
0033A4H   0034D0H   00012DH   BYTE   UNIT     CODE           ?PR?_SYSUPPCAKSET?APP_INTERFACE
0034D1H   0035E9H   000119H   BYTE   UNIT     CODE           ?PR?USBMODULE?USB_DGUS
0035EAH   0036EDH   000104H   BYTE   UNIT     CODE           ?PR?_CH376DISKWRITESEC?FILE_SYS
0036EEH   0037F0H   000103H   BYTE   UNIT     CODE           ?PR?_CH376DISKREADSEC?FILE_SYS
0037F1H   0038EFH   0000FFH   BYTE   UNIT     CODE           ?PR?_READDGUSCLIENTSTRING?USB_DGUS
0038F0H   0039C1H   0000D2H   BYTE   UNIT     CODE           ?PR?_CH376SECTORWRITE?FILE_SYS
LX51 LINKER/LOCATER V4.66.93.0                                                        07/09/2019  16:24:51  PAGE 4


0039C2H   003A93H   0000D2H   BYTE   UNIT     CODE           ?PR?_CH376SECTORREAD?FILE_SYS
003A94H   003B52H   0000BFH   BYTE   UNIT     CODE           ?PR?_STRSTR?STRSTR
003B53H   003C05H   0000B3H   BYTE   UNIT     CODE           ?PR?_CH376FILEOPENDIR?FILE_SYS
003C06H   003C9CH   000097H   BYTE   UNIT     CODE           ?PR?_SENDUPPACKTODGUS?APP_INTERFACE
003C9DH   003D28H   00008CH   BYTE   UNIT     CODE           ?C_C51STARTUP
003D29H   003DACH   000084H   BYTE   UNIT     CODE           ?PR?_NUMBERSTRINGMATCH?APP_INTERFACE
003DADH   003E2FH   000083H   BYTE   UNIT     CODE           ?PR?ACKSYSTEMUP?USB_DGUS
003E30H   003EAFH   000080H   BYTE   UNIT     CODE           ?PR?CH376READ32BITDAT?FILE_SYS
003EB0H   003F2EH   00007FH   BYTE   UNIT     CODE           ?PR?_MATCHFILE?APP_INTERFACE
003F2FH   003FA3H   000075H   BYTE   UNIT     CODE           ?PR?ACKDISKINIT?USB_DGUS
003FA4H   00400DH   00006AH   BYTE   UNIT     CODE           ?PR?_CH376FILEDELETEPATH?FILE_SYS
00400EH   004076H   000069H   BYTE   UNIT     CODE           ?PR?_WRITEDGUSCLIENTSTRING?USB_DGUS
004077H   0040DFH   000069H   BYTE   UNIT     CODE           ?PR?_CH376SETFILENAME?FILE_SYS
0040E0H   004147H   000068H   BYTE   UNIT     CODE           ?PR?_STRNCPY?STRNCPY
004148H   00419DH   000056H   BYTE   UNIT     CODE           ?PR?_CH376WRITEVAR32?FILE_SYS
00419EH   0041EDH   000050H   BYTE   UNIT     CODE           ?PR?_CH376READBLOCK?FILE_SYS
0041EEH   004233H   000046H   BYTE   UNIT     CODE           ?PR?_CH376WRITEHOSTBLOCK?FILE_SYS
004234H   004277H   000044H   BYTE   UNIT     CODE           ?PR?_SYSUPGETDWINFILE?APP_INTERFACE
004278H   0042BAH   000043H   BYTE   UNIT     CODE           ?PR?CHECKIC?APP_INTERFACE
0042BBH   0042FBH   000041H   BYTE   UNIT     CODE           ?PR?_SYSUPWAITOSFINISHREAD?APP_INTERFACE
0042FCH   00433CH   000041H   BYTE   UNIT     CODE           ?PR?_CH376SECLOCATE?FILE_SYS
00433DH   004377H   00003BH   BYTE   UNIT     CODE           ?PR?INIT_CPU?SYS
004378H   0043AEH   000037H   BYTE   UNIT     CODE           ?PR?T0_ISR_PC?MAIN
0043AFH   0043E4H   000036H   BYTE   UNIT     CODE           ?PR?_CREATEFILEORDIR?APP_INTERFACE
0043E5H   004417H   000033H   BYTE   UNIT     CODE           ?PR?_UART5_SENDSTRING?UART
004418H   004448H   000031H   BYTE   UNIT     CODE           ?PR?_COMPAREDGUSREGVALUE?USB_DGUS
004449H   004478H   000030H   BYTE   UNIT     CODE           ?PR?_RMFILEORDIR?APP_INTERFACE
004479H   0044A2H   00002AH   BYTE   UNIT     CODE           ?PR?CH376GETINTSTATUS?FILE_SYS
0044A3H   0044C9H   000027H   BYTE   UNIT     CODE           ?PR?WAIT376INTERRUPT?FILE_SYS
0044CAH   0044F0H   000027H   BYTE   UNIT     CODE           ?PR?PUTCHAR?PUTCHAR
0044F1H   004511H   000021H   BYTE   UNIT     CODE           ?PR?_ALPHABETTRANSFROM?FILE_SYS
004512H   004530H   00001FH   BYTE   UNIT     CODE           ?PR?_XWRITECH376CMD?PARA_PORT
004531H   00454DH   00001DH   BYTE   UNIT     CODE           ?PR?_UART5_SENDBYTE?UART
00454EH   00456AH   00001DH   BYTE   UNIT     CODE           ?PR?_CH376WRITEVAR8?FILE_SYS
00456BH   004585H   00001BH   BYTE   UNIT     CODE           ?PR?XREADCH376DATA?PARA_PORT
004586H   00459CH   000017H   BYTE   UNIT     CODE           ?PR?_XWRITECH376DATA?PARA_PORT
00459DH   0045B3H   000017H   BYTE   UNIT     CODE           ?PR?_CH376DIRCREATE?FILE_SYS
0045B4H   0045C8H   000015H   BYTE   UNIT     CODE           ?PR?_CH376CLOSEFILE?FILE_SYS
0045C9H   0045DDH   000015H   BYTE   UNIT     CODE           ?PR?_CH376READVAR32?FILE_SYS
0045DEH   0045F2H   000015H   BYTE   UNIT     CODE           ?PR?_STRLEN?STRLEN
0045F3H   004603H   000011H   BYTE   UNIT     CODE           ?PR?MDELAY0_5US?PARA_PORT
004604H   004612H   00000FH   BYTE   UNIT     CODE           ?PR?CH376_PORT_INIT?PARA_PORT
004613H   00461FH   00000DH   BYTE   UNIT     CODE           ?PR?UART5_INIT?UART
004620H   00462CH   00000DH   BYTE   UNIT     CODE           ?PR?CHECKCONNECT?APP_INTERFACE
00462DH   004639H   00000DH   BYTE   UNIT     CODE           ?PR?CHECKDISKINIT?APP_INTERFACE
00463AH   004646H   00000DH   BYTE   UNIT     CODE           ?PR?_CH376FILEOPENPATH?FILE_SYS
004647H   00464EH   000008H   BYTE   UNIT     CODE           ?PR?CH376ERROR?FILE_SYS
00464FH   004656H   000008H   BYTE   UNIT     CODE           ?PR?_CH376DELETEFILE?FILE_SYS
004657H   00465EH   000008H   BYTE   UNIT     CODE           ?PR?_CH376FILEOPEN?FILE_SYS
00465FH   004666H   000008H   BYTE   UNIT     CODE           ?PR?_CH376FILECREATE?FILE_SYS
004667H   00466DH   000007H   BYTE   UNIT     CODE           ?PR?CH376ENDDIRINFO?FILE_SYS
00466EH   004673H   000006H   BYTE   UNIT     CODE           ?PR?_CH376SENDCMDWAITINT?FILE_SYS
004674H   004678H   000005H   BYTE   UNIT     CODE           ?PR?CH376DISKCONNECT?FILE_SYS
004679H   00467DH   000005H   BYTE   UNIT     CODE           ?PR?CH376DISKREQSENSE?FILE_SYS
00467EH   004682H   000005H   BYTE   UNIT     CODE           ?PR?CH376DISKMOUNT?FILE_SYS
004683H   004687H   000005H   BYTE   UNIT     CODE           ?PR?CH376GETFILESIZE?FILE_SYS
004688H   0046C4H   00003DH   BYTE   UNIT     CONST          ?CO?APP_INTERFACE
0046C5H   0046EDH   000029H   BYTE   UNIT     CONST          ?CO?DGUS_CONFIG

* * * * * * * * * * *  X D A T A   M E M O R Y  * * * * * * * * * * * * *
008000H   00B5E8H   0035E9H   BYTE   UNIT     XDATA          _XDATA_GROUP_
00B5E9H   00B628H   000040H   BYTE   UNIT     XDATA          ?XD?FILE_SYS
00B629H   00B62AH   000002H   BYTE   UNIT     XDATA          ?XD?MAIN

* * * * * * * * *   R E M O V E D     S E G M E N T S   * * * * * * * *
LX51 LINKER/LOCATER V4.66.93.0                                                        07/09/2019  16:24:51  PAGE 5


   *DEL*:           00007CH   BYTE   UNIT     CODE           ?PR?_SENDSTRING?UART
   *DEL*:           00000BH   BYTE   UNIT     XDATA          ?XD?_SENDSTRING?UART
   *DEL*:           000031H   BYTE   UNIT     CODE           ?PR?_SEND32BYTE?UART
   *DEL*:           000004H   BYTE   UNIT     XDATA          ?XD?_SEND32BYTE?UART
   *DEL*:           000016H   BYTE   UNIT     CODE           ?PR?XREADCH376STATUS?PARA_PORT
   *DEL*:           00001FH   BYTE   UNIT     CODE           ?PR?DELAY?APP_INTERFACE
   *DEL*:           000095H   BYTE   UNIT     CODE           ?PR?USBINIT?APP_INTERFACE
   *DEL*:           000002H   BYTE   UNIT     XDATA          ?XD?USBINIT?APP_INTERFACE
   *DEL*:           0000C7H   BYTE   UNIT     CODE           ?PR?_CH376SEPARATEPATH?FILE_SYS
   *DEL*:           000006H   BYTE   UNIT     XDATA          ?XD?_CH376SEPARATEPATH?FILE_SYS
   *DEL*:           00004BH   BYTE   UNIT     CODE           ?PR?_CH376FILECREATEPATH?FILE_SYS
   *DEL*:           000004H   BYTE   UNIT     XDATA          ?XD?_CH376FILECREATEPATH?FILE_SYS
   *DEL*:           000015H   BYTE   UNIT     CODE           ?PR?_CH376READVAR8?FILE_SYS
   *DEL*:           000001H   BYTE   UNIT     XDATA          ?XD?_CH376READVAR8?FILE_SYS
   *DEL*:           000053H   BYTE   UNIT     CODE           ?PR?_CH376WRITE32BITDAT?FILE_SYS
   *DEL*:           000004H   BYTE   UNIT     XDATA          ?XD?_CH376WRITE32BITDAT?FILE_SYS
   *DEL*:           000005H   BYTE   UNIT     CODE           ?PR?CH376GETDISKSTATUS?FILE_SYS
   *DEL*:           0000DAH   BYTE   UNIT     CODE           ?PR?_CH376DISKQUERY?FILE_SYS
   *DEL*:           000008H   BYTE   UNIT     XDATA          ?XD?_CH376DISKQUERY?FILE_SYS
   *DEL*:           00004CH   BYTE   UNIT     CODE           ?PR?_CH376DISKCAPACITY?FILE_SYS
   *DEL*:           000004H   BYTE   UNIT     XDATA          ?XD?_CH376DISKCAPACITY?FILE_SYS
   *DEL*:           000048H   BYTE   UNIT     CODE           ?PR?_CH376WRITEREQBLOCK?FILE_SYS
   *DEL*:           000005H   BYTE   UNIT     XDATA          ?XD?_CH376WRITEREQBLOCK?FILE_SYS
   *DEL*:           00003BH   BYTE   UNIT     CODE           ?PR?_CH376CHECKNAMESUM?FILE_SYS
   *DEL*:           000003H   BYTE   UNIT     XDATA          ?XD?_CH376CHECKNAMESUM?FILE_SYS
   *DEL*:           000060H   BYTE   UNIT     CODE           ?PR?_CH376BYTELOCATE?FILE_SYS
   *DEL*:           000004H   BYTE   UNIT     XDATA          ?XD?_CH376BYTELOCATE?FILE_SYS
   *DEL*:           00009FH   BYTE   UNIT     CODE           ?PR?_CH376BYTEREAD?FILE_SYS
   *DEL*:           000009H   BYTE   UNIT     XDATA          ?XD?_CH376BYTEREAD?FILE_SYS
   *DEL*:           000117H   BYTE   UNIT     CODE           ?PR?_CH376LOCATEINUPDIR?FILE_SYS
   *DEL*:           000004H   BYTE   UNIT     XDATA          ?XD?_CH376LOCATEINUPDIR?FILE_SYS
   *DEL*:           000086H   BYTE   UNIT     CODE           ?PR?_CH376LONGNAMEWRITE?FILE_SYS
   *DEL*:           000006H   BYTE   UNIT     XDATA          ?XD?_CH376LONGNAMEWRITE?FILE_SYS
   *DEL*:           00040FH   BYTE   UNIT     CODE           ?PR?_CH376CREATELONGNAME?FILE_SYS
   *DEL*:           00000FH   BYTE   UNIT     XDATA          ?XD?_CH376CREATELONGNAME?FILE_SYS
   *DEL*:           000002H   BYTE   UNIT     CONST          ?CO?FILE_SYS



OVERLAY MAP OF MODULE:   .\obj\T5L51 (MAIN)


FUNCTION/MODULE                            BIT_GROUP   DATA_GROUP   XDATA_GROUP
--> CALLED FUNCTION/MODULE                START  STOP  START  STOP  START  STOP
===============================================================================
T0_ISR_PC/MAIN                            ----- -----  ----- -----  ----- -----

*** NEW ROOT ****************************

?C_C51STARTUP                             ----- -----  ----- -----  ----- -----
  +--> MAIN/MAIN
  +--> ?C_INITSEG

MAIN/MAIN                                 ----- -----  ----- -----  8000H 9021H
  +--> INIT_CPU/SYS
  +--> CH376_PORT_INIT/PARA_PORT
  +--> UART5_INIT/UART
  +--> _WRITEDGUS/DGUS
  +--> USBMODULE/USB_DGUS
  +--> MESSEAGESHOW/DGUS_CONFIG

INIT_CPU/SYS                              ----- -----  ----- -----  ----- -----

CH376_PORT_INIT/PARA_PORT                 ----- -----  ----- -----  ----- -----

LX51 LINKER/LOCATER V4.66.93.0                                                        07/09/2019  16:24:51  PAGE 6


UART5_INIT/UART                           ----- -----  ----- -----  ----- -----

_WRITEDGUS/DGUS                           ----- -----  ----- -----  A5C1H A5C9H

USBMODULE/USB_DGUS                        ----- -----  ----- -----  9022H 9022H
  +--> ACKDISKINIT/USB_DGUS
  +--> _COMPAREDGUSREGVALUE/USB_DGUS
  +--> ACKSYSTEMUP/USB_DGUS
  +--> ACKSEARCHFILE/USB_DGUS
  +--> ACKREADORWRITEFILE/USB_DGUS
  +--> ACKCREATEORDELPATH/USB_DGUS
  +--> ACKGETORSETPATH/USB_DGUS

ACKDISKINIT/USB_DGUS                      ----- -----  ----- -----  9023H 9026H
  +--> _READDGUS/DGUS
  +--> CHECKIC/APP_INTERFACE
  +--> CHECKCONNECT/APP_INTERFACE
  +--> CHECKDISKINIT/APP_INTERFACE
  +--> _WRITEDGUS/DGUS

_READDGUS/DGUS                            ----- -----  ----- -----  A5C6H A5CFH

CHECKIC/APP_INTERFACE                     ----- -----  ----- -----  9027H 9027H
  +--> _XWRITECH376CMD/PARA_PORT
  +--> _XWRITECH376DATA/PARA_PORT
  +--> XREADCH376DATA/PARA_PORT

_XWRITECH376CMD/PARA_PORT                 ----- -----  ----- -----  ----- -----
  +--> MDELAY0_5US/PARA_PORT

MDELAY0_5US/PARA_PORT                     ----- -----  ----- -----  ----- -----

_XWRITECH376DATA/PARA_PORT                ----- -----  ----- -----  ----- -----
  +--> MDELAY0_5US/PARA_PORT

XREADCH376DATA/PARA_PORT                  ----- -----  ----- -----  ----- -----
  +--> MDELAY0_5US/PARA_PORT

CHECKCONNECT/APP_INTERFACE                ----- -----  ----- -----  ----- -----
  +--> CH376DISKCONNECT/FILE_SYS

CH376DISKCONNECT/FILE_SYS                 ----- -----  ----- -----  ----- -----
  +--> _CH376SENDCMDWAITINT/FILE_SYS

_CH376SENDCMDWAITINT/FILE_SYS             ----- -----  ----- -----  ----- -----
  +--> _XWRITECH376CMD/PARA_PORT
  +--> WAIT376INTERRUPT/FILE_SYS

WAIT376INTERRUPT/FILE_SYS                 ----- -----  ----- -----  B5E3H B5E6H
  +--> QUERY376INTERRUPT/FILE_SYS
  +--> CH376GETINTSTATUS/FILE_SYS

QUERY376INTERRUPT/FILE_SYS                ----- -----  ----- -----  ----- -----

CH376GETINTSTATUS/FILE_SYS                ----- -----  ----- -----  B5E7H B5E8H
  +--> _XWRITECH376CMD/PARA_PORT
  +--> XREADCH376DATA/PARA_PORT

CHECKDISKINIT/APP_INTERFACE               ----- -----  ----- -----  ----- -----
  +--> CH376DISKMOUNT/FILE_SYS

CH376DISKMOUNT/FILE_SYS                   ----- -----  ----- -----  ----- -----
  +--> _CH376SENDCMDWAITINT/FILE_SYS

_COMPAREDGUSREGVALUE/USB_DGUS             ----- -----  ----- -----  9023H 9028H
LX51 LINKER/LOCATER V4.66.93.0                                                        07/09/2019  16:24:51  PAGE 7


  +--> _READDGUS/DGUS

ACKSYSTEMUP/USB_DGUS                      ----- -----  ----- -----  9023H 902DH
  +--> _READDGUS/DGUS
  +--> _?SYSTEMUPDRIVER/USB_DGUS
  +--> _WRITEDGUS/DGUS

_?SYSTEMUPDRIVER/USB_DGUS                 ----- -----  ----- -----  ----- -----
  +--> _SYSTEMUPDATE/APP_INTERFACE

_SYSTEMUPDATE/APP_INTERFACE               ----- -----  ----- -----  902EH 938BH
  +--> _READDGUS/DGUS
  +--> _SYSUPGETFILEMESG/APP_INTERFACE
  +--> _SYSUPGETDWINFILE/APP_INTERFACE
  +--> _SYSUPFILEMATCH/APP_INTERFACE
  +--> _UART5_SENDSTRING/UART
  +--> _SYSUPFILESEND/APP_INTERFACE

_SYSUPGETFILEMESG/APP_INTERFACE           ----- -----  ----- -----  938CH 9397H
  +--> PRINTF/PRINTF

PRINTF/PRINTF                             20H.0 21H.0  0008H 000CH  939FH 93C6H
  +--> PUTCHAR/PUTCHAR

PUTCHAR/PUTCHAR                           ----- -----  ----- -----  ----- -----

_SYSUPGETDWINFILE/APP_INTERFACE           ----- -----  ----- -----  938CH 938FH
  +--> _CH376MATCHFILE/FILE_SYS

_CH376MATCHFILE/FILE_SYS                  ----- -----  ----- -----  93F2H 9442H
  +--> _CH376FILEOPENPATH/FILE_SYS
  +--> _CH376SETFILENAME/FILE_SYS
  +--> _XWRITECH376CMD/PARA_PORT
  +--> WAIT376INTERRUPT/FILE_SYS
  +--> _CH376READBLOCK/FILE_SYS
  +--> CH376ENDDIRINFO/FILE_SYS

_CH376FILEOPENPATH/FILE_SYS               ----- -----  ----- -----  ----- -----
  +--> _CH376FILEOPENDIR/FILE_SYS

_CH376FILEOPENDIR/FILE_SYS                ----- -----  ----- -----  B2DBH B2DFH
  +--> _CH376FILEOPEN/FILE_SYS

_CH376FILEOPEN/FILE_SYS                   ----- -----  ----- -----  ----- -----
  +--> _CH376SETFILENAME/FILE_SYS
  +--> _CH376SENDCMDWAITINT/FILE_SYS

_CH376SETFILENAME/FILE_SYS                ----- -----  ----- -----  B5E2H B5E5H
  +--> _XWRITECH376CMD/PARA_PORT
  +--> _XWRITECH376DATA/PARA_PORT

_CH376READBLOCK/FILE_SYS                  ----- -----  ----- -----  B2F4H B2F8H
  +--> _XWRITECH376CMD/PARA_PORT
  +--> XREADCH376DATA/PARA_PORT

CH376ENDDIRINFO/FILE_SYS                  ----- -----  ----- -----  ----- -----
  +--> _CH376WRITEVAR8/FILE_SYS

_CH376WRITEVAR8/FILE_SYS                  ----- -----  ----- -----  9443H 9444H
  +--> _XWRITECH376CMD/PARA_PORT
  +--> _XWRITECH376DATA/PARA_PORT

_SYSUPFILEMATCH/APP_INTERFACE             ----- -----  ----- -----  938CH 939EH
  +--> _STRSTR/STRSTR
  +--> _NUMBERSTRINGMATCH/APP_INTERFACE
LX51 LINKER/LOCATER V4.66.93.0                                                        07/09/2019  16:24:51  PAGE 8


  +--> PRINTF/PRINTF

_STRSTR/STRSTR                            ----- -----  ----- -----  939FH 93AAH

_NUMBERSTRINGMATCH/APP_INTERFACE          ----- -----  ----- -----  939FH 93A7H

_UART5_SENDSTRING/UART                    ----- -----  ----- -----  A0BFH A0C1H
  +--> _UART5_SENDBYTE/UART

_UART5_SENDBYTE/UART                      ----- -----  ----- -----  ----- -----

_SYSUPFILESEND/APP_INTERFACE              ----- -----  ----- -----  938CH A5B0H
  +--> _SYSUPPCAKSET/APP_INTERFACE
  +--> _READFILE/APP_INTERFACE
  +--> _SENDUPPACKTODGUS/APP_INTERFACE

_SYSUPPCAKSET/APP_INTERFACE               ----- -----  ----- -----  A5B1H A5BBH

_READFILE/APP_INTERFACE                   ----- -----  ----- -----  A5B1H A5C9H
  +--> _ALPHABETTRANSFROM/FILE_SYS
  +--> _CH376FILEOPENPATH/FILE_SYS
  +--> CH376GETFILESIZE/FILE_SYS
  +--> _CH376SECLOCATE/FILE_SYS
  +--> _CH376SECTORREAD/FILE_SYS
  +--> CH376ERROR/FILE_SYS
  +--> _CH376CLOSEFILE/FILE_SYS

_ALPHABETTRANSFROM/FILE_SYS               ----- -----  ----- -----  ----- -----

CH376GETFILESIZE/FILE_SYS                 ----- -----  ----- -----  ----- -----
  +--> _CH376READVAR32/FILE_SYS

_CH376READVAR32/FILE_SYS                  ----- -----  ----- -----  B2DBH B2DBH
  +--> _XWRITECH376CMD/PARA_PORT
  +--> _XWRITECH376DATA/PARA_PORT
  +--> CH376READ32BITDAT/FILE_SYS

CH376READ32BITDAT/FILE_SYS                ----- -----  ----- -----  B2E8H B2EBH
  +--> XREADCH376DATA/PARA_PORT

_CH376SECLOCATE/FILE_SYS                  ----- -----  ----- -----  B2DBH B2DEH
  +--> _XWRITECH376CMD/PARA_PORT
  +--> _XWRITECH376DATA/PARA_PORT
  +--> WAIT376INTERRUPT/FILE_SYS

_CH376SECTORREAD/FILE_SYS                 ----- -----  ----- -----  B2DBH B2E7H
  +--> _XWRITECH376CMD/PARA_PORT
  +--> _XWRITECH376DATA/PARA_PORT
  +--> WAIT376INTERRUPT/FILE_SYS
  +--> XREADCH376DATA/PARA_PORT
  +--> CH376READ32BITDAT/FILE_SYS
  +--> _CH376DISKREADSEC/FILE_SYS

_CH376DISKREADSEC/FILE_SYS                ----- -----  ----- -----  B2E8H B2F3H
  +--> _XWRITECH376CMD/PARA_PORT
  +--> _XWRITECH376DATA/PARA_PORT
  +--> WAIT376INTERRUPT/FILE_SYS
  +--> _CH376READBLOCK/FILE_SYS
  +--> CH376DISKREQSENSE/FILE_SYS

CH376DISKREQSENSE/FILE_SYS                ----- -----  ----- -----  ----- -----
  +--> _CH376SENDCMDWAITINT/FILE_SYS

CH376ERROR/FILE_SYS                       ----- -----  ----- -----  ----- -----
  +--> _CH376CLOSEFILE/FILE_SYS
LX51 LINKER/LOCATER V4.66.93.0                                                        07/09/2019  16:24:51  PAGE 9



_CH376CLOSEFILE/FILE_SYS                  ----- -----  ----- -----  B5E2H B5E2H
  +--> _XWRITECH376CMD/PARA_PORT
  +--> _XWRITECH376DATA/PARA_PORT
  +--> WAIT376INTERRUPT/FILE_SYS

_SENDUPPACKTODGUS/APP_INTERFACE           ----- -----  ----- -----  A5B1H A5C0H
  +--> _SYSUPWAITOSFINISHREAD/APP_INTERFACE
  +--> _WRITEDGUS/DGUS

_SYSUPWAITOSFINISHREAD/APP_INTERFACE      ----- -----  ----- -----  A5C1H A5C5H
  +--> _READDGUS/DGUS

ACKSEARCHFILE/USB_DGUS                    ----- -----  ----- -----  9023H 93E7H
  +--> _READDGUS/DGUS
  +--> _WRITEDGUS/DGUS
  +--> _READDGUSCLIENTSTRING/USB_DGUS
  +--> _MATCHFILE/APP_INTERFACE

_READDGUSCLIENTSTRING/USB_DGUS            ----- -----  ----- -----  A0BFH A0CDH
  +--> _READDGUS/DGUS
  +--> _STRLEN/STRLEN

_STRLEN/STRLEN                            ----- -----  ----- -----  ----- -----

_MATCHFILE/APP_INTERFACE                  ----- -----  ----- -----  93E8H 93F1H
  +--> _ALPHABETTRANSFROM/FILE_SYS
  +--> _CH376MATCHFILE/FILE_SYS

ACKREADORWRITEFILE/USB_DGUS               ----- -----  ----- -----  9023H A0BEH
  +--> _READDGUS/DGUS
  +--> _READDGUSCLIENTSTRING/USB_DGUS
  +--> _READFILE/APP_INTERFACE
  +--> _UART5_SENDSTRING/UART
  +--> _WRITEDGUSCLIENTSTRING/USB_DGUS
  +--> _WRITEFILE/APP_INTERFACE
  +--> _WRITEDGUS/DGUS

_WRITEDGUSCLIENTSTRING/USB_DGUS           ----- -----  ----- -----  A0BFH A0C7H
  +--> _WRITEDGUS/DGUS

_WRITEFILE/APP_INTERFACE                  ----- -----  ----- -----  A0BFH B2DAH
  +--> _ALPHABETTRANSFROM/FILE_SYS
  +--> _CH376FILEOPENPATH/FILE_SYS
  +--> _CH376CREATEFILEORDIR/APP_INTERFACE
  +--> CH376GETFILESIZE/FILE_SYS
  +--> _CH376SECTORREAD/FILE_SYS
  +--> _CH376SECLOCATE/FILE_SYS
  +--> CH376ERROR/FILE_SYS
  +--> _STRNCPY/STRNCPY
  +--> _CH376SECTORWRITE/FILE_SYS
  +--> _CH376WRITEVAR32/FILE_SYS
  +--> _CH376CLOSEFILE/FILE_SYS

_CH376CREATEFILEORDIR/APP_INTERFACE       ----- -----  ----- -----  B2DBH B5E1H
  +--> _CH376FILEOPEN/FILE_SYS
  +--> _CH376FILECREATE/FILE_SYS
  +--> _CH376DELETEFILE/FILE_SYS
  +--> CH376ERROR/FILE_SYS
  +--> _CH376DIRCREATE/FILE_SYS

_CH376FILECREATE/FILE_SYS                 ----- -----  ----- -----  ----- -----
  +--> _CH376SETFILENAME/FILE_SYS
  +--> _CH376SENDCMDWAITINT/FILE_SYS

LX51 LINKER/LOCATER V4.66.93.0                                                        07/09/2019  16:24:51  PAGE 10


_CH376DELETEFILE/FILE_SYS                 ----- -----  ----- -----  ----- -----
  +--> _CH376SETFILENAME/FILE_SYS
  +--> _CH376SENDCMDWAITINT/FILE_SYS

_CH376DIRCREATE/FILE_SYS                  ----- -----  ----- -----  ----- -----
  +--> _CH376SETFILENAME/FILE_SYS
  +--> _CH376WRITEVAR32/FILE_SYS
  +--> _CH376SENDCMDWAITINT/FILE_SYS

_CH376WRITEVAR32/FILE_SYS                 ----- -----  ----- -----  B5E2H B5E6H
  +--> _XWRITECH376CMD/PARA_PORT
  +--> _XWRITECH376DATA/PARA_PORT

_STRNCPY/STRNCPY                          ----- -----  ----- -----  B2DBH B2E4H

_CH376SECTORWRITE/FILE_SYS                ----- -----  ----- -----  B2DBH B2E7H
  +--> _XWRITECH376CMD/PARA_PORT
  +--> _XWRITECH376DATA/PARA_PORT
  +--> WAIT376INTERRUPT/FILE_SYS
  +--> XREADCH376DATA/PARA_PORT
  +--> CH376READ32BITDAT/FILE_SYS
  +--> _CH376DISKWRITESEC/FILE_SYS

_CH376DISKWRITESEC/FILE_SYS               ----- -----  ----- -----  B2E8H B2F3H
  +--> _XWRITECH376CMD/PARA_PORT
  +--> _XWRITECH376DATA/PARA_PORT
  +--> WAIT376INTERRUPT/FILE_SYS
  +--> _CH376WRITEHOSTBLOCK/FILE_SYS
  +--> CH376DISKREQSENSE/FILE_SYS

_CH376WRITEHOSTBLOCK/FILE_SYS             ----- -----  ----- -----  B2F4H B2F7H
  +--> _XWRITECH376CMD/PARA_PORT
  +--> _XWRITECH376DATA/PARA_PORT

ACKCREATEORDELPATH/USB_DGUS               ----- -----  ----- -----  9023H 90AEH
  +--> _READDGUS/DGUS
  +--> _READDGUSCLIENTSTRING/USB_DGUS
  +--> _CREATEFILEORDIR/APP_INTERFACE
  +--> _RMFILEORDIR/APP_INTERFACE
  +--> _WRITEDGUS/DGUS

_CREATEFILEORDIR/APP_INTERFACE            ----- -----  ----- -----  90AFH 90B2H
  +--> _ALPHABETTRANSFROM/FILE_SYS
  +--> _CH376CREATEFILEORDIR/APP_INTERFACE

_RMFILEORDIR/APP_INTERFACE                ----- -----  ----- -----  90AFH 90B1H
  +--> _ALPHABETTRANSFROM/FILE_SYS
  +--> _CH376FILEDELETEPATH/FILE_SYS

_CH376FILEDELETEPATH/FILE_SYS             ----- -----  ----- -----  90B2H 90B4H
  +--> _CH376FILEOPENPATH/FILE_SYS
  +--> _CH376SETFILENAME/FILE_SYS
  +--> _CH376SENDCMDWAITINT/FILE_SYS

ACKGETORSETPATH/USB_DGUS                  ----- -----  ----- -----  9023H 90BDH
  +--> _READDGUS/DGUS
  +--> _READDGUSCLIENTSTRING/USB_DGUS
  +--> _GETFILEMESSAGE/APP_INTERFACE
  +--> _WRITEDGUS/DGUS
  +--> _SETFILEMESSAGE/APP_INTERFACE

_GETFILEMESSAGE/APP_INTERFACE             ----- -----  ----- -----  90BEH 90EAH
  +--> _ALPHABETTRANSFROM/FILE_SYS
  +--> _CH376GETFILEMESSAGE/FILE_SYS

LX51 LINKER/LOCATER V4.66.93.0                                                        07/09/2019  16:24:51  PAGE 11


_CH376GETFILEMESSAGE/FILE_SYS             ----- -----  ----- -----  90EBH 9134H
  +--> _CH376FILEOPENPATH/FILE_SYS
  +--> _XWRITECH376CMD/PARA_PORT
  +--> _XWRITECH376DATA/PARA_PORT
  +--> WAIT376INTERRUPT/FILE_SYS
  +--> _CH376CLOSEFILE/FILE_SYS
  +--> _CH376READBLOCK/FILE_SYS

_SETFILEMESSAGE/APP_INTERFACE             ----- -----  ----- -----  90BEH 90E9H
  +--> _ALPHABETTRANSFROM/FILE_SYS
  +--> _CH376SETFILEMESSAGE/FILE_SYS

_CH376SETFILEMESSAGE/FILE_SYS             ----- -----  ----- -----  90EAH 9133H
  +--> _CH376FILEOPENPATH/FILE_SYS
  +--> _XWRITECH376CMD/PARA_PORT
  +--> _XWRITECH376DATA/PARA_PORT
  +--> WAIT376INTERRUPT/FILE_SYS
  +--> _CH376CLOSEFILE/FILE_SYS

MESSEAGESHOW/DGUS_CONFIG                  ----- -----  ----- -----  9022H 9056H
  +--> _READDGUS/DGUS
  +--> PRINTF/PRINTF
  +--> _WRITEDGUS/DGUS

?C_INITSEG                                ----- -----  ----- -----  ----- -----



PUBLIC SYMBOLS OF MODULE:  .\obj\T5L51 (MAIN)


      VALUE       CLASS    TYPE      PUBLIC SYMBOL NAME
      =================================================
*DEL*:00000000H   XDATA    BYTE      ?_CH376ByteRead?BYTE
*DEL*:00000000H   XDATA    BYTE      ?_CH376CreateLongName?BYTE
      0200B2E8H   XDATA    BYTE      ?_CH376DiskReadSec?BYTE
      0200B2E8H   XDATA    BYTE      ?_CH376DiskWriteSec?BYTE
      020090EBH   XDATA    BYTE      ?_CH376GetFileMessage?BYTE
      020093F2H   XDATA    BYTE      ?_CH376MatchFile?BYTE
      0200B2DBH   XDATA    BYTE      ?_CH376SectorRead?BYTE
      0200B2DBH   XDATA    BYTE      ?_CH376SectorWrite?BYTE
      020090EAH   XDATA    BYTE      ?_CH376SetFileMessage?BYTE
      0200B5E2H   XDATA    BYTE      ?_CH376WriteVar32?BYTE
      02009023H   XDATA    BYTE      ?_CompareDgusRegValue?BYTE
      020090BEH   XDATA    BYTE      ?_GetFileMessage?BYTE
      020093E8H   XDATA    BYTE      ?_MatchFile?BYTE
      0200939FH   XDATA    BYTE      ?_NumberStringMatch?BYTE
      0200939FH   XDATA    ---       ?_PRINTF517?BYTE
      0200939FH   XDATA    ---       ?_PRINTF?BYTE
      0200A5C6H   XDATA    BYTE      ?_ReadDGUS?BYTE
      0200A0BFH   XDATA    BYTE      ?_ReadDgusClientString?BYTE
      0200A5B1H   XDATA    BYTE      ?_ReadFile?BYTE
      0200A5B1H   XDATA    BYTE      ?_SendUpPackToDGUS?BYTE
      020090BEH   XDATA    BYTE      ?_SetFileMessage?BYTE
      0200939FH   XDATA    ---       ?_SPRINTF517?BYTE
      0200939FH   XDATA    ---       ?_SPRINTF?BYTE
      0200B2DBH   XDATA    ---       ?_strncpy?BYTE
      0200939FH   XDATA    ---       ?_strstr?BYTE
      0200938CH   XDATA    BYTE      ?_SysUpFileMatch?BYTE
      0200938CH   XDATA    BYTE      ?_SysUpFileSend?BYTE
      0200938CH   XDATA    BYTE      ?_SysUpGetFileMesg?BYTE
      0200A5B1H   XDATA    BYTE      ?_SysUpPcakSet?BYTE
      0200A5C1H   XDATA    BYTE      ?_WriteDGUS?BYTE
      0200A0BFH   XDATA    BYTE      ?_WriteDgusClientString?BYTE
      0200A0BFH   XDATA    BYTE      ?_WriteFile?BYTE
LX51 LINKER/LOCATER V4.66.93.0                                                        07/09/2019  16:24:51  PAGE 12


      01000455H   CODE     ---       ?C?ADDXBP
      0100066FH   CODE     ---       ?C?CCASE
      01000146H   CODE     ---       ?C?CILDPTR
      01000119H   CODE     ---       ?C?CLDOPTR
      01000100H   CODE     ---       ?C?CLDPTR
      00000000H   NUMBER   ---       ?C?CODESEG
      0100017AH   CODE     ---       ?C?CSTOPTR
      01000168H   CODE     ---       ?C?CSTPTR
      01000280H   CODE     ---       ?C?IILDPTR
      010001F1H   CODE     ---       ?C?IILDX
      01000207H   CODE     ---       ?C?ILDIX
      01000248H   CODE     ---       ?C?ILDOPTR
      0100021DH   CODE     ---       ?C?ILDPTR
      010002D7H   CODE     ---       ?C?ISTOPTR
      010002B8H   CODE     ---       ?C?ISTPTR
      010005BFH   CODE     ---       ?C?LLDCODE
      010005F5H   CODE     ---       ?C?LLDCODE0
      0100059BH   CODE     ---       ?C?LLDIDATA
      010005CFH   CODE     ---       ?C?LLDIDATA0
      010003D2H   CODE     ---       ?C?LLDIXDATA
      010003C9H   CODE     ---       ?C?LLDIXDATA1
      010003CBH   CODE     ---       ?C?LLDIXDATA8
      0100033BH   CODE     ---       ?C?LLDOPTR
      010005B3H   CODE     ---       ?C?LLDPDATA
      010005E8H   CODE     ---       ?C?LLDPDATA0
      010003A9H   CODE     ---       ?C?LLDPTR0
      010005A7H   CODE     ---       ?C?LLDXDATA
      010005DCH   CODE     ---       ?C?LLDXDATA0
      01000328H   CODE     ---       ?C?LSHL
      01000605H   CODE     ---       ?C?LSTIDATA
      0100061DH   CODE     ---       ?C?LSTKIDATA
      01000636H   CODE     ---       ?C?LSTKPDATA
      0100043BH   CODE     ---       ?C?LSTKPTR
      0100040AH   CODE     ---       ?C?LSTKXDATA
      01000385H   CODE     ---       ?C?LSTOPTR
      01000611H   CODE     ---       ?C?LSTPDATA
      0100036BH   CODE     ---       ?C?LSTPTR
      010003FEH   CODE     ---       ?C?LSTXDATA
      0100056FH   CODE     ---       ?C?MEMSET
      0100064FH   CODE     ---       ?C?PLDIXDATA
      01000666H   CODE     ---       ?C?PSTXDATA
      01000552H   CODE     ---       ?C?STRCPY
      0100019CH   CODE     ---       ?C?UIDIV
      01000304H   CODE     ---       ?C?ULCMP
      01000315H   CODE     ---       ?C?ULSHR
      01000479H   CODE     ---       ?C?XBPOFF
      00000000H   NUMBER   ---       ?C?XDATASEG
      01003CE4H   CODE     ---       ?C_START
      01000000H   CODE     ---       ?C_STARTUP
      0000000DH   DATA     ---       ?C_XBP
      010024A7H   CODE     ---       _?SystemUpDriver
      010044F1H   CODE     ---       _AlphabetTransfrom
*DEL*:0000000EH   CODE     ---       _CH376ByteLocate
*DEL*:00000018H   CODE     ---       _CH376ByteRead
*DEL*:00000000H   CODE     ---       _CH376CheckNameSum
      010045B4H   CODE     ---       _CH376CloseFile
      010029B9H   CODE     ---       _CH376CreateFileOrDir
*DEL*:00000000H   CODE     ---       _CH376CreateLongName
      0100464FH   CODE     ---       _CH376DeleteFile
      0100459DH   CODE     ---       _CH376DirCreate
*DEL*:00000000H   CODE     ---       _CH376DiskCapacity
*DEL*:00000000H   CODE     ---       _CH376DiskQuery
      010036EEH   CODE     ---       _CH376DiskReadSec
      010035EAH   CODE     ---       _CH376DiskWriteSec
      0100465FH   CODE     ---       _CH376FileCreate
LX51 LINKER/LOCATER V4.66.93.0                                                        07/09/2019  16:24:51  PAGE 13


*DEL*:00000000H   CODE     ---       _CH376FileCreatePath
      01003FA4H   CODE     ---       _CH376FileDeletePath
      01004657H   CODE     ---       _CH376FileOpen
      01003B5EH   CODE     ---       _CH376FileOpenDir
      01004642H   CODE     ---       _CH376FileOpenPath
      0100209FH   CODE     ---       _CH376GetFileMessage
*DEL*:00000000H   CODE     ---       _CH376LocateInUpDir
*DEL*:0000000AH   CODE     ---       _CH376LongNameWrite
      01002B5BH   CODE     ---       _CH376MatchFile
      010041A6H   CODE     ---       _CH376ReadBlock
      010045C9H   CODE     ---       _CH376ReadVar32
*DEL*:00000000H   CODE     ---       _CH376ReadVar8
      010042FCH   CODE     ---       _CH376SecLocate
      010039C2H   CODE     ---       _CH376SectorRead
      010038F0H   CODE     ---       _CH376SectorWrite
      0100466EH   CODE     ---       _CH376SendCmdWaitInt
*DEL*:00000000H   CODE     ---       _CH376SeparatePath
      01001C41H   CODE     ---       _CH376SetFileMessage
      0100407FH   CODE     ---       _CH376SetFileName
*DEL*:00000000H   CODE     ---       _CH376Write32bitDat
      010041EEH   CODE     ---       _CH376WriteHostBlock
*DEL*:00000000H   CODE     ---       _CH376WriteReqBlock
      01004148H   CODE     ---       _CH376WriteVar32
      0100454EH   CODE     ---       _CH376WriteVar8
      01004424H   CODE     ---       _CompareDgusRegValue
      010043AFH   CODE     ---       _CreateFileOrDir
      01002FABH   CODE     ---       _GetFileMessage
      01003EB0H   CODE     ---       _MatchFile
      01003D29H   CODE     ---       _NumberStringMatch
      01000E95H   CODE     ---       _PRINTF
      01000E95H   CODE     ---       _PRINTF517
      010044CAH   CODE     ---       _PUTCHAR
      0100265CH   CODE     ---       _ReadDGUS
      010037F1H   CODE     ---       _ReadDgusClientString
      010014ACH   CODE     ---       _ReadFile
      01004449H   CODE     ---       _RmFileOrDir
*DEL*:00000000H   CODE     ---       _Send32Byte
*DEL*:00000000H   CODE     ---       _SendString
      01003C06H   CODE     ---       _SendUpPackToDGUS
      0100325FH   CODE     ---       _SetFileMessage
      01000E8FH   CODE     ---       _SPRINTF
      01000E8FH   CODE     ---       _SPRINTF517
      010045DEH   CODE     ---       _STRLEN
      010040E0H   CODE     ---       _strncpy
      01003A94H   CODE     ---       _strstr
      01002CD8H   CODE     ---       _SystemUpdate
      010019EAH   CODE     ---       _SysUpFileMatch
      0100118FH   CODE     ---       _SysUpFileSend
      01004234H   CODE     ---       _SysUpGetDWINFile
      01001760H   CODE     ---       _SysUpGetFileMesg
      010033B2H   CODE     ---       _SysUpPcakSet
      010042C9H   CODE     ---       _SysUpWaitOsFinishRead
      01004542H   CODE     ---       _UART5_Sendbyte
      010043E5H   CODE     ---       _UART5_SendString
      0100280BH   CODE     ---       _WriteDGUS
      0100400EH   CODE     ---       _WriteDgusClientString
      01000A86H   CODE     ---       _WriteFile
      01004512H   CODE     ---       _xWriteCH376Cmd
      01004586H   CODE     ---       _xWriteCH376Data
*SFR* 000000D0H.6 DATA     BIT       AC
*SFR* 000000E0H   DATA     BYTE      ACC
      0100000EH   CODE     ---       AckCreateOrDelPath
      01003F2FH   CODE     ---       AckDiskInit
      01002E42H   CODE     ---       AckGetOrSetPath
      01001E7DH   CODE     ---       AckReadOrWriteFile
LX51 LINKER/LOCATER V4.66.93.0                                                        07/09/2019  16:24:51  PAGE 14


      010022A8H   CODE     ---       AckSearchFile
      01003DADH   CODE     ---       AckSystemUp
*SFR* 000000D8H   DATA     BYTE      ADCON
*SFR* 000000F1H   DATA     BYTE      ADR_H
*SFR* 000000F4H   DATA     BYTE      ADR_INC
*SFR* 000000F3H   DATA     BYTE      ADR_L
*SFR* 000000F2H   DATA     BYTE      ADR_M
*SFR* 000000F8H.4 DATA     BIT       APP_ACK
*SFR* 000000F8H.6 DATA     BIT       APP_EN
*SFR* 000000F8H.7 DATA     BIT       APP_REQ
*SFR* 000000F8H.5 DATA     BIT       APP_RW
*SFR* 000000F0H   DATA     BYTE      B
*SFR* 000000D9H   DATA     BYTE      BODE2_DIV_H
*SFR* 000000E7H   DATA     BYTE      BODE2_DIV_L
*SFR* 000000AEH   DATA     BYTE      BODE3_DIV_H
*SFR* 000000AFH   DATA     BYTE      BODE3_DIV_L
*SFR* 0000008FH   DATA     BYTE      CAN_CR
*SFR* 000000E8H   DATA     BYTE      CAN_ET
*SFR* 00000091H   DATA     BYTE      CAN_IR
*SFR* 00000090H.0 DATA     BIT       CH376_A0
*SFR* 00000090H.1 DATA     BIT       CH376_CS
*SFR* 00000090H.4 DATA     BIT       CH376_INT_WIRE
      01004604H   CODE     ---       CH376_PORT_INIT
*SFR* 00000090H.3 DATA     BIT       CH376_RD
*SFR* 00000090H.2 DATA     BIT       CH376_WR
      01004674H   CODE     ---       CH376DiskConnect
      0100467EH   CODE     ---       CH376DiskMount
      01004679H   CODE     ---       CH376DiskReqSense
      01004667H   CODE     ---       CH376EndDirInfo
      01004647H   CODE     ---       CH376Error
*DEL*:00000000H   CODE     ---       CH376GetDiskStatus
      01004683H   CODE     ---       CH376GetFileSize
      01004479H   CODE     ---       CH376GetIntStatus
      01003E30H   CODE     ---       CH376Read32bitDat
      01004620H   CODE     ---       CheckConnect
      0100462DH   CODE     ---       CheckDiskInit
      01004278H   CODE     ---       CheckIC
*SFR* 0000008EH   DATA     BYTE      CKCON
*SFR* 000000D0H.7 DATA     BIT       CY
*SFR* 00000095H   DATA     BYTE      D_PAGESEL
*SFR* 000000FDH   DATA     BYTE      DATA0
*SFR* 000000FCH   DATA     BYTE      DATA1
*SFR* 000000FBH   DATA     BYTE      DATA2
*SFR* 000000FAH   DATA     BYTE      DATA3
*DEL*:00000000H   CODE     ---       Delay
*SFR* 000000E6H   DATA     BYTE      DIV_MODE
*SFR* 00000093H   DATA     BYTE      DPC
*SFR* 00000083H   DATA     BYTE      DPH
*SFR* 00000082H   DATA     BYTE      DPL
*SFR* 000000A8H.7 DATA     BIT       EA
*SFR* 000000B8H.1 DATA     BIT       ECAN
*SFR* 000000A8H.4 DATA     BIT       ES0
*SFR* 000000B8H.3 DATA     BIT       ES2R
*SFR* 000000B8H.2 DATA     BIT       ES2T
*SFR* 000000B8H.5 DATA     BIT       ES3R
*SFR* 000000B8H.4 DATA     BIT       ES3T
*SFR* 000000A8H.1 DATA     BIT       ET0
*SFR* 000000A8H.3 DATA     BIT       ET1
*SFR* 000000A8H.5 DATA     BIT       ET2
*SFR* 000000A8H.0 DATA     BIT       EX0
*SFR* 000000A8H.2 DATA     BIT       EX1
*SFR* 000000FEH   DATA     BYTE      EXADR
*SFR* 000000FFH   DATA     BYTE      EXDATA
*SFR* 000000D0H.5 DATA     BIT       F0
*SFR* 000000D0H.1 DATA     BIT       F1
LX51 LINKER/LOCATER V4.66.93.0                                                        07/09/2019  16:24:51  PAGE 15


      0200B5E9H   XDATA    ---       GlobalBuf
*SFR* 00000088H.1 DATA     BIT       IE0
*SFR* 00000088H.3 DATA     BIT       IE1
*SFR* 000000A8H   DATA     BYTE      IEN0
*SFR* 000000B8H   DATA     BYTE      IEN1
*SFR* 0000009AH   DATA     BYTE      IEN2
*SFR* 000000D1H   DATA     BYTE      IEN3
      0100433DH   CODE     ---       INIT_CPU
*SFR* 000000A9H   DATA     BYTE      IP0
*SFR* 000000B9H   DATA     BYTE      IP1
*SFR* 000000C0H   DATA     BYTE      IRCON
*SFR* 000000BFH   DATA     BYTE      IRCON2
*SFR* 00000088H.0 DATA     BIT       IT0
*SFR* 00000088H.2 DATA     BIT       IT1
*SFR* 000000E5H   DATA     BYTE      MAC_MODE
      01003109H   CODE     ---       main
      010045F3H   CODE     ---       mDelay0_5uS
      01000695H   CODE     ---       MesseageShow
*SFR* 000000C9H   DATA     BYTE      MUX_SEL
*SFR* 000000D0H.2 DATA     BIT       OV
*SFR* 000000D0H.0 DATA     BIT       P
*SFR* 00000080H   DATA     BYTE      P0
*SFR* 000000B7H   DATA     BYTE      P0MDOUT
*SFR* 00000090H   DATA     BYTE      P1
*SFR* 000000BCH   DATA     BYTE      P1MDOUT
*SFR* 000000A0H   DATA     BYTE      P2
*SFR* 000000BDH   DATA     BYTE      P2MDOUT
*SFR* 000000B0H   DATA     BYTE      P3
*SFR* 000000BEH   DATA     BYTE      P3MDOUT
*SFR* 00000094H   DATA     BYTE      PAGESEL
*SFR* 00000087H   DATA     BYTE      PCON
*SFR* 000000F9H   DATA     BYTE      PORTDRV
*SFR* 000000D0H   DATA     BYTE      PSW
      01000003H   CODE     ---       Query376Interrupt
*SFR* 000000F8H   DATA     BYTE      RAMMODE
*SFR* 00000098H.0 DATA     BIT       RI0
*SFR* 000000D0H.3 DATA     BIT       RS0
*SFR* 000000D0H.4 DATA     BIT       RS1
*SFR* 00000099H   DATA     BYTE      SBUF0
*SFR* 0000009CH   DATA     BYTE      SBUF1
*SFR* 0000009FH   DATA     BYTE      SBUF2_RX
*SFR* 0000009EH   DATA     BYTE      SBUF2_TX
*SFR* 000000ADH   DATA     BYTE      SBUF3_RX
*SFR* 000000ACH   DATA     BYTE      SBUF3_TX
*SFR* 00000098H   DATA     BYTE      SCON0
*SFR* 0000009BH   DATA     BYTE      SCON1
*SFR* 00000097H   DATA     BYTE      SCON2R
*SFR* 00000096H   DATA     BYTE      SCON2T
*SFR* 000000ABH   DATA     BYTE      SCON3R
*SFR* 000000A7H   DATA     BYTE      SCON3T
*SFR* 00000081H   DATA     BYTE      SP
*SFR* 000000BAH   DATA     BYTE      SREL0H
*SFR* 000000AAH   DATA     BYTE      SREL0L
*SFR* 000000BBH   DATA     BYTE      SREL1H
*SFR* 0000009DH   DATA     BYTE      SREL1L
      01004378H   CODE     ---       T0_ISR_PC
*SFR* 000000C8H   DATA     BYTE      T2CON
*SFR* 00000088H   DATA     BYTE      TCON
*SFR* 00000088H.5 DATA     BIT       TF0
*SFR* 00000088H.7 DATA     BIT       TF1
*SFR* 000000C0H.6 DATA     BIT       TF2
*SFR* 0000008CH   DATA     BYTE      TH0
*SFR* 0000008DH   DATA     BYTE      TH1
*SFR* 000000CDH   DATA     BYTE      TH2
*SFR* 00000098H.1 DATA     BIT       TI0
LX51 LINKER/LOCATER V4.66.93.0                                                        07/09/2019  16:24:51  PAGE 16


      0200B629H   XDATA    WORD      TIMES
*SFR* 0000008AH   DATA     BYTE      TL0
*SFR* 0000008BH   DATA     BYTE      TL1
*SFR* 000000CCH   DATA     BYTE      TL2
*SFR* 00000089H   DATA     BYTE      TMOD
*SFR* 00000088H.4 DATA     BIT       TR0
*SFR* 00000088H.6 DATA     BIT       TR1
*SFR* 000000C8H.0 DATA     BIT       TR2
*SFR* 000000CBH   DATA     BYTE      TRL2H
*SFR* 000000CAH   DATA     BYTE      TRL2L
      01004613H   CODE     ---       UART5_Init
*DEL*:00000000H   CODE     ---       USBInit
      010034D1H   CODE     ---       USBModule
      010044A3H   CODE     ---       Wait376Interrupt
      0100456BH   CODE     ---       xReadCH376Data
*DEL*:00000000H   CODE     ---       xReadCH376Status



SYMBOL TABLE OF MODULE:  .\obj\T5L51 (MAIN)

      VALUE       REP       CLASS    TYPE      SYMBOL NAME
      ====================================================
      ---         MODULE    ---      ---       MAIN
      0200B629H   PUBLIC    XDATA    WORD      TIMES
      01004378H   PUBLIC    CODE     ---       T0_ISR_PC
      01003109H   PUBLIC    CODE     ---       main
      000000F1H   SFRSYM    DATA     BYTE      ADR_H
      00000080H   SFRSYM    DATA     BYTE      P0
      00000090H   SFRSYM    DATA     BYTE      P1
      000000A0H   SFRSYM    DATA     BYTE      P2
      000000B0H   SFRSYM    DATA     BYTE      P3
      000000F3H   SFRSYM    DATA     BYTE      ADR_L
      000000D0H.6 SFRSYM    DATA     BIT       AC
      00000094H   SFRSYM    DATA     BYTE      PAGESEL
      000000F2H   SFRSYM    DATA     BYTE      ADR_M
      000000A8H.7 SFRSYM    DATA     BIT       EA
      000000F8H   SFRSYM    DATA     BYTE      RAMMODE
      000000B7H   SFRSYM    DATA     BYTE      P0MDOUT
      000000BCH   SFRSYM    DATA     BYTE      P1MDOUT
      000000A8H   SFRSYM    DATA     BYTE      IEN0
      000000BDH   SFRSYM    DATA     BYTE      P2MDOUT
      000000B8H   SFRSYM    DATA     BYTE      IEN1
      000000BEH   SFRSYM    DATA     BYTE      P3MDOUT
      0000009AH   SFRSYM    DATA     BYTE      IEN2
      000000D1H   SFRSYM    DATA     BYTE      IEN3
      00000090H.4 SFRSYM    DATA     BIT       CH376_INT_WIRE
      000000F8H.4 SFRSYM    DATA     BIT       APP_ACK
      000000F4H   SFRSYM    DATA     BYTE      ADR_INC
      000000B8H.1 SFRSYM    DATA     BIT       ECAN
      000000D0H.7 SFRSYM    DATA     BIT       CY
      000000B8H.3 SFRSYM    DATA     BIT       ES2R
      000000B8H.5 SFRSYM    DATA     BIT       ES3R
      000000B8H.2 SFRSYM    DATA     BIT       ES2T
      000000B8H.4 SFRSYM    DATA     BIT       ES3T
      00000090H.3 SFRSYM    DATA     BIT       CH376_RD
      00000090H.1 SFRSYM    DATA     BIT       CH376_CS
      00000081H   SFRSYM    DATA     BYTE      SP
      000000D0H.2 SFRSYM    DATA     BIT       OV
      00000095H   SFRSYM    DATA     BYTE      D_PAGESEL
      000000F8H.7 SFRSYM    DATA     BIT       APP_REQ
      000000BFH   SFRSYM    DATA     BYTE      IRCON2
      000000BAH   SFRSYM    DATA     BYTE      SREL0H
      000000BBH   SFRSYM    DATA     BYTE      SREL1H
      00000087H   SFRSYM    DATA     BYTE      PCON
LX51 LINKER/LOCATER V4.66.93.0                                                        07/09/2019  16:24:51  PAGE 17


      000000F9H   SFRSYM    DATA     BYTE      PORTDRV
      000000AAH   SFRSYM    DATA     BYTE      SREL0L
      0000009DH   SFRSYM    DATA     BYTE      SREL1L
      00000089H   SFRSYM    DATA     BYTE      TMOD
      00000088H   SFRSYM    DATA     BYTE      TCON
      00000090H.2 SFRSYM    DATA     BIT       CH376_WR
      000000FFH   SFRSYM    DATA     BYTE      EXDATA
      00000097H   SFRSYM    DATA     BYTE      SCON2R
      000000ABH   SFRSYM    DATA     BYTE      SCON3R
      000000D9H   SFRSYM    DATA     BYTE      BODE2_DIV_H
      000000AEH   SFRSYM    DATA     BYTE      BODE3_DIV_H
      00000096H   SFRSYM    DATA     BYTE      SCON2T
      000000A7H   SFRSYM    DATA     BYTE      SCON3T
      000000E7H   SFRSYM    DATA     BYTE      BODE2_DIV_L
      00000088H.1 SFRSYM    DATA     BIT       IE0
      000000AFH   SFRSYM    DATA     BYTE      BODE3_DIV_L
      00000088H.3 SFRSYM    DATA     BIT       IE1
      000000C9H   SFRSYM    DATA     BYTE      MUX_SEL
      000000F0H   SFRSYM    DATA     BYTE      B
      000000E0H   SFRSYM    DATA     BYTE      ACC
      0000008FH   SFRSYM    DATA     BYTE      CAN_CR
      000000A8H.4 SFRSYM    DATA     BIT       ES0
      000000A9H   SFRSYM    DATA     BYTE      IP0
      000000A8H.1 SFRSYM    DATA     BIT       ET0
      000000B9H   SFRSYM    DATA     BYTE      IP1
      000000A8H.3 SFRSYM    DATA     BIT       ET1
      00000088H.5 SFRSYM    DATA     BIT       TF0
      000000FDH   SFRSYM    DATA     BYTE      DATA0
      000000A8H.5 SFRSYM    DATA     BIT       ET2
      00000098H.0 SFRSYM    DATA     BIT       RI0
      00000088H.7 SFRSYM    DATA     BIT       TF1
      000000E8H   SFRSYM    DATA     BYTE      CAN_ET
      000000FCH   SFRSYM    DATA     BYTE      DATA1
      000000C0H.6 SFRSYM    DATA     BIT       TF2
      0000008CH   SFRSYM    DATA     BYTE      TH0
      000000FBH   SFRSYM    DATA     BYTE      DATA2
      000000A8H.0 SFRSYM    DATA     BIT       EX0
      00000098H.1 SFRSYM    DATA     BIT       TI0
      0000008DH   SFRSYM    DATA     BYTE      TH1
      00000088H.0 SFRSYM    DATA     BIT       IT0
      00000091H   SFRSYM    DATA     BYTE      CAN_IR
      000000FAH   SFRSYM    DATA     BYTE      DATA3
      000000CDH   SFRSYM    DATA     BYTE      TH2
      000000A8H.2 SFRSYM    DATA     BIT       EX1
      00000088H.2 SFRSYM    DATA     BIT       IT1
      000000D0H.0 SFRSYM    DATA     BIT       P
      0000008AH   SFRSYM    DATA     BYTE      TL0
      0000008BH   SFRSYM    DATA     BYTE      TL1
      000000CCH   SFRSYM    DATA     BYTE      TL2
      000000F8H.6 SFRSYM    DATA     BIT       APP_EN
      000000D0H.3 SFRSYM    DATA     BIT       RS0
      000000D0H.4 SFRSYM    DATA     BIT       RS1
      00000088H.4 SFRSYM    DATA     BIT       TR0
      00000093H   SFRSYM    DATA     BYTE      DPC
      00000088H.6 SFRSYM    DATA     BIT       TR1
      000000E5H   SFRSYM    DATA     BYTE      MAC_MODE
      000000C8H.0 SFRSYM    DATA     BIT       TR2
      00000083H   SFRSYM    DATA     BYTE      DPH
      00000082H   SFRSYM    DATA     BYTE      DPL
      00000099H   SFRSYM    DATA     BYTE      SBUF0
      0000009CH   SFRSYM    DATA     BYTE      SBUF1
      00000098H   SFRSYM    DATA     BYTE      SCON0
      0000009BH   SFRSYM    DATA     BYTE      SCON1
      000000D8H   SFRSYM    DATA     BYTE      ADCON
      000000C8H   SFRSYM    DATA     BYTE      T2CON
LX51 LINKER/LOCATER V4.66.93.0                                                        07/09/2019  16:24:51  PAGE 18


      000000E6H   SFRSYM    DATA     BYTE      DIV_MODE
      000000F8H.5 SFRSYM    DATA     BIT       APP_RW
      000000CBH   SFRSYM    DATA     BYTE      TRL2H
      0000009FH   SFRSYM    DATA     BYTE      SBUF2_RX
      000000ADH   SFRSYM    DATA     BYTE      SBUF3_RX
      0000008EH   SFRSYM    DATA     BYTE      CKCON
      0000009EH   SFRSYM    DATA     BYTE      SBUF2_TX
      000000ACH   SFRSYM    DATA     BYTE      SBUF3_TX
      000000CAH   SFRSYM    DATA     BYTE      TRL2L
      000000FEH   SFRSYM    DATA     BYTE      EXADR
      000000D0H.5 SFRSYM    DATA     BIT       F0
      000000D0H.1 SFRSYM    DATA     BIT       F1
      000000D0H   SFRSYM    DATA     BYTE      PSW
      000000C0H   SFRSYM    DATA     BYTE      IRCON
      00000090H.0 SFRSYM    DATA     BIT       CH376_A0

      01003109H   BLOCK     CODE     ---       LVL=0
      01003109H   BLOCK     CODE     NEAR LAB  LVL=1
      02008000H   SYMBOL    XDATA    BYTE      j
      02008001H   SYMBOL    XDATA    DWORD     i
      02008005H   SYMBOL    XDATA    ---       pCOUNT
      02008008H   SYMBOL    XDATA    DWORD     Addr
      0200800CH   SYMBOL    XDATA    WORD      Size
      0200800EH   SYMBOL    XDATA    DWORD     Buf_Size
      02008012H   SYMBOL    XDATA    ---       filename
      02009012H   SYMBOL    XDATA    ---       Cmd
      ---         BLOCKEND  ---      ---       LVL=1
      01003109H   LINE      CODE     ---       #23
      01003109H   LINE      CODE     ---       #24
      01003109H   LINE      CODE     ---       #25
      0100310EH   LINE      CODE     ---       #26
      01003116H   LINE      CODE     ---       #27
      0100311FH   LINE      CODE     ---       #28
      01003127H   LINE      CODE     ---       #29
      0100312EH   LINE      CODE     ---       #31
      01003136H   LINE      CODE     ---       #34
      01003139H   LINE      CODE     ---       #35
      0100313CH   LINE      CODE     ---       #36
      0100313FH   LINE      CODE     ---       #37
      0100314EH   LINE      CODE     ---       #38
      0100315DH   LINE      CODE     ---       #40
      01003163H   LINE      CODE     ---       #41
      01003167H   LINE      CODE     ---       #42
      0100316AH   LINE      CODE     ---       #43
      01003183H   LINE      CODE     ---       #45
      01003189H   LINE      CODE     ---       #46
      010031A3H   LINE      CODE     ---       #47
      010031A9H   LINE      CODE     ---       #48
      010031ACH   LINE      CODE     ---       #49
      010031B0H   LINE      CODE     ---       #50
      010031B4H   LINE      CODE     ---       #51
      010031B8H   LINE      CODE     ---       #52
      010031BCH   LINE      CODE     ---       #53
      010031D6H   LINE      CODE     ---       #55
      010031DCH   LINE      CODE     ---       #56
      010031DFH   LINE      CODE     ---       #57
      010031E3H   LINE      CODE     ---       #58
      010031E6H   LINE      CODE     ---       #59
      010031E8H   LINE      CODE     ---       #60
      010031EAH   LINE      CODE     ---       #61
      010031ECH   LINE      CODE     ---       #62
      010031F0H   LINE      CODE     ---       #63
      010031F3H   LINE      CODE     ---       #64
      0100320CH   LINE      CODE     ---       #66
      01003212H   LINE      CODE     ---       #67
LX51 LINKER/LOCATER V4.66.93.0                                                        07/09/2019  16:24:51  PAGE 19


      01003215H   LINE      CODE     ---       #68
      01003219H   LINE      CODE     ---       #69
      0100321DH   LINE      CODE     ---       #70
      01003237H   LINE      CODE     ---       #72
      0100323DH   LINE      CODE     ---       #73
      01003240H   LINE      CODE     ---       #74
      01003259H   LINE      CODE     ---       #76
      0100325CH   LINE      CODE     ---       #77
      ---         BLOCKEND  ---      ---       LVL=0

      01004378H   BLOCK     CODE     ---       LVL=0
      01004378H   LINE      CODE     ---       #82
      0100437EH   LINE      CODE     ---       #85
      01004380H   LINE      CODE     ---       #86
      0100438EH   LINE      CODE     ---       #87
      01004391H   LINE      CODE     ---       #88
      01004394H   LINE      CODE     ---       #89
      010043A0H   LINE      CODE     ---       #90
      010043A0H   LINE      CODE     ---       #91
      010043A6H   LINE      CODE     ---       #92
      010043A6H   LINE      CODE     ---       #93
      010043A8H   LINE      CODE     ---       #94
      ---         BLOCKEND  ---      ---       LVL=0

      ---         MODULE    ---      ---       ?C_STARTUP
      01000000H   PUBLIC    CODE     ---       ?C_STARTUP
      000000E0H   SYMBOL    DATA     ---       ACC
      000000F0H   SYMBOL    DATA     ---       B
      00000083H   SYMBOL    DATA     ---       DPH
      00000082H   SYMBOL    DATA     ---       DPL
      00000000H   SYMBOL    NUMBER   ---       IBPSTACK
      00000100H   SYMBOL    NUMBER   ---       IBPSTACKTOP
      00000100H   SYMBOL    NUMBER   ---       IDATALEN
      01003CA0H   SYMBOL    CODE     ---       IDATALOOP
      00000000H   SYMBOL    NUMBER   ---       PBPSTACK
      00000100H   SYMBOL    NUMBER   ---       PBPSTACKTOP
      00000000H   SYMBOL    NUMBER   ---       PDATALEN
      00000000H   SYMBOL    NUMBER   ---       PDATASTART
      00000000H   SYMBOL    NUMBER   ---       PPAGE
      00000000H   SYMBOL    NUMBER   ---       PPAGEENABLE
      000000A0H   SYMBOL    DATA     ---       PPAGE_SFR
      00000081H   SYMBOL    DATA     ---       SP
      01003C9DH   SYMBOL    CODE     ---       STARTUP1
      00000000H   SYMBOL    NUMBER   ---       XBPSTACK
      00000000H   SYMBOL    NUMBER   ---       XBPSTACKTOP
      00000000H   SYMBOL    NUMBER   ---       XDATALEN
      00000000H   SYMBOL    NUMBER   ---       XDATASTART
      01000000H   LINE      CODE     ---       #131
      01003C9DH   LINE      CODE     ---       #138
      01003C9FH   LINE      CODE     ---       #139
      01003CA0H   LINE      CODE     ---       #140
      01003CA1H   LINE      CODE     ---       #141
      01003CA3H   LINE      CODE     ---       #190
      01003CA6H   LINE      CODE     ---       #201

      ---         MODULE    ---      ---       DGUS_CONFIG
      01000695H   PUBLIC    CODE     ---       MesseageShow
      000000F1H   SFRSYM    DATA     BYTE      ADR_H
      00000080H   SFRSYM    DATA     BYTE      P0
      00000090H   SFRSYM    DATA     BYTE      P1
      000000A0H   SFRSYM    DATA     BYTE      P2
      000000B0H   SFRSYM    DATA     BYTE      P3
      000000F3H   SFRSYM    DATA     BYTE      ADR_L
      000000D0H.6 SFRSYM    DATA     BIT       AC
      00000094H   SFRSYM    DATA     BYTE      PAGESEL
LX51 LINKER/LOCATER V4.66.93.0                                                        07/09/2019  16:24:51  PAGE 20


      000000F2H   SFRSYM    DATA     BYTE      ADR_M
      000000A8H.7 SFRSYM    DATA     BIT       EA
      000000F8H   SFRSYM    DATA     BYTE      RAMMODE
      000000B7H   SFRSYM    DATA     BYTE      P0MDOUT
      000000BCH   SFRSYM    DATA     BYTE      P1MDOUT
      000000A8H   SFRSYM    DATA     BYTE      IEN0
      000000BDH   SFRSYM    DATA     BYTE      P2MDOUT
      000000B8H   SFRSYM    DATA     BYTE      IEN1
      000000BEH   SFRSYM    DATA     BYTE      P3MDOUT
      0000009AH   SFRSYM    DATA     BYTE      IEN2
      000000D1H   SFRSYM    DATA     BYTE      IEN3
      00000090H.4 SFRSYM    DATA     BIT       CH376_INT_WIRE
      000000F8H.4 SFRSYM    DATA     BIT       APP_ACK
      000000F4H   SFRSYM    DATA     BYTE      ADR_INC
      000000B8H.1 SFRSYM    DATA     BIT       ECAN
      000000D0H.7 SFRSYM    DATA     BIT       CY
      000000B8H.3 SFRSYM    DATA     BIT       ES2R
      000000B8H.5 SFRSYM    DATA     BIT       ES3R
      000000B8H.2 SFRSYM    DATA     BIT       ES2T
      000000B8H.4 SFRSYM    DATA     BIT       ES3T
      00000090H.3 SFRSYM    DATA     BIT       CH376_RD
      00000090H.1 SFRSYM    DATA     BIT       CH376_CS
      00000081H   SFRSYM    DATA     BYTE      SP
      000000D0H.2 SFRSYM    DATA     BIT       OV
      00000095H   SFRSYM    DATA     BYTE      D_PAGESEL
      000000F8H.7 SFRSYM    DATA     BIT       APP_REQ
      000000BFH   SFRSYM    DATA     BYTE      IRCON2
      000000BAH   SFRSYM    DATA     BYTE      SREL0H
      000000BBH   SFRSYM    DATA     BYTE      SREL1H
      00000087H   SFRSYM    DATA     BYTE      PCON
      000000F9H   SFRSYM    DATA     BYTE      PORTDRV
      000000AAH   SFRSYM    DATA     BYTE      SREL0L
      0000009DH   SFRSYM    DATA     BYTE      SREL1L
      00000089H   SFRSYM    DATA     BYTE      TMOD
      00000088H   SFRSYM    DATA     BYTE      TCON
      00000090H.2 SFRSYM    DATA     BIT       CH376_WR
      000000FFH   SFRSYM    DATA     BYTE      EXDATA
      00000097H   SFRSYM    DATA     BYTE      SCON2R
      000000ABH   SFRSYM    DATA     BYTE      SCON3R
      000000D9H   SFRSYM    DATA     BYTE      BODE2_DIV_H
      000000AEH   SFRSYM    DATA     BYTE      BODE3_DIV_H
      00000096H   SFRSYM    DATA     BYTE      SCON2T
      000000A7H   SFRSYM    DATA     BYTE      SCON3T
      000000E7H   SFRSYM    DATA     BYTE      BODE2_DIV_L
      00000088H.1 SFRSYM    DATA     BIT       IE0
      000000AFH   SFRSYM    DATA     BYTE      BODE3_DIV_L
      00000088H.3 SFRSYM    DATA     BIT       IE1
      000000C9H   SFRSYM    DATA     BYTE      MUX_SEL
      000000F0H   SFRSYM    DATA     BYTE      B
      000000E0H   SFRSYM    DATA     BYTE      ACC
      0000008FH   SFRSYM    DATA     BYTE      CAN_CR
      000000A8H.4 SFRSYM    DATA     BIT       ES0
      000000A9H   SFRSYM    DATA     BYTE      IP0
      000000A8H.1 SFRSYM    DATA     BIT       ET0
      000000B9H   SFRSYM    DATA     BYTE      IP1
      000000A8H.3 SFRSYM    DATA     BIT       ET1
      00000088H.5 SFRSYM    DATA     BIT       TF0
      000000FDH   SFRSYM    DATA     BYTE      DATA0
      000000A8H.5 SFRSYM    DATA     BIT       ET2
      00000098H.0 SFRSYM    DATA     BIT       RI0
      00000088H.7 SFRSYM    DATA     BIT       TF1
      000000E8H   SFRSYM    DATA     BYTE      CAN_ET
      000000FCH   SFRSYM    DATA     BYTE      DATA1
      000000C0H.6 SFRSYM    DATA     BIT       TF2
      0000008CH   SFRSYM    DATA     BYTE      TH0
LX51 LINKER/LOCATER V4.66.93.0                                                        07/09/2019  16:24:51  PAGE 21


      000000FBH   SFRSYM    DATA     BYTE      DATA2
      000000A8H.0 SFRSYM    DATA     BIT       EX0
      00000098H.1 SFRSYM    DATA     BIT       TI0
      0000008DH   SFRSYM    DATA     BYTE      TH1
      00000088H.0 SFRSYM    DATA     BIT       IT0
      00000091H   SFRSYM    DATA     BYTE      CAN_IR
      000000FAH   SFRSYM    DATA     BYTE      DATA3
      000000CDH   SFRSYM    DATA     BYTE      TH2
      000000A8H.2 SFRSYM    DATA     BIT       EX1
      00000088H.2 SFRSYM    DATA     BIT       IT1
      000000D0H.0 SFRSYM    DATA     BIT       P
      0000008AH   SFRSYM    DATA     BYTE      TL0
      0000008BH   SFRSYM    DATA     BYTE      TL1
      000000CCH   SFRSYM    DATA     BYTE      TL2
      000000F8H.6 SFRSYM    DATA     BIT       APP_EN
      000000D0H.3 SFRSYM    DATA     BIT       RS0
      000000D0H.4 SFRSYM    DATA     BIT       RS1
      00000088H.4 SFRSYM    DATA     BIT       TR0
      00000093H   SFRSYM    DATA     BYTE      DPC
      00000088H.6 SFRSYM    DATA     BIT       TR1
      000000E5H   SFRSYM    DATA     BYTE      MAC_MODE
      000000C8H.0 SFRSYM    DATA     BIT       TR2
      00000083H   SFRSYM    DATA     BYTE      DPH
      00000082H   SFRSYM    DATA     BYTE      DPL
      00000099H   SFRSYM    DATA     BYTE      SBUF0
      0000009CH   SFRSYM    DATA     BYTE      SBUF1
      00000098H   SFRSYM    DATA     BYTE      SCON0
      0000009BH   SFRSYM    DATA     BYTE      SCON1
      000000D8H   SFRSYM    DATA     BYTE      ADCON
      000000C8H   SFRSYM    DATA     BYTE      T2CON
      000000E6H   SFRSYM    DATA     BYTE      DIV_MODE
      000000F8H.5 SFRSYM    DATA     BIT       APP_RW
      000000CBH   SFRSYM    DATA     BYTE      TRL2H
      0000009FH   SFRSYM    DATA     BYTE      SBUF2_RX
      000000ADH   SFRSYM    DATA     BYTE      SBUF3_RX
      0000008EH   SFRSYM    DATA     BYTE      CKCON
      0000009EH   SFRSYM    DATA     BYTE      SBUF2_TX
      000000ACH   SFRSYM    DATA     BYTE      SBUF3_TX
      000000CAH   SFRSYM    DATA     BYTE      TRL2L
      000000FEH   SFRSYM    DATA     BYTE      EXADR
      000000D0H.5 SFRSYM    DATA     BIT       F0
      000000D0H.1 SFRSYM    DATA     BIT       F1
      000000D0H   SFRSYM    DATA     BYTE      PSW
      000000C0H   SFRSYM    DATA     BYTE      IRCON
      00000090H.0 SFRSYM    DATA     BIT       CH376_A0

      01000695H   BLOCK     CODE     ---       LVL=0
      01000695H   BLOCK     CODE     NEAR LAB  LVL=1
      02009022H   SYMBOL    XDATA    ---       Ms
      0200902FH   SYMBOL    XDATA    ---       String
      02009041H   SYMBOL    XDATA    WORD      DIR_CrtTime
      02009043H   SYMBOL    XDATA    WORD      DIR_CrtDate
      02009045H   SYMBOL    XDATA    WORD      DIR_WrtTime
      02009047H   SYMBOL    XDATA    WORD      DIR_WrtDate
      02009049H   SYMBOL    XDATA    WORD      Hour
      0200904BH   SYMBOL    XDATA    WORD      Min
      0200904DH   SYMBOL    XDATA    WORD      Sec
      0200904FH   SYMBOL    XDATA    WORD      Year
      02009051H   SYMBOL    XDATA    WORD      Month
      00000006H   SYMBOL    DATA     WORD      Day
      02009053H   SYMBOL    XDATA    DWORD     DIR_FileSize
      ---         BLOCKEND  ---      ---       LVL=1
      01000695H   LINE      CODE     ---       #30
      01000695H   LINE      CODE     ---       #31
      01000695H   LINE      CODE     ---       #33
LX51 LINKER/LOCATER V4.66.93.0                                                        07/09/2019  16:24:51  PAGE 22


      010006A8H   LINE      CODE     ---       #34
      010006BEH   LINE      CODE     ---       #35
      010006C6H   LINE      CODE     ---       #37
      010006D5H   LINE      CODE     ---       #38
      010006E4H   LINE      CODE     ---       #39
      010006FEH   LINE      CODE     ---       #40
      01000710H   LINE      CODE     ---       #41
      01000722H   LINE      CODE     ---       #42
      01000734H   LINE      CODE     ---       #43
      01000746H   LINE      CODE     ---       #45
      010007A0H   LINE      CODE     ---       #47
      010007B9H   LINE      CODE     ---       #48
      010007D2H   LINE      CODE     ---       #49
      010007E4H   LINE      CODE     ---       #50
      01000828H   LINE      CODE     ---       #51
      01000842H   LINE      CODE     ---       #52
      01000851H   LINE      CODE     ---       #54
      0100086BH   LINE      CODE     ---       #55
      01000884H   LINE      CODE     ---       #56
      0100088DH   LINE      CODE     ---       #57
      010008C8H   LINE      CODE     ---       #58
      010008E2H   LINE      CODE     ---       #59
      010008F1H   LINE      CODE     ---       #61
      0100090AH   LINE      CODE     ---       #62
      01000923H   LINE      CODE     ---       #63
      01000935H   LINE      CODE     ---       #64
      01000979H   LINE      CODE     ---       #65
      01000993H   LINE      CODE     ---       #66
      010009A2H   LINE      CODE     ---       #68
      010009B7H   LINE      CODE     ---       #69
      010009D4H   LINE      CODE     ---       #70
      010009DDH   LINE      CODE     ---       #71
      01000A18H   LINE      CODE     ---       #72
      01000A32H   LINE      CODE     ---       #73
      01000A41H   LINE      CODE     ---       #75
      01000A6CH   LINE      CODE     ---       #76
      ---         BLOCKEND  ---      ---       LVL=0

      ---         MODULE    ---      ---       DGUS
      0200A5C1H   PUBLIC    XDATA    BYTE      ?_WriteDGUS?BYTE
      0100280BH   PUBLIC    CODE     ---       _WriteDGUS
      0200A5C6H   PUBLIC    XDATA    BYTE      ?_ReadDGUS?BYTE
      0100265CH   PUBLIC    CODE     ---       _ReadDGUS
      000000F1H   SFRSYM    DATA     BYTE      ADR_H
      00000080H   SFRSYM    DATA     BYTE      P0
      00000090H   SFRSYM    DATA     BYTE      P1
      000000A0H   SFRSYM    DATA     BYTE      P2
      000000B0H   SFRSYM    DATA     BYTE      P3
      000000F3H   SFRSYM    DATA     BYTE      ADR_L
      000000D0H.6 SFRSYM    DATA     BIT       AC
      00000094H   SFRSYM    DATA     BYTE      PAGESEL
      000000F2H   SFRSYM    DATA     BYTE      ADR_M
      000000A8H.7 SFRSYM    DATA     BIT       EA
      000000F8H   SFRSYM    DATA     BYTE      RAMMODE
      000000B7H   SFRSYM    DATA     BYTE      P0MDOUT
      000000BCH   SFRSYM    DATA     BYTE      P1MDOUT
      000000A8H   SFRSYM    DATA     BYTE      IEN0
      000000BDH   SFRSYM    DATA     BYTE      P2MDOUT
      000000B8H   SFRSYM    DATA     BYTE      IEN1
      000000BEH   SFRSYM    DATA     BYTE      P3MDOUT
      0000009AH   SFRSYM    DATA     BYTE      IEN2
      000000D1H   SFRSYM    DATA     BYTE      IEN3
      00000090H.4 SFRSYM    DATA     BIT       CH376_INT_WIRE
      000000F8H.4 SFRSYM    DATA     BIT       APP_ACK
      000000F4H   SFRSYM    DATA     BYTE      ADR_INC
LX51 LINKER/LOCATER V4.66.93.0                                                        07/09/2019  16:24:51  PAGE 23


      000000B8H.1 SFRSYM    DATA     BIT       ECAN
      000000D0H.7 SFRSYM    DATA     BIT       CY
      000000B8H.3 SFRSYM    DATA     BIT       ES2R
      000000B8H.5 SFRSYM    DATA     BIT       ES3R
      000000B8H.2 SFRSYM    DATA     BIT       ES2T
      000000B8H.4 SFRSYM    DATA     BIT       ES3T
      00000090H.3 SFRSYM    DATA     BIT       CH376_RD
      00000090H.1 SFRSYM    DATA     BIT       CH376_CS
      00000081H   SFRSYM    DATA     BYTE      SP
      000000D0H.2 SFRSYM    DATA     BIT       OV
      00000095H   SFRSYM    DATA     BYTE      D_PAGESEL
      000000F8H.7 SFRSYM    DATA     BIT       APP_REQ
      000000BFH   SFRSYM    DATA     BYTE      IRCON2
      000000BAH   SFRSYM    DATA     BYTE      SREL0H
      000000BBH   SFRSYM    DATA     BYTE      SREL1H
      00000087H   SFRSYM    DATA     BYTE      PCON
      000000F9H   SFRSYM    DATA     BYTE      PORTDRV
      000000AAH   SFRSYM    DATA     BYTE      SREL0L
      0000009DH   SFRSYM    DATA     BYTE      SREL1L
      00000089H   SFRSYM    DATA     BYTE      TMOD
      00000088H   SFRSYM    DATA     BYTE      TCON
      00000090H.2 SFRSYM    DATA     BIT       CH376_WR
      000000FFH   SFRSYM    DATA     BYTE      EXDATA
      00000097H   SFRSYM    DATA     BYTE      SCON2R
      000000ABH   SFRSYM    DATA     BYTE      SCON3R
      000000D9H   SFRSYM    DATA     BYTE      BODE2_DIV_H
      000000AEH   SFRSYM    DATA     BYTE      BODE3_DIV_H
      00000096H   SFRSYM    DATA     BYTE      SCON2T
      000000A7H   SFRSYM    DATA     BYTE      SCON3T
      000000E7H   SFRSYM    DATA     BYTE      BODE2_DIV_L
      00000088H.1 SFRSYM    DATA     BIT       IE0
      000000AFH   SFRSYM    DATA     BYTE      BODE3_DIV_L
      00000088H.3 SFRSYM    DATA     BIT       IE1
      000000C9H   SFRSYM    DATA     BYTE      MUX_SEL
      000000F0H   SFRSYM    DATA     BYTE      B
      000000E0H   SFRSYM    DATA     BYTE      ACC
      0000008FH   SFRSYM    DATA     BYTE      CAN_CR
      000000A8H.4 SFRSYM    DATA     BIT       ES0
      000000A9H   SFRSYM    DATA     BYTE      IP0
      000000A8H.1 SFRSYM    DATA     BIT       ET0
      000000B9H   SFRSYM    DATA     BYTE      IP1
      000000A8H.3 SFRSYM    DATA     BIT       ET1
      00000088H.5 SFRSYM    DATA     BIT       TF0
      000000FDH   SFRSYM    DATA     BYTE      DATA0
      000000A8H.5 SFRSYM    DATA     BIT       ET2
      00000098H.0 SFRSYM    DATA     BIT       RI0
      00000088H.7 SFRSYM    DATA     BIT       TF1
      000000E8H   SFRSYM    DATA     BYTE      CAN_ET
      000000FCH   SFRSYM    DATA     BYTE      DATA1
      000000C0H.6 SFRSYM    DATA     BIT       TF2
      0000008CH   SFRSYM    DATA     BYTE      TH0
      000000FBH   SFRSYM    DATA     BYTE      DATA2
      000000A8H.0 SFRSYM    DATA     BIT       EX0
      00000098H.1 SFRSYM    DATA     BIT       TI0
      0000008DH   SFRSYM    DATA     BYTE      TH1
      00000088H.0 SFRSYM    DATA     BIT       IT0
      00000091H   SFRSYM    DATA     BYTE      CAN_IR
      000000FAH   SFRSYM    DATA     BYTE      DATA3
      000000CDH   SFRSYM    DATA     BYTE      TH2
      000000A8H.2 SFRSYM    DATA     BIT       EX1
      00000088H.2 SFRSYM    DATA     BIT       IT1
      000000D0H.0 SFRSYM    DATA     BIT       P
      0000008AH   SFRSYM    DATA     BYTE      TL0
      0000008BH   SFRSYM    DATA     BYTE      TL1
      000000CCH   SFRSYM    DATA     BYTE      TL2
LX51 LINKER/LOCATER V4.66.93.0                                                        07/09/2019  16:24:51  PAGE 24


      000000F8H.6 SFRSYM    DATA     BIT       APP_EN
      000000D0H.3 SFRSYM    DATA     BIT       RS0
      000000D0H.4 SFRSYM    DATA     BIT       RS1
      00000088H.4 SFRSYM    DATA     BIT       TR0
      00000093H   SFRSYM    DATA     BYTE      DPC
      00000088H.6 SFRSYM    DATA     BIT       TR1
      000000E5H   SFRSYM    DATA     BYTE      MAC_MODE
      000000C8H.0 SFRSYM    DATA     BIT       TR2
      00000083H   SFRSYM    DATA     BYTE      DPH
      00000082H   SFRSYM    DATA     BYTE      DPL
      00000099H   SFRSYM    DATA     BYTE      SBUF0
      0000009CH   SFRSYM    DATA     BYTE      SBUF1
      00000098H   SFRSYM    DATA     BYTE      SCON0
      0000009BH   SFRSYM    DATA     BYTE      SCON1
      000000D8H   SFRSYM    DATA     BYTE      ADCON
      000000C8H   SFRSYM    DATA     BYTE      T2CON
      000000E6H   SFRSYM    DATA     BYTE      DIV_MODE
      000000F8H.5 SFRSYM    DATA     BIT       APP_RW
      000000CBH   SFRSYM    DATA     BYTE      TRL2H
      0000009FH   SFRSYM    DATA     BYTE      SBUF2_RX
      000000ADH   SFRSYM    DATA     BYTE      SBUF3_RX
      0000008EH   SFRSYM    DATA     BYTE      CKCON
      0000009EH   SFRSYM    DATA     BYTE      SBUF2_TX
      000000ACH   SFRSYM    DATA     BYTE      SBUF3_TX
      000000CAH   SFRSYM    DATA     BYTE      TRL2L
      000000FEH   SFRSYM    DATA     BYTE      EXADR
      000000D0H.5 SFRSYM    DATA     BIT       F0
      000000D0H.1 SFRSYM    DATA     BIT       F1
      000000D0H   SFRSYM    DATA     BYTE      PSW
      000000C0H   SFRSYM    DATA     BYTE      IRCON
      00000090H.0 SFRSYM    DATA     BIT       CH376_A0

      0100265CH   BLOCK     CODE     ---       LVL=0
      0200A5C6H   SYMBOL    XDATA    DWORD     Addr
      0200A5CAH   SYMBOL    XDATA    ---       pBuf
      0200A5CDH   SYMBOL    XDATA    WORD      Len
      0100266DH   BLOCK     CODE     NEAR LAB  LVL=1
      00000003H   SYMBOL    DATA     BYTE      Offset
      0200A5CFH   SYMBOL    XDATA    BYTE      EndLen
      ---         BLOCKEND  ---      ---       LVL=1
      0100265CH   LINE      CODE     ---       #35
      0100266DH   LINE      CODE     ---       #36
      0100266DH   LINE      CODE     ---       #37
      0100266EH   LINE      CODE     ---       #38
      01002672H   LINE      CODE     ---       #39
      01002684H   LINE      CODE     ---       #40
      01002697H   LINE      CODE     ---       #41
      010026ACH   LINE      CODE     ---       #42
      010026C1H   LINE      CODE     ---       #43
      010026CAH   LINE      CODE     ---       #44
      010026CDH   LINE      CODE     ---       #45
      010026D0H   LINE      CODE     ---       #46
      010026D3H   LINE      CODE     ---       #47
      010026D8H   LINE      CODE     ---       #48
      010026D8H   LINE      CODE     ---       #49
      010026DAH   LINE      CODE     ---       #50
      010026DDH   LINE      CODE     ---       #51
      010026F2H   LINE      CODE     ---       #52
      01002701H   LINE      CODE     ---       #53
      01002716H   LINE      CODE     ---       #54
      01002724H   LINE      CODE     ---       #55
      01002724H   LINE      CODE     ---       #56
      01002730H   LINE      CODE     ---       #57
      01002745H   LINE      CODE     ---       #58
      01002753H   LINE      CODE     ---       #59
LX51 LINKER/LOCATER V4.66.93.0                                                        07/09/2019  16:24:51  PAGE 25


      01002753H   LINE      CODE     ---       #60
      01002755H   LINE      CODE     ---       #61
      01002758H   LINE      CODE     ---       #62
      0100276DH   LINE      CODE     ---       #63
      01002782H   LINE      CODE     ---       #64
      01002797H   LINE      CODE     ---       #65
      010027ACH   LINE      CODE     ---       #66
      010027AEH   LINE      CODE     ---       #67
      010027B4H   LINE      CODE     ---       #68
      010027B4H   LINE      CODE     ---       #69
      010027B6H   LINE      CODE     ---       #70
      010027B9H   LINE      CODE     ---       #71
      010027CEH   LINE      CODE     ---       #72
      010027EAH   LINE      CODE     ---       #73
      01002807H   LINE      CODE     ---       #74
      01002807H   LINE      CODE     ---       #75
      0100280AH   LINE      CODE     ---       #76
      ---         BLOCKEND  ---      ---       LVL=0

      0100280BH   BLOCK     CODE     ---       LVL=0
      0200A5C1H   SYMBOL    XDATA    DWORD     Addr
      0200A5C5H   SYMBOL    XDATA    ---       pBuf
      0200A5C8H   SYMBOL    XDATA    WORD      Len
      0100281CH   BLOCK     CODE     NEAR LAB  LVL=1
      00000003H   SYMBOL    DATA     BYTE      Offset
      00000005H   SYMBOL    DATA     BYTE      EndLen
      ---         BLOCKEND  ---      ---       LVL=1
      0100280BH   LINE      CODE     ---       #90
      0100281CH   LINE      CODE     ---       #91
      0100281CH   LINE      CODE     ---       #94
      0100282EH   LINE      CODE     ---       #95
      01002841H   LINE      CODE     ---       #96
      0100284AH   LINE      CODE     ---       #97
      0100285FH   LINE      CODE     ---       #98
      01002874H   LINE      CODE     ---       #99
      01002877H   LINE      CODE     ---       #100
      0100287AH   LINE      CODE     ---       #101
      0100287DH   LINE      CODE     ---       #102
      01002882H   LINE      CODE     ---       #103
      01002882H   LINE      CODE     ---       #104
      01002884H   LINE      CODE     ---       #105
      01002887H   LINE      CODE     ---       #106
      01002889H   LINE      CODE     ---       #107
      0100288CH   LINE      CODE     ---       #109
      0100288FH   LINE      CODE     ---       #110
      01002892H   LINE      CODE     ---       #111
      010028A7H   LINE      CODE     ---       #112
      010028B6H   LINE      CODE     ---       #113
      010028CBH   LINE      CODE     ---       #114
      010028CDH   LINE      CODE     ---       #115
      010028D0H   LINE      CODE     ---       #116
      010028DEH   LINE      CODE     ---       #117
      010028DEH   LINE      CODE     ---       #118
      010028E9H   LINE      CODE     ---       #119
      010028FCH   LINE      CODE     ---       #120
      0100290AH   LINE      CODE     ---       #121
      0100290AH   LINE      CODE     ---       #122
      0100291FH   LINE      CODE     ---       #123
      01002934H   LINE      CODE     ---       #124
      01002949H   LINE      CODE     ---       #125
      0100295EH   LINE      CODE     ---       #126
      01002960H   LINE      CODE     ---       #127
      01002965H   LINE      CODE     ---       #128
      01002965H   LINE      CODE     ---       #129
      01002968H   LINE      CODE     ---       #130
LX51 LINKER/LOCATER V4.66.93.0                                                        07/09/2019  16:24:51  PAGE 26


      01002968H   LINE      CODE     ---       #131
      0100297DH   LINE      CODE     ---       #132
      01002996H   LINE      CODE     ---       #133
      010029B0H   LINE      CODE     ---       #134
      010029B2H   LINE      CODE     ---       #135
      010029B5H   LINE      CODE     ---       #136
      010029B5H   LINE      CODE     ---       #137
      010029B8H   LINE      CODE     ---       #138
      ---         BLOCKEND  ---      ---       LVL=0

      ---         MODULE    ---      ---       SYS
      0100433DH   PUBLIC    CODE     ---       INIT_CPU
      000000F1H   SFRSYM    DATA     BYTE      ADR_H
      00000080H   SFRSYM    DATA     BYTE      P0
      00000090H   SFRSYM    DATA     BYTE      P1
      000000A0H   SFRSYM    DATA     BYTE      P2
      000000B0H   SFRSYM    DATA     BYTE      P3
      000000F3H   SFRSYM    DATA     BYTE      ADR_L
      000000D0H.6 SFRSYM    DATA     BIT       AC
      00000094H   SFRSYM    DATA     BYTE      PAGESEL
      000000F2H   SFRSYM    DATA     BYTE      ADR_M
      000000A8H.7 SFRSYM    DATA     BIT       EA
      000000F8H   SFRSYM    DATA     BYTE      RAMMODE
      000000B7H   SFRSYM    DATA     BYTE      P0MDOUT
      000000BCH   SFRSYM    DATA     BYTE      P1MDOUT
      000000A8H   SFRSYM    DATA     BYTE      IEN0
      000000BDH   SFRSYM    DATA     BYTE      P2MDOUT
      000000B8H   SFRSYM    DATA     BYTE      IEN1
      000000BEH   SFRSYM    DATA     BYTE      P3MDOUT
      0000009AH   SFRSYM    DATA     BYTE      IEN2
      000000D1H   SFRSYM    DATA     BYTE      IEN3
      00000090H.4 SFRSYM    DATA     BIT       CH376_INT_WIRE
      000000F8H.4 SFRSYM    DATA     BIT       APP_ACK
      000000F4H   SFRSYM    DATA     BYTE      ADR_INC
      000000B8H.1 SFRSYM    DATA     BIT       ECAN
      000000D0H.7 SFRSYM    DATA     BIT       CY
      000000B8H.3 SFRSYM    DATA     BIT       ES2R
      000000B8H.5 SFRSYM    DATA     BIT       ES3R
      000000B8H.2 SFRSYM    DATA     BIT       ES2T
      000000B8H.4 SFRSYM    DATA     BIT       ES3T
      00000090H.3 SFRSYM    DATA     BIT       CH376_RD
      00000090H.1 SFRSYM    DATA     BIT       CH376_CS
      00000081H   SFRSYM    DATA     BYTE      SP
      000000D0H.2 SFRSYM    DATA     BIT       OV
      00000095H   SFRSYM    DATA     BYTE      D_PAGESEL
      000000F8H.7 SFRSYM    DATA     BIT       APP_REQ
      000000BFH   SFRSYM    DATA     BYTE      IRCON2
      000000BAH   SFRSYM    DATA     BYTE      SREL0H
      000000BBH   SFRSYM    DATA     BYTE      SREL1H
      00000087H   SFRSYM    DATA     BYTE      PCON
      000000F9H   SFRSYM    DATA     BYTE      PORTDRV
      000000AAH   SFRSYM    DATA     BYTE      SREL0L
      0000009DH   SFRSYM    DATA     BYTE      SREL1L
      00000089H   SFRSYM    DATA     BYTE      TMOD
      00000088H   SFRSYM    DATA     BYTE      TCON
      00000090H.2 SFRSYM    DATA     BIT       CH376_WR
      000000FFH   SFRSYM    DATA     BYTE      EXDATA
      00000097H   SFRSYM    DATA     BYTE      SCON2R
      000000ABH   SFRSYM    DATA     BYTE      SCON3R
      000000D9H   SFRSYM    DATA     BYTE      BODE2_DIV_H
      000000AEH   SFRSYM    DATA     BYTE      BODE3_DIV_H
      00000096H   SFRSYM    DATA     BYTE      SCON2T
      000000A7H   SFRSYM    DATA     BYTE      SCON3T
      000000E7H   SFRSYM    DATA     BYTE      BODE2_DIV_L
      00000088H.1 SFRSYM    DATA     BIT       IE0
LX51 LINKER/LOCATER V4.66.93.0                                                        07/09/2019  16:24:51  PAGE 27


      000000AFH   SFRSYM    DATA     BYTE      BODE3_DIV_L
      00000088H.3 SFRSYM    DATA     BIT       IE1
      000000C9H   SFRSYM    DATA     BYTE      MUX_SEL
      000000F0H   SFRSYM    DATA     BYTE      B
      000000E0H   SFRSYM    DATA     BYTE      ACC
      0000008FH   SFRSYM    DATA     BYTE      CAN_CR
      000000A8H.4 SFRSYM    DATA     BIT       ES0
      000000A9H   SFRSYM    DATA     BYTE      IP0
      000000A8H.1 SFRSYM    DATA     BIT       ET0
      000000B9H   SFRSYM    DATA     BYTE      IP1
      000000A8H.3 SFRSYM    DATA     BIT       ET1
      00000088H.5 SFRSYM    DATA     BIT       TF0
      000000FDH   SFRSYM    DATA     BYTE      DATA0
      000000A8H.5 SFRSYM    DATA     BIT       ET2
      00000098H.0 SFRSYM    DATA     BIT       RI0
      00000088H.7 SFRSYM    DATA     BIT       TF1
      000000E8H   SFRSYM    DATA     BYTE      CAN_ET
      000000FCH   SFRSYM    DATA     BYTE      DATA1
      000000C0H.6 SFRSYM    DATA     BIT       TF2
      0000008CH   SFRSYM    DATA     BYTE      TH0
      000000FBH   SFRSYM    DATA     BYTE      DATA2
      000000A8H.0 SFRSYM    DATA     BIT       EX0
      00000098H.1 SFRSYM    DATA     BIT       TI0
      0000008DH   SFRSYM    DATA     BYTE      TH1
      00000088H.0 SFRSYM    DATA     BIT       IT0
      00000091H   SFRSYM    DATA     BYTE      CAN_IR
      000000FAH   SFRSYM    DATA     BYTE      DATA3
      000000CDH   SFRSYM    DATA     BYTE      TH2
      000000A8H.2 SFRSYM    DATA     BIT       EX1
      00000088H.2 SFRSYM    DATA     BIT       IT1
      000000D0H.0 SFRSYM    DATA     BIT       P
      0000008AH   SFRSYM    DATA     BYTE      TL0
      0000008BH   SFRSYM    DATA     BYTE      TL1
      000000CCH   SFRSYM    DATA     BYTE      TL2
      000000F8H.6 SFRSYM    DATA     BIT       APP_EN
      000000D0H.3 SFRSYM    DATA     BIT       RS0
      000000D0H.4 SFRSYM    DATA     BIT       RS1
      00000088H.4 SFRSYM    DATA     BIT       TR0
      00000093H   SFRSYM    DATA     BYTE      DPC
      00000088H.6 SFRSYM    DATA     BIT       TR1
      000000E5H   SFRSYM    DATA     BYTE      MAC_MODE
      000000C8H.0 SFRSYM    DATA     BIT       TR2
      00000083H   SFRSYM    DATA     BYTE      DPH
      00000082H   SFRSYM    DATA     BYTE      DPL
      00000099H   SFRSYM    DATA     BYTE      SBUF0
      0000009CH   SFRSYM    DATA     BYTE      SBUF1
      00000098H   SFRSYM    DATA     BYTE      SCON0
      0000009BH   SFRSYM    DATA     BYTE      SCON1
      000000D8H   SFRSYM    DATA     BYTE      ADCON
      000000C8H   SFRSYM    DATA     BYTE      T2CON
      000000E6H   SFRSYM    DATA     BYTE      DIV_MODE
      000000F8H.5 SFRSYM    DATA     BIT       APP_RW
      000000CBH   SFRSYM    DATA     BYTE      TRL2H
      0000009FH   SFRSYM    DATA     BYTE      SBUF2_RX
      000000ADH   SFRSYM    DATA     BYTE      SBUF3_RX
      0000008EH   SFRSYM    DATA     BYTE      CKCON
      0000009EH   SFRSYM    DATA     BYTE      SBUF2_TX
      000000ACH   SFRSYM    DATA     BYTE      SBUF3_TX
      000000CAH   SFRSYM    DATA     BYTE      TRL2L
      000000FEH   SFRSYM    DATA     BYTE      EXADR
      000000D0H.5 SFRSYM    DATA     BIT       F0
      000000D0H.1 SFRSYM    DATA     BIT       F1
      000000D0H   SFRSYM    DATA     BYTE      PSW
      000000C0H   SFRSYM    DATA     BYTE      IRCON
      00000090H.0 SFRSYM    DATA     BIT       CH376_A0
LX51 LINKER/LOCATER V4.66.93.0                                                        07/09/2019  16:24:51  PAGE 28



      0100433DH   BLOCK     CODE     ---       LVL=0
      0100433DH   LINE      CODE     ---       #32
      0100433DH   LINE      CODE     ---       #33
      0100433DH   LINE      CODE     ---       #34
      0100433FH   LINE      CODE     ---       #35
      01004342H   LINE      CODE     ---       #36
      01004345H   LINE      CODE     ---       #37
      01004347H   LINE      CODE     ---       #38
      0100434AH   LINE      CODE     ---       #39
      0100434DH   LINE      CODE     ---       #40
      0100434FH   LINE      CODE     ---       #41
      01004352H   LINE      CODE     ---       #42
      01004354H   LINE      CODE     ---       #44
      01004356H   LINE      CODE     ---       #45
      01004358H   LINE      CODE     ---       #46
      0100435AH   LINE      CODE     ---       #47
      0100435CH   LINE      CODE     ---       #48
      0100435EH   LINE      CODE     ---       #49
      01004360H   LINE      CODE     ---       #52
      01004363H   LINE      CODE     ---       #53
      01004365H   LINE      CODE     ---       #54
      01004367H   LINE      CODE     ---       #55
      0100436AH   LINE      CODE     ---       #59
      0100436DH   LINE      CODE     ---       #60
      01004370H   LINE      CODE     ---       #61
      01004373H   LINE      CODE     ---       #62
      01004375H   LINE      CODE     ---       #63
      01004377H   LINE      CODE     ---       #64
      ---         BLOCKEND  ---      ---       LVL=0

      ---         MODULE    ---      ---       UART
      010043E5H   PUBLIC    CODE     ---       _UART5_SendString
      01004542H   PUBLIC    CODE     ---       _UART5_Sendbyte
      01004613H   PUBLIC    CODE     ---       UART5_Init
      000000F1H   SFRSYM    DATA     BYTE      ADR_H
      00000080H   SFRSYM    DATA     BYTE      P0
      00000090H   SFRSYM    DATA     BYTE      P1
      000000A0H   SFRSYM    DATA     BYTE      P2
      000000B0H   SFRSYM    DATA     BYTE      P3
      000000F3H   SFRSYM    DATA     BYTE      ADR_L
      000000D0H.6 SFRSYM    DATA     BIT       AC
      00000094H   SFRSYM    DATA     BYTE      PAGESEL
      000000F2H   SFRSYM    DATA     BYTE      ADR_M
      000000A8H.7 SFRSYM    DATA     BIT       EA
      000000F8H   SFRSYM    DATA     BYTE      RAMMODE
      000000B7H   SFRSYM    DATA     BYTE      P0MDOUT
      000000BCH   SFRSYM    DATA     BYTE      P1MDOUT
      000000A8H   SFRSYM    DATA     BYTE      IEN0
      000000BDH   SFRSYM    DATA     BYTE      P2MDOUT
      000000B8H   SFRSYM    DATA     BYTE      IEN1
      000000BEH   SFRSYM    DATA     BYTE      P3MDOUT
      0000009AH   SFRSYM    DATA     BYTE      IEN2
      000000D1H   SFRSYM    DATA     BYTE      IEN3
      00000090H.4 SFRSYM    DATA     BIT       CH376_INT_WIRE
      000000F8H.4 SFRSYM    DATA     BIT       APP_ACK
      000000F4H   SFRSYM    DATA     BYTE      ADR_INC
      000000B8H.1 SFRSYM    DATA     BIT       ECAN
      000000D0H.7 SFRSYM    DATA     BIT       CY
      000000B8H.3 SFRSYM    DATA     BIT       ES2R
      000000B8H.5 SFRSYM    DATA     BIT       ES3R
      000000B8H.2 SFRSYM    DATA     BIT       ES2T
      000000B8H.4 SFRSYM    DATA     BIT       ES3T
      00000090H.3 SFRSYM    DATA     BIT       CH376_RD
      00000090H.1 SFRSYM    DATA     BIT       CH376_CS
LX51 LINKER/LOCATER V4.66.93.0                                                        07/09/2019  16:24:51  PAGE 29


      00000081H   SFRSYM    DATA     BYTE      SP
      000000D0H.2 SFRSYM    DATA     BIT       OV
      00000095H   SFRSYM    DATA     BYTE      D_PAGESEL
      000000F8H.7 SFRSYM    DATA     BIT       APP_REQ
      000000BFH   SFRSYM    DATA     BYTE      IRCON2
      000000BAH   SFRSYM    DATA     BYTE      SREL0H
      000000BBH   SFRSYM    DATA     BYTE      SREL1H
      00000087H   SFRSYM    DATA     BYTE      PCON
      000000F9H   SFRSYM    DATA     BYTE      PORTDRV
      000000AAH   SFRSYM    DATA     BYTE      SREL0L
      0000009DH   SFRSYM    DATA     BYTE      SREL1L
      00000089H   SFRSYM    DATA     BYTE      TMOD
      00000088H   SFRSYM    DATA     BYTE      TCON
      00000090H.2 SFRSYM    DATA     BIT       CH376_WR
      000000FFH   SFRSYM    DATA     BYTE      EXDATA
      00000097H   SFRSYM    DATA     BYTE      SCON2R
      000000ABH   SFRSYM    DATA     BYTE      SCON3R
      000000D9H   SFRSYM    DATA     BYTE      BODE2_DIV_H
      000000AEH   SFRSYM    DATA     BYTE      BODE3_DIV_H
      00000096H   SFRSYM    DATA     BYTE      SCON2T
      000000A7H   SFRSYM    DATA     BYTE      SCON3T
      000000E7H   SFRSYM    DATA     BYTE      BODE2_DIV_L
      00000088H.1 SFRSYM    DATA     BIT       IE0
      000000AFH   SFRSYM    DATA     BYTE      BODE3_DIV_L
      00000088H.3 SFRSYM    DATA     BIT       IE1
      000000C9H   SFRSYM    DATA     BYTE      MUX_SEL
      000000F0H   SFRSYM    DATA     BYTE      B
      000000E0H   SFRSYM    DATA     BYTE      ACC
      0000008FH   SFRSYM    DATA     BYTE      CAN_CR
      000000A8H.4 SFRSYM    DATA     BIT       ES0
      000000A9H   SFRSYM    DATA     BYTE      IP0
      000000A8H.1 SFRSYM    DATA     BIT       ET0
      000000B9H   SFRSYM    DATA     BYTE      IP1
      000000A8H.3 SFRSYM    DATA     BIT       ET1
      00000088H.5 SFRSYM    DATA     BIT       TF0
      000000FDH   SFRSYM    DATA     BYTE      DATA0
      000000A8H.5 SFRSYM    DATA     BIT       ET2
      00000098H.0 SFRSYM    DATA     BIT       RI0
      00000088H.7 SFRSYM    DATA     BIT       TF1
      000000E8H   SFRSYM    DATA     BYTE      CAN_ET
      000000FCH   SFRSYM    DATA     BYTE      DATA1
      000000C0H.6 SFRSYM    DATA     BIT       TF2
      0000008CH   SFRSYM    DATA     BYTE      TH0
      000000FBH   SFRSYM    DATA     BYTE      DATA2
      000000A8H.0 SFRSYM    DATA     BIT       EX0
      00000098H.1 SFRSYM    DATA     BIT       TI0
      0000008DH   SFRSYM    DATA     BYTE      TH1
      00000088H.0 SFRSYM    DATA     BIT       IT0
      00000091H   SFRSYM    DATA     BYTE      CAN_IR
      000000FAH   SFRSYM    DATA     BYTE      DATA3
      000000CDH   SFRSYM    DATA     BYTE      TH2
      000000A8H.2 SFRSYM    DATA     BIT       EX1
      00000088H.2 SFRSYM    DATA     BIT       IT1
      000000D0H.0 SFRSYM    DATA     BIT       P
      0000008AH   SFRSYM    DATA     BYTE      TL0
      0000008BH   SFRSYM    DATA     BYTE      TL1
      000000CCH   SFRSYM    DATA     BYTE      TL2
      000000F8H.6 SFRSYM    DATA     BIT       APP_EN
      000000D0H.3 SFRSYM    DATA     BIT       RS0
      000000D0H.4 SFRSYM    DATA     BIT       RS1
      00000088H.4 SFRSYM    DATA     BIT       TR0
      00000093H   SFRSYM    DATA     BYTE      DPC
      00000088H.6 SFRSYM    DATA     BIT       TR1
      000000E5H   SFRSYM    DATA     BYTE      MAC_MODE
      000000C8H.0 SFRSYM    DATA     BIT       TR2
LX51 LINKER/LOCATER V4.66.93.0                                                        07/09/2019  16:24:51  PAGE 30


      00000083H   SFRSYM    DATA     BYTE      DPH
      00000082H   SFRSYM    DATA     BYTE      DPL
      00000099H   SFRSYM    DATA     BYTE      SBUF0
      0000009CH   SFRSYM    DATA     BYTE      SBUF1
      00000098H   SFRSYM    DATA     BYTE      SCON0
      0000009BH   SFRSYM    DATA     BYTE      SCON1
      000000D8H   SFRSYM    DATA     BYTE      ADCON
      000000C8H   SFRSYM    DATA     BYTE      T2CON
      000000E6H   SFRSYM    DATA     BYTE      DIV_MODE
      000000F8H.5 SFRSYM    DATA     BIT       APP_RW
      000000CBH   SFRSYM    DATA     BYTE      TRL2H
      0000009FH   SFRSYM    DATA     BYTE      SBUF2_RX
      000000ADH   SFRSYM    DATA     BYTE      SBUF3_RX
      0000008EH   SFRSYM    DATA     BYTE      CKCON
      0000009EH   SFRSYM    DATA     BYTE      SBUF2_TX
      000000ACH   SFRSYM    DATA     BYTE      SBUF3_TX
      000000CAH   SFRSYM    DATA     BYTE      TRL2L
      000000FEH   SFRSYM    DATA     BYTE      EXADR
      000000D0H.5 SFRSYM    DATA     BIT       F0
      000000D0H.1 SFRSYM    DATA     BIT       F1
      000000D0H   SFRSYM    DATA     BYTE      PSW
      000000C0H   SFRSYM    DATA     BYTE      IRCON
      00000090H.0 SFRSYM    DATA     BIT       CH376_A0

      01004613H   BLOCK     CODE     ---       LVL=0
      01004613H   LINE      CODE     ---       #32
      01004613H   LINE      CODE     ---       #33
      01004613H   LINE      CODE     ---       #34
      01004616H   LINE      CODE     ---       #35
      01004619H   LINE      CODE     ---       #36
      0100461CH   LINE      CODE     ---       #37
      0100461FH   LINE      CODE     ---       #38
      ---         BLOCKEND  ---      ---       LVL=0

      01004531H   BLOCK     CODE     ---       LVL=0
      ---         BLOCKEND  ---      ---       LVL=0

      01004542H   BLOCK     CODE     ---       LVL=0
      00000007H   SYMBOL    DATA     BYTE      dat
      01004542H   LINE      CODE     ---       #50
      01004542H   LINE      CODE     ---       #51
      01004542H   LINE      CODE     ---       #52
      01004544H   LINE      CODE     ---       #53
      0100454AH   LINE      CODE     ---       #54
      0100454DH   LINE      CODE     ---       #55
      ---         BLOCKEND  ---      ---       LVL=0

      010043E5H   BLOCK     CODE     ---       LVL=0
      0200A0BFH   SYMBOL    XDATA    ---       pBuf
      010043E5H   LINE      CODE     ---       #67
      010043F0H   LINE      CODE     ---       #68
      010043F0H   LINE      CODE     ---       #69
      01004400H   LINE      CODE     ---       #70
      01004400H   LINE      CODE     ---       #71
      01004415H   LINE      CODE     ---       #72
      01004417H   LINE      CODE     ---       #73
      ---         BLOCKEND  ---      ---       LVL=0

      ---         MODULE    ---      ---       PARA_PORT
      0100456BH   PUBLIC    CODE     ---       xReadCH376Data
      01004586H   PUBLIC    CODE     ---       _xWriteCH376Data
      01004512H   PUBLIC    CODE     ---       _xWriteCH376Cmd
      01004604H   PUBLIC    CODE     ---       CH376_PORT_INIT
      010045F3H   PUBLIC    CODE     ---       mDelay0_5uS
      000000F1H   SFRSYM    DATA     BYTE      ADR_H
LX51 LINKER/LOCATER V4.66.93.0                                                        07/09/2019  16:24:51  PAGE 31


      00000080H   SFRSYM    DATA     BYTE      P0
      00000090H   SFRSYM    DATA     BYTE      P1
      000000A0H   SFRSYM    DATA     BYTE      P2
      000000B0H   SFRSYM    DATA     BYTE      P3
      000000F3H   SFRSYM    DATA     BYTE      ADR_L
      000000D0H.6 SFRSYM    DATA     BIT       AC
      00000094H   SFRSYM    DATA     BYTE      PAGESEL
      000000F2H   SFRSYM    DATA     BYTE      ADR_M
      000000A8H.7 SFRSYM    DATA     BIT       EA
      000000F8H   SFRSYM    DATA     BYTE      RAMMODE
      000000B7H   SFRSYM    DATA     BYTE      P0MDOUT
      000000BCH   SFRSYM    DATA     BYTE      P1MDOUT
      000000A8H   SFRSYM    DATA     BYTE      IEN0
      000000BDH   SFRSYM    DATA     BYTE      P2MDOUT
      000000B8H   SFRSYM    DATA     BYTE      IEN1
      000000BEH   SFRSYM    DATA     BYTE      P3MDOUT
      0000009AH   SFRSYM    DATA     BYTE      IEN2
      000000D1H   SFRSYM    DATA     BYTE      IEN3
      00000090H.4 SFRSYM    DATA     BIT       CH376_INT_WIRE
      000000F8H.4 SFRSYM    DATA     BIT       APP_ACK
      000000F4H   SFRSYM    DATA     BYTE      ADR_INC
      000000B8H.1 SFRSYM    DATA     BIT       ECAN
      000000D0H.7 SFRSYM    DATA     BIT       CY
      000000B8H.3 SFRSYM    DATA     BIT       ES2R
      000000B8H.5 SFRSYM    DATA     BIT       ES3R
      000000B8H.2 SFRSYM    DATA     BIT       ES2T
      000000B8H.4 SFRSYM    DATA     BIT       ES3T
      00000090H.3 SFRSYM    DATA     BIT       CH376_RD
      00000090H.1 SFRSYM    DATA     BIT       CH376_CS
      00000081H   SFRSYM    DATA     BYTE      SP
      000000D0H.2 SFRSYM    DATA     BIT       OV
      00000095H   SFRSYM    DATA     BYTE      D_PAGESEL
      000000F8H.7 SFRSYM    DATA     BIT       APP_REQ
      000000BFH   SFRSYM    DATA     BYTE      IRCON2
      000000BAH   SFRSYM    DATA     BYTE      SREL0H
      000000BBH   SFRSYM    DATA     BYTE      SREL1H
      00000087H   SFRSYM    DATA     BYTE      PCON
      000000F9H   SFRSYM    DATA     BYTE      PORTDRV
      000000AAH   SFRSYM    DATA     BYTE      SREL0L
      0000009DH   SFRSYM    DATA     BYTE      SREL1L
      00000089H   SFRSYM    DATA     BYTE      TMOD
      00000088H   SFRSYM    DATA     BYTE      TCON
      00000090H.2 SFRSYM    DATA     BIT       CH376_WR
      000000FFH   SFRSYM    DATA     BYTE      EXDATA
      00000097H   SFRSYM    DATA     BYTE      SCON2R
      000000ABH   SFRSYM    DATA     BYTE      SCON3R
      000000D9H   SFRSYM    DATA     BYTE      BODE2_DIV_H
      000000AEH   SFRSYM    DATA     BYTE      BODE3_DIV_H
      00000096H   SFRSYM    DATA     BYTE      SCON2T
      000000A7H   SFRSYM    DATA     BYTE      SCON3T
      000000E7H   SFRSYM    DATA     BYTE      BODE2_DIV_L
      00000088H.1 SFRSYM    DATA     BIT       IE0
      000000AFH   SFRSYM    DATA     BYTE      BODE3_DIV_L
      00000088H.3 SFRSYM    DATA     BIT       IE1
      000000C9H   SFRSYM    DATA     BYTE      MUX_SEL
      000000F0H   SFRSYM    DATA     BYTE      B
      000000E0H   SFRSYM    DATA     BYTE      ACC
      0000008FH   SFRSYM    DATA     BYTE      CAN_CR
      000000A8H.4 SFRSYM    DATA     BIT       ES0
      000000A9H   SFRSYM    DATA     BYTE      IP0
      000000A8H.1 SFRSYM    DATA     BIT       ET0
      000000B9H   SFRSYM    DATA     BYTE      IP1
      000000A8H.3 SFRSYM    DATA     BIT       ET1
      00000088H.5 SFRSYM    DATA     BIT       TF0
      000000FDH   SFRSYM    DATA     BYTE      DATA0
LX51 LINKER/LOCATER V4.66.93.0                                                        07/09/2019  16:24:51  PAGE 32


      000000A8H.5 SFRSYM    DATA     BIT       ET2
      00000098H.0 SFRSYM    DATA     BIT       RI0
      00000088H.7 SFRSYM    DATA     BIT       TF1
      000000E8H   SFRSYM    DATA     BYTE      CAN_ET
      000000FCH   SFRSYM    DATA     BYTE      DATA1
      000000C0H.6 SFRSYM    DATA     BIT       TF2
      0000008CH   SFRSYM    DATA     BYTE      TH0
      000000FBH   SFRSYM    DATA     BYTE      DATA2
      000000A8H.0 SFRSYM    DATA     BIT       EX0
      00000098H.1 SFRSYM    DATA     BIT       TI0
      0000008DH   SFRSYM    DATA     BYTE      TH1
      00000088H.0 SFRSYM    DATA     BIT       IT0
      00000091H   SFRSYM    DATA     BYTE      CAN_IR
      000000FAH   SFRSYM    DATA     BYTE      DATA3
      000000CDH   SFRSYM    DATA     BYTE      TH2
      000000A8H.2 SFRSYM    DATA     BIT       EX1
      00000088H.2 SFRSYM    DATA     BIT       IT1
      000000D0H.0 SFRSYM    DATA     BIT       P
      0000008AH   SFRSYM    DATA     BYTE      TL0
      0000008BH   SFRSYM    DATA     BYTE      TL1
      000000CCH   SFRSYM    DATA     BYTE      TL2
      000000F8H.6 SFRSYM    DATA     BIT       APP_EN
      000000D0H.3 SFRSYM    DATA     BIT       RS0
      000000D0H.4 SFRSYM    DATA     BIT       RS1
      00000088H.4 SFRSYM    DATA     BIT       TR0
      00000093H   SFRSYM    DATA     BYTE      DPC
      00000088H.6 SFRSYM    DATA     BIT       TR1
      000000E5H   SFRSYM    DATA     BYTE      MAC_MODE
      000000C8H.0 SFRSYM    DATA     BIT       TR2
      00000083H   SFRSYM    DATA     BYTE      DPH
      00000082H   SFRSYM    DATA     BYTE      DPL
      00000099H   SFRSYM    DATA     BYTE      SBUF0
      0000009CH   SFRSYM    DATA     BYTE      SBUF1
      00000098H   SFRSYM    DATA     BYTE      SCON0
      0000009BH   SFRSYM    DATA     BYTE      SCON1
      000000D8H   SFRSYM    DATA     BYTE      ADCON
      000000C8H   SFRSYM    DATA     BYTE      T2CON
      000000E6H   SFRSYM    DATA     BYTE      DIV_MODE
      000000F8H.5 SFRSYM    DATA     BIT       APP_RW
      000000CBH   SFRSYM    DATA     BYTE      TRL2H
      0000009FH   SFRSYM    DATA     BYTE      SBUF2_RX
      000000ADH   SFRSYM    DATA     BYTE      SBUF3_RX
      0000008EH   SFRSYM    DATA     BYTE      CKCON
      0000009EH   SFRSYM    DATA     BYTE      SBUF2_TX
      000000ACH   SFRSYM    DATA     BYTE      SBUF3_TX
      000000CAH   SFRSYM    DATA     BYTE      TRL2L
      000000FEH   SFRSYM    DATA     BYTE      EXADR
      000000D0H.5 SFRSYM    DATA     BIT       F0
      000000D0H.1 SFRSYM    DATA     BIT       F1
      000000D0H   SFRSYM    DATA     BYTE      PSW
      000000C0H   SFRSYM    DATA     BYTE      IRCON
      00000090H.0 SFRSYM    DATA     BIT       CH376_A0

      010045F3H   BLOCK     CODE     ---       LVL=0
      010045F3H   BLOCK     CODE     NEAR LAB  LVL=1
      00000007H   SYMBOL    DATA     BYTE      i
      ---         BLOCKEND  ---      ---       LVL=1
      010045F3H   LINE      CODE     ---       #40
      010045F3H   LINE      CODE     ---       #41
      010045F3H   LINE      CODE     ---       #43
      01004603H   LINE      CODE     ---       #44
      ---         BLOCKEND  ---      ---       LVL=0

      01004604H   BLOCK     CODE     ---       LVL=0
      01004604H   LINE      CODE     ---       #56
LX51 LINKER/LOCATER V4.66.93.0                                                        07/09/2019  16:24:51  PAGE 33


      01004604H   LINE      CODE     ---       #57
      01004604H   LINE      CODE     ---       #58
      01004604H   LINE      CODE     ---       #59
      01004607H   LINE      CODE     ---       #60
      01004609H   LINE      CODE     ---       #61
      0100460BH   LINE      CODE     ---       #62
      0100460DH   LINE      CODE     ---       #63
      0100460FH   LINE      CODE     ---       #64
      01004612H   LINE      CODE     ---       #65
      ---         BLOCKEND  ---      ---       LVL=0
      00000007H   SYMBOL    DATA     BYTE      mData

      01004512H   BLOCK     CODE     ---       LVL=0
      00000007H   SYMBOL    DATA     BYTE      mCmd
      01004512H   LINE      CODE     ---       #103
      01004512H   LINE      CODE     ---       #104
      01004512H   LINE      CODE     ---       #105
      01004514H   LINE      CODE     ---       #106
      01004517H   LINE      CODE     ---       #107
      01004519H   LINE      CODE     ---       #108
      0100451BH   LINE      CODE     ---       #109
      0100451DH   LINE      CODE     ---       #110
      0100451FH   LINE      CODE     ---       #111
      01004521H   LINE      CODE     ---       #112
      01004523H   LINE      CODE     ---       #113
      01004525H   LINE      CODE     ---       #114
      01004528H   LINE      CODE     ---       #115
      ---         BLOCKEND  ---      ---       LVL=0

      01004586H   BLOCK     CODE     ---       LVL=0
      00000007H   SYMBOL    DATA     BYTE      mData
      01004586H   LINE      CODE     ---       #128
      01004586H   LINE      CODE     ---       #129
      01004586H   LINE      CODE     ---       #130
      01004588H   LINE      CODE     ---       #131
      0100458BH   LINE      CODE     ---       #132
      0100458DH   LINE      CODE     ---       #133
      0100458FH   LINE      CODE     ---       #134
      01004591H   LINE      CODE     ---       #135
      01004593H   LINE      CODE     ---       #136
      01004595H   LINE      CODE     ---       #137
      01004597H   LINE      CODE     ---       #138
      0100459AH   LINE      CODE     ---       #139
      ---         BLOCKEND  ---      ---       LVL=0

      0100456BH   BLOCK     CODE     ---       LVL=0
      0100456BH   BLOCK     CODE     NEAR LAB  LVL=1
      00000007H   SYMBOL    DATA     BYTE      mData
      ---         BLOCKEND  ---      ---       LVL=1
      0100456BH   LINE      CODE     ---       #152
      0100456BH   LINE      CODE     ---       #153
      0100456BH   LINE      CODE     ---       #155
      0100456EH   LINE      CODE     ---       #156
      01004571H   LINE      CODE     ---       #157
      01004573H   LINE      CODE     ---       #158
      01004575H   LINE      CODE     ---       #159
      01004577H   LINE      CODE     ---       #160
      01004579H   LINE      CODE     ---       #161
      0100457BH   LINE      CODE     ---       #162
      0100457DH   LINE      CODE     ---       #163
      0100457FH   LINE      CODE     ---       #164
      01004581H   LINE      CODE     ---       #165
      01004583H   LINE      CODE     ---       #166
      01004585H   LINE      CODE     ---       #167
      01004585H   LINE      CODE     ---       #168
LX51 LINKER/LOCATER V4.66.93.0                                                        07/09/2019  16:24:51  PAGE 34


      ---         BLOCKEND  ---      ---       LVL=0

      ---         MODULE    ---      ---       USB_DGUS
      010024A7H   PUBLIC    CODE     ---       _?SystemUpDriver
      01003F2FH   PUBLIC    CODE     ---       AckDiskInit
      01003DADH   PUBLIC    CODE     ---       AckSystemUp
      01002E42H   PUBLIC    CODE     ---       AckGetOrSetPath
      01001E7DH   PUBLIC    CODE     ---       AckReadOrWriteFile
      010022A8H   PUBLIC    CODE     ---       AckSearchFile
      0100000EH   PUBLIC    CODE     ---       AckCreateOrDelPath
      0200A0BFH   PUBLIC    XDATA    BYTE      ?_WriteDgusClientString?BYTE
      0100400EH   PUBLIC    CODE     ---       _WriteDgusClientString
      0200A0BFH   PUBLIC    XDATA    BYTE      ?_ReadDgusClientString?BYTE
      010037F1H   PUBLIC    CODE     ---       _ReadDgusClientString
      02009023H   PUBLIC    XDATA    BYTE      ?_CompareDgusRegValue?BYTE
      01004424H   PUBLIC    CODE     ---       _CompareDgusRegValue
      010034D1H   PUBLIC    CODE     ---       USBModule

      010034D1H   BLOCK     CODE     ---       LVL=0
      010034D1H   BLOCK     CODE     NEAR LAB  LVL=1
      02009022H   SYMBOL    XDATA    BYTE      ACK
      ---         BLOCKEND  ---      ---       LVL=1
      010034D1H   LINE      CODE     ---       #84
      010034D1H   LINE      CODE     ---       #85
      010034D1H   LINE      CODE     ---       #86
      010034D6H   LINE      CODE     ---       #87
      010034D9H   LINE      CODE     ---       #89
      010034F5H   LINE      CODE     ---       #91
      010034FBH   LINE      CODE     ---       #92
      01003517H   LINE      CODE     ---       #94
      0100351DH   LINE      CODE     ---       #95
      01003539H   LINE      CODE     ---       #97
      0100353FH   LINE      CODE     ---       #98
      0100354DH   LINE      CODE     ---       #99
      01003553H   LINE      CODE     ---       #100
      01003593H   LINE      CODE     ---       #106
      01003599H   LINE      CODE     ---       #107
      010035BBH   LINE      CODE     ---       #109
      010035C1H   LINE      CODE     ---       #111
      010035D7H   LINE      CODE     ---       #112
      010035D7H   LINE      CODE     ---       #113
      010035D7H   LINE      CODE     ---       #114
      010035D7H   LINE      CODE     ---       #115
      010035DAH   LINE      CODE     ---       #116
      010035DAH   LINE      CODE     ---       #117
      010035DAH   LINE      CODE     ---       #118
      010035DAH   LINE      CODE     ---       #119
      010035DAH   LINE      CODE     ---       #120
      010035DDH   LINE      CODE     ---       #121
      010035DDH   LINE      CODE     ---       #122
      010035DDH   LINE      CODE     ---       #123
      010035DDH   LINE      CODE     ---       #124
      010035DDH   LINE      CODE     ---       #125
      010035E0H   LINE      CODE     ---       #126
      010035E0H   LINE      CODE     ---       #127
      010035E0H   LINE      CODE     ---       #128
      010035E0H   LINE      CODE     ---       #129
      010035E0H   LINE      CODE     ---       #130
      010035E3H   LINE      CODE     ---       #131
      010035E3H   LINE      CODE     ---       #132
      010035E3H   LINE      CODE     ---       #133
      010035E3H   LINE      CODE     ---       #134
      010035E3H   LINE      CODE     ---       #135
      010035E6H   LINE      CODE     ---       #136
      010035E6H   LINE      CODE     ---       #137
LX51 LINKER/LOCATER V4.66.93.0                                                        07/09/2019  16:24:51  PAGE 35


      010035E6H   LINE      CODE     ---       #138
      010035E6H   LINE      CODE     ---       #139
      010035E6H   LINE      CODE     ---       #140
      010035E9H   LINE      CODE     ---       #141
      010035E9H   LINE      CODE     ---       #142
      010035E9H   LINE      CODE     ---       #143
      010035E9H   LINE      CODE     ---       #144
      010035E9H   LINE      CODE     ---       #145
      010035E9H   LINE      CODE     ---       #146
      ---         BLOCKEND  ---      ---       LVL=0

      01004418H   BLOCK     CODE     VOID      LVL=0
      ---         BLOCKEND  ---      ---       LVL=0

      01004424H   BLOCK     CODE     ---       LVL=0
      00000004H   SYMBOL    DATA     DWORD     AddrDgus
      02009027H   SYMBOL    XDATA    BYTE      Value
      02009028H   SYMBOL    XDATA    BYTE      DgusValue
      01004424H   BLOCK     CODE     NEAR LAB  LVL=1
      02009028H   SYMBOL    XDATA    BYTE      DgusValue
      ---         BLOCKEND  ---      ---       LVL=1
      01004424H   LINE      CODE     ---       #160
      01004424H   LINE      CODE     ---       #161
      01004424H   LINE      CODE     ---       #162
      01004429H   LINE      CODE     ---       #163
      01004439H   LINE      CODE     ---       #164
      01004446H   LINE      CODE     ---       #165
      01004448H   LINE      CODE     ---       #166
      ---         BLOCKEND  ---      ---       LVL=0

      010037F1H   BLOCK     CODE     ---       LVL=0
      0200A0BFH   SYMBOL    XDATA    DWORD     AddrDgus
      0200A0C3H   SYMBOL    XDATA    ---       pData
      0200A0C6H   SYMBOL    XDATA    ---       pDataLen
      01003802H   BLOCK     CODE     NEAR LAB  LVL=1
      0200A0C9H   SYMBOL    XDATA    BYTE      i
      0200A0CAH   SYMBOL    XDATA    BYTE      Data1
      0200A0CBH   SYMBOL    XDATA    BYTE      Data2
      0200A0CCH   SYMBOL    XDATA    WORD      Len
      ---         BLOCKEND  ---      ---       LVL=1
      010037F1H   LINE      CODE     ---       #180
      01003802H   LINE      CODE     ---       #181
      01003802H   LINE      CODE     ---       #182
      0100380BH   LINE      CODE     ---       #183
      0100380FH   LINE      CODE     ---       #184
      01003827H   LINE      CODE     ---       #185
      01003850H   LINE      CODE     ---       #186
      0100386FH   LINE      CODE     ---       #187
      0100386FH   LINE      CODE     ---       #188
      0100389CH   LINE      CODE     ---       #189
      0100389CH   LINE      CODE     ---       #190
      010038ADH   LINE      CODE     ---       #191
      010038ADH   LINE      CODE     ---       #192
      010038B5H   LINE      CODE     ---       #193
      010038EFH   LINE      CODE     ---       #194
      ---         BLOCKEND  ---      ---       LVL=0

      0100400EH   BLOCK     CODE     ---       LVL=0
      0200A0BFH   SYMBOL    XDATA    DWORD     AddrDgus
      0200A0C3H   SYMBOL    XDATA    ---       pData
      0200A0C6H   SYMBOL    XDATA    WORD      DataLen
      0100400EH   LINE      CODE     ---       #208
      0100401FH   LINE      CODE     ---       #209
      0100401FH   LINE      CODE     ---       #211
      0100403BH   LINE      CODE     ---       #212
LX51 LINKER/LOCATER V4.66.93.0                                                        07/09/2019  16:24:51  PAGE 36


      0100404EH   LINE      CODE     ---       #213
      ---         BLOCKEND  ---      ---       LVL=0

      0100000EH   BLOCK     CODE     ---       LVL=0
      0100000EH   BLOCK     CODE     NEAR LAB  LVL=1
      02009023H   SYMBOL    XDATA    ---       Cmd
      0200902BH   SYMBOL    XDATA    ---       Path
      020090ABH   SYMBOL    XDATA    BYTE      Mod
      020090ACH   SYMBOL    XDATA    BYTE      FileType
      020090ADH   SYMBOL    XDATA    WORD      PathLength
      00000006H   SYMBOL    DATA     WORD      AddrDgusPath
      ---         BLOCKEND  ---      ---       LVL=1
      0100000EH   LINE      CODE     ---       #227
      0100000EH   LINE      CODE     ---       #228
      0100000EH   LINE      CODE     ---       #231
      01000015H   LINE      CODE     ---       #232
      0100001AH   LINE      CODE     ---       #233
      01000026H   LINE      CODE     ---       #234
      01000035H   LINE      CODE     ---       #236
      0100004FH   LINE      CODE     ---       #237
      01000057H   LINE      CODE     ---       #238
      0100005FH   LINE      CODE     ---       #239
      01000069H   LINE      CODE     ---       #240
      01000072H   LINE      CODE     ---       #242
      0100008BH   LINE      CODE     ---       #243
      0100009EH   LINE      CODE     ---       #244
      010000AAH   LINE      CODE     ---       #246
      010000B6H   LINE      CODE     ---       #247
      010000B6H   LINE      CODE     ---       #248
      010000B6H   LINE      CODE     ---       #249
      010000B6H   LINE      CODE     ---       #250
      010000C4H   LINE      CODE     ---       #251
      010000C6H   LINE      CODE     ---       #252
      010000C6H   LINE      CODE     ---       #253
      010000C6H   LINE      CODE     ---       #254
      010000C6H   LINE      CODE     ---       #255
      010000D4H   LINE      CODE     ---       #256
      010000D4H   LINE      CODE     ---       #257
      010000D4H   LINE      CODE     ---       #258
      010000D4H   LINE      CODE     ---       #259
      010000D4H   LINE      CODE     ---       #260
      010000D4H   LINE      CODE     ---       #262
      010000D9H   LINE      CODE     ---       #263
      ---         BLOCKEND  ---      ---       LVL=0

      010022A8H   BLOCK     CODE     ---       LVL=0
      010022A8H   BLOCK     CODE     NEAR LAB  LVL=1
      02009023H   SYMBOL    XDATA    ---       Cmd
      0200902BH   SYMBOL    XDATA    ---       Path
      020090ABH   SYMBOL    XDATA    ---       AimString
      020090BBH   SYMBOL    XDATA    ---       MatchLish
      00000001H   SYMBOL    DATA     ---       pMatch
      020093DBH   SYMBOL    XDATA    BYTE      Mod
      020093DCH   SYMBOL    XDATA    BYTE      Status
      020093DDH   SYMBOL    XDATA    BYTE      MatchNumber
      00000007H   SYMBOL    DATA     BYTE      i
      020093DEH   SYMBOL    XDATA    WORD      PathLength
      020093E0H   SYMBOL    XDATA    WORD      AimStringLen
      020093E2H   SYMBOL    XDATA    WORD      AddrDgusPath
      020093E4H   SYMBOL    XDATA    WORD      AddrDgusAimString
      020093E6H   SYMBOL    XDATA    WORD      AddrDgusMatchResult
      ---         BLOCKEND  ---      ---       LVL=1
      010022A8H   LINE      CODE     ---       #276
      010022A8H   LINE      CODE     ---       #277
      010022A8H   LINE      CODE     ---       #282
LX51 LINKER/LOCATER V4.66.93.0                                                        07/09/2019  16:24:51  PAGE 37


      010022AAH   LINE      CODE     ---       #283
      010022B3H   LINE      CODE     ---       #284
      010022BBH   LINE      CODE     ---       #285
      010022C7H   LINE      CODE     ---       #287
      010022D3H   LINE      CODE     ---       #288
      010022E2H   LINE      CODE     ---       #289
      010022F1H   LINE      CODE     ---       #290
      01002300H   LINE      CODE     ---       #291
      01002309H   LINE      CODE     ---       #292
      01002310H   LINE      CODE     ---       #294
      0100232AH   LINE      CODE     ---       #295
      01002332H   LINE      CODE     ---       #296
      01002344H   LINE      CODE     ---       #297
      01002356H   LINE      CODE     ---       #298
      01002368H   LINE      CODE     ---       #299
      01002386H   LINE      CODE     ---       #301
      010023A7H   LINE      CODE     ---       #302
      010023BAH   LINE      CODE     ---       #303
      010023C6H   LINE      CODE     ---       #305
      010023E7H   LINE      CODE     ---       #306
      010023F9H   LINE      CODE     ---       #308
      0100241FH   LINE      CODE     ---       #310
      01002425H   LINE      CODE     ---       #311
      01002431H   LINE      CODE     ---       #312
      01002431H   LINE      CODE     ---       #313
      01002436H   LINE      CODE     ---       #314
      0100243DH   LINE      CODE     ---       #315
      01002443H   LINE      CODE     ---       #316
      01002446H   LINE      CODE     ---       #318
      0100244BH   LINE      CODE     ---       #319
      01002453H   LINE      CODE     ---       #320
      0100246DH   LINE      CODE     ---       #322
      ---         BLOCKEND  ---      ---       LVL=0

      01001E7DH   BLOCK     CODE     ---       LVL=0
      01001E7DH   BLOCK     CODE     NEAR LAB  LVL=1
      02009023H   SYMBOL    XDATA    ---       Cmd
      02009033H   SYMBOL    XDATA    ---       Path
      020090B3H   SYMBOL    XDATA    ---       Buf
      0200A0B3H   SYMBOL    XDATA    BYTE      Mod
      0200A0B4H   SYMBOL    XDATA    BYTE      Status
      0200A0B5H   SYMBOL    XDATA    WORD      PathLength
      0200A0B7H   SYMBOL    XDATA    WORD      ByteSize
      0200A0B9H   SYMBOL    XDATA    WORD      AddrDgusPath
      0200A0BBH   SYMBOL    XDATA    WORD      AddrDgusFileMsg
      0200A0BDH   SYMBOL    XDATA    WORD      SectorOffset
      ---         BLOCKEND  ---      ---       LVL=1
      01001E7DH   LINE      CODE     ---       #335
      01001E7DH   LINE      CODE     ---       #336
      01001E7DH   LINE      CODE     ---       #340
      01001E84H   LINE      CODE     ---       #341
      01001E8CH   LINE      CODE     ---       #342
      01001E98H   LINE      CODE     ---       #343
      01001EA5H   LINE      CODE     ---       #344
      01001EB4H   LINE      CODE     ---       #345
      01001EC3H   LINE      CODE     ---       #346
      01001ECCH   LINE      CODE     ---       #348
      01001EE6H   LINE      CODE     ---       #349
      01001EEEH   LINE      CODE     ---       #350
      01001F00H   LINE      CODE     ---       #351
      01001F12H   LINE      CODE     ---       #352
      01001F3AH   LINE      CODE     ---       #353
      01001F4CH   LINE      CODE     ---       #355
      01001F6BH   LINE      CODE     ---       #356
      01001F7EH   LINE      CODE     ---       #357
LX51 LINKER/LOCATER V4.66.93.0                                                        07/09/2019  16:24:51  PAGE 38


      01001F8AH   LINE      CODE     ---       #359
      01001F9CH   LINE      CODE     ---       #360
      01001F9CH   LINE      CODE     ---       #361
      01001F9CH   LINE      CODE     ---       #362
      01001F9CH   LINE      CODE     ---       #363
      01001FD8H   LINE      CODE     ---       #364
      01001FE1H   LINE      CODE     ---       #365
      01002008H   LINE      CODE     ---       #366
      01002014H   LINE      CODE     ---       #369
      01002014H   LINE      CODE     ---       #370
      01002014H   LINE      CODE     ---       #371
      01002014H   LINE      CODE     ---       #372
      01002035H   LINE      CODE     ---       #373
      01002071H   LINE      CODE     ---       #374
      01002079H   LINE      CODE     ---       #375
      01002079H   LINE      CODE     ---       #376
      0100207BH   LINE      CODE     ---       #377
      0100207BH   LINE      CODE     ---       #378
      0100207BH   LINE      CODE     ---       #379
      0100207BH   LINE      CODE     ---       #380
      01002081H   LINE      CODE     ---       #381
      01002081H   LINE      CODE     ---       #382
      01002081H   LINE      CODE     ---       #383
      01002081H   LINE      CODE     ---       #385
      01002086H   LINE      CODE     ---       #386
      ---         BLOCKEND  ---      ---       LVL=0

      01002E42H   BLOCK     CODE     ---       LVL=0
      01002E42H   BLOCK     CODE     NEAR LAB  LVL=1
      02009023H   SYMBOL    XDATA    ---       Cmd
      0200902BH   SYMBOL    XDATA    ---       Path
      020090ABH   SYMBOL    XDATA    ---       DirName
      020090B8H   SYMBOL    XDATA    BYTE      Mod
      020090B9H   SYMBOL    XDATA    BYTE      Status
      020090BAH   SYMBOL    XDATA    WORD      PathLength
      00000004H   SYMBOL    DATA     WORD      AddrDgusPath
      020090BCH   SYMBOL    XDATA    WORD      AddrDgusDirAttr
      ---         BLOCKEND  ---      ---       LVL=1
      01002E42H   LINE      CODE     ---       #399
      01002E42H   LINE      CODE     ---       #400
      01002E42H   LINE      CODE     ---       #404
      01002E49H   LINE      CODE     ---       #405
      01002E4DH   LINE      CODE     ---       #406
      01002E53H   LINE      CODE     ---       #407
      01002E5FH   LINE      CODE     ---       #408
      01002E6EH   LINE      CODE     ---       #409
      01002E7DH   LINE      CODE     ---       #410
      01002E86H   LINE      CODE     ---       #412
      01002EA0H   LINE      CODE     ---       #413
      01002EA8H   LINE      CODE     ---       #414
      01002EB2H   LINE      CODE     ---       #415
      01002EC2H   LINE      CODE     ---       #417
      01002EDFH   LINE      CODE     ---       #418
      01002EF2H   LINE      CODE     ---       #419
      01002EFEH   LINE      CODE     ---       #421
      01002F0AH   LINE      CODE     ---       #422
      01002F0AH   LINE      CODE     ---       #423
      01002F0AH   LINE      CODE     ---       #424
      01002F0AH   LINE      CODE     ---       #425
      01002F26H   LINE      CODE     ---       #426
      01002F42H   LINE      CODE     ---       #427
      01002F44H   LINE      CODE     ---       #428
      01002F44H   LINE      CODE     ---       #429
      01002F44H   LINE      CODE     ---       #430
      01002F44H   LINE      CODE     ---       #431
LX51 LINKER/LOCATER V4.66.93.0                                                        07/09/2019  16:24:51  PAGE 39


      01002F60H   LINE      CODE     ---       #432
      01002F7CH   LINE      CODE     ---       #433
      01002F7EH   LINE      CODE     ---       #434
      01002F7EH   LINE      CODE     ---       #435
      01002F7EH   LINE      CODE     ---       #436
      01002F7EH   LINE      CODE     ---       #437
      01002F84H   LINE      CODE     ---       #438
      01002F84H   LINE      CODE     ---       #439
      01002F84H   LINE      CODE     ---       #440
      01002F84H   LINE      CODE     ---       #442
      01002F89H   LINE      CODE     ---       #443
      01002F91H   LINE      CODE     ---       #444
      ---         BLOCKEND  ---      ---       LVL=0

      01003DADH   BLOCK     CODE     ---       LVL=0
      01003DADH   BLOCK     CODE     NEAR LAB  LVL=1
      02009023H   SYMBOL    XDATA    ---       Cmd
      0200902BH   SYMBOL    XDATA    BYTE      FileType
      00000006H   SYMBOL    DATA     WORD      FileNumber
      0200902CH   SYMBOL    XDATA    WORD      Times
      ---         BLOCKEND  ---      ---       LVL=1
      01003DADH   LINE      CODE     ---       #457
      01003DADH   LINE      CODE     ---       #458
      01003DADH   LINE      CODE     ---       #460
      01003DB2H   LINE      CODE     ---       #461
      01003DB7H   LINE      CODE     ---       #462
      01003DC3H   LINE      CODE     ---       #463
      01003DDDH   LINE      CODE     ---       #464
      01003DE5H   LINE      CODE     ---       #465
      01003DEDH   LINE      CODE     ---       #466
      01003DFDH   LINE      CODE     ---       #467
      01003E02H   LINE      CODE     ---       #468
      01003E04H   LINE      CODE     ---       #469
      01003E06H   LINE      CODE     ---       #470
      01003E13H   LINE      CODE     ---       #471
      01003E16H   LINE      CODE     ---       #472
      ---         BLOCKEND  ---      ---       LVL=0

      01003F2FH   BLOCK     CODE     ---       LVL=0
      01003F2FH   BLOCK     CODE     NEAR LAB  LVL=1
      02009023H   SYMBOL    XDATA    ---       Cmd
      01003F8AH   SYMBOL    CODE     VOID      END
      ---         BLOCKEND  ---      ---       LVL=1
      01003F2FH   LINE      CODE     ---       #485
      01003F2FH   LINE      CODE     ---       #486
      01003F2FH   LINE      CODE     ---       #488
      01003F3EH   LINE      CODE     ---       #490
      01003F58H   LINE      CODE     ---       #492
      01003F5EH   LINE      CODE     ---       #493
      01003F5EH   LINE      CODE     ---       #494
      01003F66H   LINE      CODE     ---       #495
      01003F68H   LINE      CODE     ---       #496
      01003F68H   LINE      CODE     ---       #497
      01003F6AH   LINE      CODE     ---       #498
      01003F6CH   LINE      CODE     ---       #499
      01003F6EH   LINE      CODE     ---       #500
      01003F6EH   LINE      CODE     ---       #501
      01003F6EH   LINE      CODE     ---       #502
      01003F76H   LINE      CODE     ---       #503
      01003F78H   LINE      CODE     ---       #504
      01003F78H   LINE      CODE     ---       #505
      01003F7AH   LINE      CODE     ---       #506
      01003F7CH   LINE      CODE     ---       #507
      01003F7CH   LINE      CODE     ---       #508
      01003F82H   LINE      CODE     ---       #509
LX51 LINKER/LOCATER V4.66.93.0                                                        07/09/2019  16:24:51  PAGE 40


      01003F8AH   LINE      CODE     ---       #510
      01003F8AH   LINE      CODE     ---       #511
      ---         BLOCKEND  ---      ---       LVL=0

      0100249BH   BLOCK     CODE     VOID      LVL=0
      ---         BLOCKEND  ---      ---       LVL=0

      010024A7H   BLOCK     CODE     ---       LVL=0
      00000002H   SYMBOL    XSTK     BYTE      FileType
      00000003H   SYMBOL    XSTK     WORD      FileNumber
      00000005H   SYMBOL    XSTK     ---       pTimes
      00000000H   SYMBOL    XSTK     WORD      Num
      010024DBH   SYMBOL    CODE     VOID      END
      010024CEH   BLOCK     CODE     NEAR LAB  LVL=1
      00000000H   SYMBOL    XSTK     WORD      Num
      010024DBH   SYMBOL    CODE     VOID      END
      ---         BLOCKEND  ---      ---       LVL=1
      010024A7H   LINE      CODE     ---       #526
      010024CEH   LINE      CODE     ---       #528
      010024D8H   LINE      CODE     ---       #529
      010024EBH   LINE      CODE     ---       #530
      010024EBH   LINE      CODE     ---       #531
      01002513H   LINE      CODE     ---       #532
      01002516H   LINE      CODE     ---       #533
      01002516H   LINE      CODE     ---       #534
      01002536H   LINE      CODE     ---       #535
      01002536H   LINE      CODE     ---       #536
      01002536H   LINE      CODE     ---       #537
      01002536H   LINE      CODE     ---       #538
      0100254DH   LINE      CODE     ---       #539
      01002564H   LINE      CODE     ---       #540
      0100256FH   LINE      CODE     ---       #541
      0100257AH   LINE      CODE     ---       #542
      01002591H   LINE      CODE     ---       #543
      01002594H   LINE      CODE     ---       #544
      01002594H   LINE      CODE     ---       #545
      01002594H   LINE      CODE     ---       #546
      01002594H   LINE      CODE     ---       #547
      01002594H   LINE      CODE     ---       #548
      01002594H   LINE      CODE     ---       #549
      01002594H   LINE      CODE     ---       #550
      01002594H   LINE      CODE     ---       #551
      010025B4H   LINE      CODE     ---       #552
      010025B4H   LINE      CODE     ---       #553
      010025C7H   LINE      CODE     ---       #554
      010025D6H   LINE      CODE     ---       #555
      010025D6H   LINE      CODE     ---       #556
      010025D6H   LINE      CODE     ---       #557
      010025D6H   LINE      CODE     ---       #558
      010025D6H   LINE      CODE     ---       #559
      010025F3H   LINE      CODE     ---       #560
      010025F3H   LINE      CODE     ---       #561
      01002606H   LINE      CODE     ---       #562
      01002615H   LINE      CODE     ---       #563
      01002615H   LINE      CODE     ---       #564
      01002615H   LINE      CODE     ---       #565
      01002615H   LINE      CODE     ---       #566
      01002615H   LINE      CODE     ---       #567
      01002634H   LINE      CODE     ---       #568
      01002634H   LINE      CODE     ---       #569
      01002647H   LINE      CODE     ---       #570
      01002656H   LINE      CODE     ---       #571
      01002656H   LINE      CODE     ---       #572
      01002656H   LINE      CODE     ---       #573
      01002656H   LINE      CODE     ---       #574
LX51 LINKER/LOCATER V4.66.93.0                                                        07/09/2019  16:24:51  PAGE 41


      01002656H   LINE      CODE     ---       #575
      ---         BLOCKEND  ---      ---       LVL=0

      ---         MODULE    ---      ---       APP_INTERFACE
      020090BEH   PUBLIC    XDATA    BYTE      ?_SetFileMessage?BYTE
      0100325FH   PUBLIC    CODE     ---       _SetFileMessage
      020090BEH   PUBLIC    XDATA    BYTE      ?_GetFileMessage?BYTE
      01002FABH   PUBLIC    CODE     ---       _GetFileMessage
      01002CD8H   PUBLIC    CODE     ---       _SystemUpdate
      0200938CH   PUBLIC    XDATA    BYTE      ?_SysUpFileSend?BYTE
      0100118FH   PUBLIC    CODE     ---       _SysUpFileSend
      0200A5B1H   PUBLIC    XDATA    BYTE      ?_SendUpPackToDGUS?BYTE
      01003C06H   PUBLIC    CODE     ---       _SendUpPackToDGUS
      0200A5B1H   PUBLIC    XDATA    BYTE      ?_SysUpPcakSet?BYTE
      010033B2H   PUBLIC    CODE     ---       _SysUpPcakSet
      010042C9H   PUBLIC    CODE     ---       _SysUpWaitOsFinishRead
      0200938CH   PUBLIC    XDATA    BYTE      ?_SysUpFileMatch?BYTE
      010019EAH   PUBLIC    CODE     ---       _SysUpFileMatch
      0200939FH   PUBLIC    XDATA    BYTE      ?_NumberStringMatch?BYTE
      01003D29H   PUBLIC    CODE     ---       _NumberStringMatch
      01004234H   PUBLIC    CODE     ---       _SysUpGetDWINFile
      0200938CH   PUBLIC    XDATA    BYTE      ?_SysUpGetFileMesg?BYTE
      01001760H   PUBLIC    CODE     ---       _SysUpGetFileMesg
      020093E8H   PUBLIC    XDATA    BYTE      ?_MatchFile?BYTE
      01003EB0H   PUBLIC    CODE     ---       _MatchFile
      0200A0BFH   PUBLIC    XDATA    BYTE      ?_WriteFile?BYTE
      01000A86H   PUBLIC    CODE     ---       _WriteFile
      0200A5B1H   PUBLIC    XDATA    BYTE      ?_ReadFile?BYTE
      010014ACH   PUBLIC    CODE     ---       _ReadFile
      01004449H   PUBLIC    CODE     ---       _RmFileOrDir
      010029B9H   PUBLIC    CODE     ---       _CH376CreateFileOrDir
      010043AFH   PUBLIC    CODE     ---       _CreateFileOrDir
      0100462DH   PUBLIC    CODE     ---       CheckDiskInit
      01004620H   PUBLIC    CODE     ---       CheckConnect
      01004278H   PUBLIC    CODE     ---       CheckIC
      00000007H   SYMBOL    DATA     BYTE      i
      00000006H   SYMBOL    DATA     BYTE      j

      01004278H   BLOCK     CODE     ---       LVL=0
      01004278H   BLOCK     CODE     NEAR LAB  LVL=1
      02009027H   SYMBOL    XDATA    BYTE      i
      ---         BLOCKEND  ---      ---       LVL=1
      01004278H   LINE      CODE     ---       #94
      01004278H   LINE      CODE     ---       #95
      01004278H   LINE      CODE     ---       #96
      0100427DH   LINE      CODE     ---       #97
      01004282H   LINE      CODE     ---       #98
      01004287H   LINE      CODE     ---       #100
      01004292H   LINE      CODE     ---       #102
      01004292H   LINE      CODE     ---       #103
      01004297H   LINE      CODE     ---       #104
      0100429CH   LINE      CODE     ---       #105
      010042A8H   LINE      CODE     ---       #106
      010042B8H   LINE      CODE     ---       #107
      010042BAH   LINE      CODE     ---       #108
      010042BAH   LINE      CODE     ---       #109
      ---         BLOCKEND  ---      ---       LVL=0

      01004620H   BLOCK     CODE     ---       LVL=0
      01004620H   LINE      CODE     ---       #122
      01004620H   LINE      CODE     ---       #123
      01004620H   LINE      CODE     ---       #124
      0100462CH   LINE      CODE     ---       #125
      0100462CH   LINE      CODE     ---       #126
      ---         BLOCKEND  ---      ---       LVL=0
LX51 LINKER/LOCATER V4.66.93.0                                                        07/09/2019  16:24:51  PAGE 42



      0100462DH   BLOCK     CODE     ---       LVL=0
      0100462DH   LINE      CODE     ---       #139
      0100462DH   LINE      CODE     ---       #140
      0100462DH   LINE      CODE     ---       #141
      01004639H   LINE      CODE     ---       #142
      01004639H   LINE      CODE     ---       #143
      ---         BLOCKEND  ---      ---       LVL=0

      010043AFH   BLOCK     CODE     ---       LVL=0
      020090AFH   SYMBOL    XDATA    ---       pPathName
      020090B2H   SYMBOL    XDATA    BYTE      TypePath
      010043AFH   LINE      CODE     ---       #157
      010043BFH   LINE      CODE     ---       #158
      010043BFH   LINE      CODE     ---       #159
      010043C2H   LINE      CODE     ---       #160
      010043D3H   LINE      CODE     ---       #161
      010043E4H   LINE      CODE     ---       #162
      ---         BLOCKEND  ---      ---       LVL=0

      010029B9H   BLOCK     CODE     ---       LVL=0
      0200B2DBH   SYMBOL    XDATA    ---       pPathName
      0200B2DEH   SYMBOL    XDATA    BYTE      TypePath
      010029C7H   BLOCK     CODE     NEAR LAB  LVL=1
      0200B2DFH   SYMBOL    XDATA    ---       NameBuf
      0200B5DFH   SYMBOL    XDATA    BYTE      i
      0200B5E0H   SYMBOL    XDATA    BYTE      j
      0200B5E1H   SYMBOL    XDATA    BYTE      Status
      ---         BLOCKEND  ---      ---       LVL=1
      010029B9H   LINE      CODE     ---       #176
      010029C7H   LINE      CODE     ---       #177
      010029C7H   LINE      CODE     ---       #179
      010029CCH   LINE      CODE     ---       #180
      010029CEH   LINE      CODE     ---       #181
      010029D0H   LINE      CODE     ---       #182
      010029DDH   LINE      CODE     ---       #184
      010029F2H   LINE      CODE     ---       #185
      010029F2H   LINE      CODE     ---       #186
      01002A03H   LINE      CODE     ---       #187
      01002A03H   LINE      CODE     ---       #188
      01002A35H   LINE      CODE     ---       #189
      01002A4BH   LINE      CODE     ---       #190
      01002A4BH   LINE      CODE     ---       #191
      01002A55H   LINE      CODE     ---       #192
      01002A57H   LINE      CODE     ---       #193
      01002A57H   LINE      CODE     ---       #194
      01002A5FH   LINE      CODE     ---       #195
      01002A6FH   LINE      CODE     ---       #196
      01002A78H   LINE      CODE     ---       #198
      01002A98H   LINE      CODE     ---       #199
      01002A98H   LINE      CODE     ---       #200
      01002AAFH   LINE      CODE     ---       #201
      01002AC1H   LINE      CODE     ---       #202
      01002AC1H   LINE      CODE     ---       #203
      01002ACFH   LINE      CODE     ---       #204
      01002ACFH   LINE      CODE     ---       #205
      01002ACFH   LINE      CODE     ---       #206
      01002ACFH   LINE      CODE     ---       #207
      01002AEBH   LINE      CODE     ---       #208
      01002AEBH   LINE      CODE     ---       #209
      01002AEBH   LINE      CODE     ---       #210
      01002AEBH   LINE      CODE     ---       #211
      01002AEBH   LINE      CODE     ---       #212
      01002B08H   LINE      CODE     ---       #215
      01002B08H   LINE      CODE     ---       #216
LX51 LINKER/LOCATER V4.66.93.0                                                        07/09/2019  16:24:51  PAGE 43


      01002B08H   LINE      CODE     ---       #217
      01002B08H   LINE      CODE     ---       #218
      01002B08H   LINE      CODE     ---       #219
      01002B08H   LINE      CODE     ---       #220
      01002B08H   LINE      CODE     ---       #221
      01002B14H   LINE      CODE     ---       #222
      01002B14H   LINE      CODE     ---       #223
      01002B14H   LINE      CODE     ---       #224
      01002B14H   LINE      CODE     ---       #225
      01002B30H   LINE      CODE     ---       #226
      01002B30H   LINE      CODE     ---       #227
      01002B30H   LINE      CODE     ---       #228
      01002B30H   LINE      CODE     ---       #229
      01002B30H   LINE      CODE     ---       #230
      01002B4AH   LINE      CODE     ---       #231
      01002B4FH   LINE      CODE     ---       #232
      01002B4FH   LINE      CODE     ---       #233
      01002B4FH   LINE      CODE     ---       #234
      01002B4FH   LINE      CODE     ---       #235
      01002B4FH   LINE      CODE     ---       #236
      01002B4FH   LINE      CODE     ---       #237
      01002B58H   LINE      CODE     ---       #238
      01002B5AH   LINE      CODE     ---       #239
      ---         BLOCKEND  ---      ---       LVL=0

      01004449H   BLOCK     CODE     ---       LVL=0
      020090AFH   SYMBOL    XDATA    ---       pPathName
      01004449H   LINE      CODE     ---       #252
      01004454H   LINE      CODE     ---       #253
      01004454H   LINE      CODE     ---       #254
      01004462H   LINE      CODE     ---       #255
      01004478H   LINE      CODE     ---       #256
      01004478H   LINE      CODE     ---       #257
      ---         BLOCKEND  ---      ---       LVL=0

      010014A1H   BLOCK     CODE     VOID      LVL=0
      ---         BLOCKEND  ---      ---       LVL=0

      010014ACH   BLOCK     CODE     ---       LVL=0
      0200A5B1H   SYMBOL    XDATA    ---       pPathName
      0200A5B4H   SYMBOL    XDATA    ---       pData
      0200A5B7H   SYMBOL    XDATA    WORD      DataLen
      0200A5B9H   SYMBOL    XDATA    DWORD     SectorOffset
      0200A5BDH   SYMBOL    XDATA    BYTE      Status
      0200A5BEH   SYMBOL    XDATA    DWORD     SectorCount
      0200A5C2H   SYMBOL    XDATA    DWORD     Count
      0200A5C6H   SYMBOL    XDATA    DWORD     FileSize
      010014B7H   BLOCK     CODE     NEAR LAB  LVL=1
      0200A5BDH   SYMBOL    XDATA    BYTE      Status
      0200A5BEH   SYMBOL    XDATA    DWORD     SectorCount
      0200A5C2H   SYMBOL    XDATA    DWORD     Count
      0200A5C6H   SYMBOL    XDATA    DWORD     FileSize
      ---         BLOCKEND  ---      ---       LVL=1
      010014ACH   LINE      CODE     ---       #273
      010014B7H   LINE      CODE     ---       #274
      010014B7H   LINE      CODE     ---       #275
      010014BCH   LINE      CODE     ---       #276
      010014CEH   LINE      CODE     ---       #277
      010014D8H   LINE      CODE     ---       #278
      010014E9H   LINE      CODE     ---       #279
      010014F7H   LINE      CODE     ---       #280
      0100150BH   LINE      CODE     ---       #282
      0100151EH   LINE      CODE     ---       #283
      01001525H   LINE      CODE     ---       #284
      0100152EH   LINE      CODE     ---       #285
LX51 LINKER/LOCATER V4.66.93.0                                                        07/09/2019  16:24:51  PAGE 44


      0100154AH   LINE      CODE     ---       #287
      010015B3H   LINE      CODE     ---       #289
      0100164DH   LINE      CODE     ---       #290
      0100165EH   LINE      CODE     ---       #291
      0100166FH   LINE      CODE     ---       #292
      01001686H   LINE      CODE     ---       #293
      01001686H   LINE      CODE     ---       #296
      010016AFH   LINE      CODE     ---       #297
      010016C5H   LINE      CODE     ---       #299
      010016DFH   LINE      CODE     ---       #300
      010016DFH   LINE      CODE     ---       #301
      010016E9H   LINE      CODE     ---       #302
      0100170CH   LINE      CODE     ---       #303
      0100170EH   LINE      CODE     ---       #305
      0100170EH   LINE      CODE     ---       #306
      01001720H   LINE      CODE     ---       #307
      0100172AH   LINE      CODE     ---       #308
      0100172AH   LINE      CODE     ---       #310
      0100174EH   LINE      CODE     ---       #311
      01001758H   LINE      CODE     ---       #312
      01001758H   LINE      CODE     ---       #313
      0100175DH   LINE      CODE     ---       #314
      0100175FH   LINE      CODE     ---       #315
      ---         BLOCKEND  ---      ---       LVL=0

      01000A86H   BLOCK     CODE     ---       LVL=0
      0200A0BFH   SYMBOL    XDATA    ---       pPathName
      0200A0C2H   SYMBOL    XDATA    ---       pData
      0200A0C5H   SYMBOL    XDATA    WORD      DataLen
      0200A0C7H   SYMBOL    XDATA    DWORD     SectorOffset
      01000A91H   BLOCK     CODE     NEAR LAB  LVL=1
      0200A0CBH   SYMBOL    XDATA    ---       Buf
      0200B0CBH   SYMBOL    XDATA    ---       EndBuf
      0200B2CBH   SYMBOL    XDATA    BYTE      Status
      0200B2CCH   SYMBOL    XDATA    BYTE      SectorCount
      0200B2CDH   SYMBOL    XDATA    BYTE      Flag
      0200B2CEH   SYMBOL    XDATA    ---       pMid
      0200B2D1H   SYMBOL    XDATA    WORD      BufFreeLen
      0200B2D3H   SYMBOL    XDATA    WORD      BufSourceLen
      0200B2D5H   SYMBOL    XDATA    WORD      EndBufSize
      0200B2D7H   SYMBOL    XDATA    DWORD     FileSize
      ---         BLOCKEND  ---      ---       LVL=1
      01000A86H   LINE      CODE     ---       #330
      01000A91H   LINE      CODE     ---       #331
      01000A91H   LINE      CODE     ---       #334
      01000A9AH   LINE      CODE     ---       #335
      01000AA3H   LINE      CODE     ---       #336
      01000AB0H   LINE      CODE     ---       #337
      01000AB8H   LINE      CODE     ---       #339
      01000AC7H   LINE      CODE     ---       #340
      01000AD6H   LINE      CODE     ---       #341
      01000AF3H   LINE      CODE     ---       #342
      01000B01H   LINE      CODE     ---       #343
      01000B20H   LINE      CODE     ---       #344
      01000B23H   LINE      CODE     ---       #347
      01000B36H   LINE      CODE     ---       #348
      01000B3AH   LINE      CODE     ---       #349
      01000B3AH   LINE      CODE     ---       #350
      01000B4AH   LINE      CODE     ---       #351
      01000B5DH   LINE      CODE     ---       #352
      01000B63H   LINE      CODE     ---       #353
      01000B68H   LINE      CODE     ---       #354
      01000B68H   LINE      CODE     ---       #356
      01000B72H   LINE      CODE     ---       #357
      01000B72H   LINE      CODE     ---       #358
LX51 LINKER/LOCATER V4.66.93.0                                                        07/09/2019  16:24:51  PAGE 45


      01000B72H   LINE      CODE     ---       #359
      01000B72H   LINE      CODE     ---       #360
      01000B7AH   LINE      CODE     ---       #361
      01000B7CH   LINE      CODE     ---       #362
      01000B7CH   LINE      CODE     ---       #363
      01000B7CH   LINE      CODE     ---       #364
      01000B7CH   LINE      CODE     ---       #365
      01000B85H   LINE      CODE     ---       #366
      01000B9DH   LINE      CODE     ---       #367
      01000BA0H   LINE      CODE     ---       #368
      01000BA0H   LINE      CODE     ---       #369
      01000BB9H   LINE      CODE     ---       #370
      01000BB9H   LINE      CODE     ---       #371
      01000BC4H   LINE      CODE     ---       #372
      01000BC6H   LINE      CODE     ---       #373
      01000BC6H   LINE      CODE     ---       #374
      01000BC6H   LINE      CODE     ---       #375
      01000BC9H   LINE      CODE     ---       #376
      01000BC9H   LINE      CODE     ---       #377
      01000BF4H   LINE      CODE     ---       #378
      01000C02H   LINE      CODE     ---       #379
      01000C02H   LINE      CODE     ---       #380
      01000C1FH   LINE      CODE     ---       #381
      01000C35H   LINE      CODE     ---       #382
      01000C43H   LINE      CODE     ---       #383
      01000C4CH   LINE      CODE     ---       #384
      01000C61H   LINE      CODE     ---       #385
      01000C61H   LINE      CODE     ---       #386
      01000C8AH   LINE      CODE     ---       #387
      01000C90H   LINE      CODE     ---       #388
      01000CA5H   LINE      CODE     ---       #389
      01000CAEH   LINE      CODE     ---       #390
      01000CB1H   LINE      CODE     ---       #392
      01000CB1H   LINE      CODE     ---       #393
      01000CE3H   LINE      CODE     ---       #394
      01000CFDH   LINE      CODE     ---       #395
      01000D08H   LINE      CODE     ---       #396
      01000D0FH   LINE      CODE     ---       #397
      01000D0FH   LINE      CODE     ---       #398
      01000D0FH   LINE      CODE     ---       #399
      01000D0FH   LINE      CODE     ---       #400
      01000D12H   LINE      CODE     ---       #402
      01000D20H   LINE      CODE     ---       #403
      01000D20H   LINE      CODE     ---       #404
      01000D29H   LINE      CODE     ---       #405
      01000D29H   LINE      CODE     ---       #406
      01000D4EH   LINE      CODE     ---       #407
      01000D54H   LINE      CODE     ---       #408
      01000D62H   LINE      CODE     ---       #409
      01000D6DH   LINE      CODE     ---       #410
      01000D6FH   LINE      CODE     ---       #412
      01000D6FH   LINE      CODE     ---       #413
      01000D9CH   LINE      CODE     ---       #414
      01000DABH   LINE      CODE     ---       #415
      01000DB6H   LINE      CODE     ---       #416
      01000DBDH   LINE      CODE     ---       #417
      01000DBDH   LINE      CODE     ---       #418
      01000DD9H   LINE      CODE     ---       #419
      01000DE8H   LINE      CODE     ---       #420
      01000DEBH   LINE      CODE     ---       #421
      01000E04H   LINE      CODE     ---       #422
      01000E22H   LINE      CODE     ---       #423
      01000E27H   LINE      CODE     ---       #424
      01000E29H   LINE      CODE     ---       #425
      ---         BLOCKEND  ---      ---       LVL=0
LX51 LINKER/LOCATER V4.66.93.0                                                        07/09/2019  16:24:51  PAGE 46



      01003EB0H   BLOCK     CODE     ---       LVL=0
      020093E8H   SYMBOL    XDATA    ---       pDir
      020093EBH   SYMBOL    XDATA    ---       pMatchString
      020093EEH   SYMBOL    XDATA    ---       pBuf
      01003EBBH   BLOCK     CODE     NEAR LAB  LVL=1
      00000007H   SYMBOL    DATA     BYTE      Status
      020093F1H   SYMBOL    XDATA    BYTE      i
      ---         BLOCKEND  ---      ---       LVL=1
      01003EB0H   LINE      CODE     ---       #440
      01003EBBH   LINE      CODE     ---       #441
      01003EBBH   LINE      CODE     ---       #442
      01003EC1H   LINE      CODE     ---       #443
      01003ED2H   LINE      CODE     ---       #444
      01003EE0H   LINE      CODE     ---       #445
      01003EEEH   LINE      CODE     ---       #446
      01003F26H   LINE      CODE     ---       #447
      01003F2EH   LINE      CODE     ---       #448
      ---         BLOCKEND  ---      ---       LVL=0

      01001760H   BLOCK     CODE     ---       LVL=0
      00000007H   SYMBOL    DATA     BYTE      FileType
      0200938DH   SYMBOL    XDATA    WORD      FileNumber
      0200938FH   SYMBOL    XDATA    ---       pUpSpace
      02009392H   SYMBOL    XDATA    ---       pFileAddr
      02009395H   SYMBOL    XDATA    ---       pString
      01001760H   LINE      CODE     ---       #464
      01001771H   LINE      CODE     ---       #465
      01001771H   LINE      CODE     ---       #466
      0100178FH   LINE      CODE     ---       #467
      0100178FH   LINE      CODE     ---       #468
      0100178FH   LINE      CODE     ---       #469
      0100178FH   LINE      CODE     ---       #470
      010017A7H   LINE      CODE     ---       #471
      010017B1H   LINE      CODE     ---       #472
      010017C9H   LINE      CODE     ---       #473
      010017DBH   LINE      CODE     ---       #474
      010017DBH   LINE      CODE     ---       #475
      010017DEH   LINE      CODE     ---       #476
      010017DEH   LINE      CODE     ---       #478
      010017DEH   LINE      CODE     ---       #479
      010017DEH   LINE      CODE     ---       #480
      010017F6H   LINE      CODE     ---       #481
      01001800H   LINE      CODE     ---       #482
      01001818H   LINE      CODE     ---       #483
      0100182AH   LINE      CODE     ---       #484
      0100182AH   LINE      CODE     ---       #485
      0100182CH   LINE      CODE     ---       #486
      0100182CH   LINE      CODE     ---       #488
      0100182CH   LINE      CODE     ---       #489
      0100182CH   LINE      CODE     ---       #490
      01001857H   LINE      CODE     ---       #491
      01001861H   LINE      CODE     ---       #492
      01001879H   LINE      CODE     ---       #493
      010018A1H   LINE      CODE     ---       #494
      010018ADH   LINE      CODE     ---       #495
      010018B0H   LINE      CODE     ---       #496
      010018B0H   LINE      CODE     ---       #497
      010018B0H   LINE      CODE     ---       #498
      010018B0H   LINE      CODE     ---       #499
      010018DBH   LINE      CODE     ---       #500
      010018E5H   LINE      CODE     ---       #501
      010018FDH   LINE      CODE     ---       #502
      01001907H   LINE      CODE     ---       #503
      0100191FH   LINE      CODE     ---       #504
LX51 LINKER/LOCATER V4.66.93.0                                                        07/09/2019  16:24:51  PAGE 47


      01001929H   LINE      CODE     ---       #505
      01001941H   LINE      CODE     ---       #506
      0100195FH   LINE      CODE     ---       #507
      0100196CH   LINE      CODE     ---       #508
      0100196EH   LINE      CODE     ---       #509
      0100196EH   LINE      CODE     ---       #510
      0100196EH   LINE      CODE     ---       #511
      0100196EH   LINE      CODE     ---       #512
      01001999H   LINE      CODE     ---       #513
      010019A3H   LINE      CODE     ---       #514
      010019BBH   LINE      CODE     ---       #515
      010019D9H   LINE      CODE     ---       #516
      010019E9H   LINE      CODE     ---       #517
      010019E9H   LINE      CODE     ---       #518
      010019E9H   LINE      CODE     ---       #519
      010019E9H   LINE      CODE     ---       #520
      010019E9H   LINE      CODE     ---       #521
      010019E9H   LINE      CODE     ---       #522
      ---         BLOCKEND  ---      ---       LVL=0

      01004234H   BLOCK     CODE     ---       LVL=0
      0200938CH   SYMBOL    XDATA    ---       pMatchList
      0100423FH   BLOCK     CODE     NEAR LAB  LVL=1
      00000007H   SYMBOL    DATA     BYTE      Status
      0200938FH   SYMBOL    XDATA    BYTE      i
      ---         BLOCKEND  ---      ---       LVL=1
      01004234H   LINE      CODE     ---       #534
      0100423FH   LINE      CODE     ---       #535
      0100423FH   LINE      CODE     ---       #536
      01004241H   LINE      CODE     ---       #537
      01004243H   LINE      CODE     ---       #538
      0100426FH   LINE      CODE     ---       #539
      01004277H   LINE      CODE     ---       #540
      01004277H   LINE      CODE     ---       #541
      ---         BLOCKEND  ---      ---       LVL=0

      01003D29H   BLOCK     CODE     ---       LVL=0
      0200939FH   SYMBOL    XDATA    ---       pSource
      020093A2H   SYMBOL    XDATA    ---       pDest
      020093A5H   SYMBOL    XDATA    ---       pCount
      01003D29H   LINE      CODE     ---       #555
      01003D34H   LINE      CODE     ---       #556
      01003D34H   LINE      CODE     ---       #557
      01003D4CH   LINE      CODE     ---       #558
      01003D4CH   LINE      CODE     ---       #559
      01003D4EH   LINE      CODE     ---       #561
      01003D4EH   LINE      CODE     ---       #563
      01003D4EH   LINE      CODE     ---       #564
      01003D6EH   LINE      CODE     ---       #565
      01003D78H   LINE      CODE     ---       #566
      01003D82H   LINE      CODE     ---       #567
      01003D9CH   LINE      CODE     ---       #569
      01003DACH   LINE      CODE     ---       #570
      ---         BLOCKEND  ---      ---       LVL=0

      010019EAH   BLOCK     CODE     ---       LVL=0
      0200938CH   SYMBOL    XDATA    ---       pSource
      0200938FH   SYMBOL    XDATA    ---       pDest
      02009392H   SYMBOL    XDATA    ---       pResult
      02009395H   SYMBOL    XDATA    ---       pFileSize
      010019F5H   BLOCK     CODE     NEAR LAB  LVL=1
      02009398H   SYMBOL    XDATA    BYTE      i
      02009399H   SYMBOL    XDATA    ---       pNow
      0200939CH   SYMBOL    XDATA    ---       pStatus
      ---         BLOCKEND  ---      ---       LVL=1
LX51 LINKER/LOCATER V4.66.93.0                                                        07/09/2019  16:24:51  PAGE 48


      010019EAH   LINE      CODE     ---       #586
      010019F5H   LINE      CODE     ---       #587
      010019F5H   LINE      CODE     ---       #588
      010019FAH   LINE      CODE     ---       #589
      01001A0FH   LINE      CODE     ---       #590
      01001A16H   LINE      CODE     ---       #591
      01001A29H   LINE      CODE     ---       #592
      01001A29H   LINE      CODE     ---       #593
      01001A2EH   LINE      CODE     ---       #594
      01001A56H   LINE      CODE     ---       #595
      01001A56H   LINE      CODE     ---       #596
      01001A7AH   LINE      CODE     ---       #597
      01001AB7H   LINE      CODE     ---       #598
      01001AD1H   LINE      CODE     ---       #599
      01001ADAH   LINE      CODE     ---       #600
      01001ADAH   LINE      CODE     ---       #601
      01001B17H   LINE      CODE     ---       #602
      01001B21H   LINE      CODE     ---       #603
      01001B5EH   LINE      CODE     ---       #604
      01001B9CH   LINE      CODE     ---       #605
      01001BE1H   LINE      CODE     ---       #606
      01001C21H   LINE      CODE     ---       #607
      01001C24H   LINE      CODE     ---       #608
      01001C24H   LINE      CODE     ---       #609
      01001C31H   LINE      CODE     ---       #610
      01001C3EH   LINE      CODE     ---       #611
      01001C40H   LINE      CODE     ---       #612
      ---         BLOCKEND  ---      ---       LVL=0

      010042BBH   BLOCK     CODE     VOID      LVL=0
      ---         BLOCKEND  ---      ---       LVL=0

      010042C9H   BLOCK     CODE     ---       LVL=0
      0200A5C1H   SYMBOL    XDATA    DWORD     AddrDgus
      0200A5C5H   SYMBOL    XDATA    BYTE      Flag
      010042CFH   BLOCK     CODE     NEAR LAB  LVL=1
      0200A5C5H   SYMBOL    XDATA    BYTE      Flag
      ---         BLOCKEND  ---      ---       LVL=1
      010042C9H   LINE      CODE     ---       #624
      010042CFH   LINE      CODE     ---       #625
      010042CFH   LINE      CODE     ---       #626
      010042D4H   LINE      CODE     ---       #628
      010042D4H   LINE      CODE     ---       #629
      010042F3H   LINE      CODE     ---       #630
      010042F3H   LINE      CODE     ---       #631
      010042FBH   LINE      CODE     ---       #632
      ---         BLOCKEND  ---      ---       LVL=0

      010033A4H   BLOCK     CODE     VOID      LVL=0
      ---         BLOCKEND  ---      ---       LVL=0

      010033B2H   BLOCK     CODE     ---       LVL=0
      0200A5B1H   SYMBOL    XDATA    ---       pBuf
      00000005H   SYMBOL    DATA     BYTE      Flag_EN
      0200A5B5H   SYMBOL    XDATA    BYTE      UpSpace
      0200A5B6H   SYMBOL    XDATA    DWORD     UpAddr
      0200A5BAH   SYMBOL    XDATA    WORD      FileSize
      010033B2H   LINE      CODE     ---       #648
      010033BDH   LINE      CODE     ---       #649
      010033BDH   LINE      CODE     ---       #650
      010033D1H   LINE      CODE     ---       #651
      010033EAH   LINE      CODE     ---       #652
      01003411H   LINE      CODE     ---       #653
      01003438H   LINE      CODE     ---       #654
      0100345FH   LINE      CODE     ---       #655
LX51 LINKER/LOCATER V4.66.93.0                                                        07/09/2019  16:24:51  PAGE 49


      0100347BH   LINE      CODE     ---       #656
      01003494H   LINE      CODE     ---       #657
      010034AEH   LINE      CODE     ---       #658
      010034C2H   LINE      CODE     ---       #659
      ---         BLOCKEND  ---      ---       LVL=0

      01003C06H   BLOCK     CODE     ---       LVL=0
      0200A5B1H   SYMBOL    XDATA    DWORD     AddrDgusHead
      0200A5B5H   SYMBOL    XDATA    DWORD     AddrDgusMesg
      0200A5B9H   SYMBOL    XDATA    ---       BufHead
      0200A5BCH   SYMBOL    XDATA    ---       BufMesg
      0200A5BFH   SYMBOL    XDATA    WORD      MesgSize
      01003C06H   LINE      CODE     ---       #676
      01003C0CH   LINE      CODE     ---       #677
      01003C0CH   LINE      CODE     ---       #678
      01003C0FH   LINE      CODE     ---       #679
      01003C34H   LINE      CODE     ---       #680
      01003C5DH   LINE      CODE     ---       #681
      01003C6FH   LINE      CODE     ---       #682
      01003C6FH   LINE      CODE     ---       #683
      01003C74H   LINE      CODE     ---       #684
      01003C77H   LINE      CODE     ---       #685
      01003C9CH   LINE      CODE     ---       #686
      01003C9CH   LINE      CODE     ---       #687
      ---         BLOCKEND  ---      ---       LVL=0

      0100118FH   BLOCK     CODE     ---       LVL=0
      0200938CH   SYMBOL    XDATA    ---       pPath
      0200938FH   SYMBOL    XDATA    BYTE      UpSpace
      02009390H   SYMBOL    XDATA    DWORD     AddrDgusPck
      02009394H   SYMBOL    XDATA    DWORD     AddrFileSave
      02009398H   SYMBOL    XDATA    DWORD     FileSize
      0100119DH   BLOCK     CODE     NEAR LAB  LVL=1
      0200939CH   SYMBOL    XDATA    ---       BufHead
      0200959CH   SYMBOL    XDATA    ---       BufMesg
      0200A59CH   SYMBOL    XDATA    BYTE      Count
      0200A59DH   SYMBOL    XDATA    WORD      PackSize
      0200A59FH   SYMBOL    XDATA    WORD      FirstPackSize
      0200A5A1H   SYMBOL    XDATA    DWORD     SectorOffset
      0200A5A5H   SYMBOL    XDATA    DWORD     FirstAddrFileSave
      0200A5A9H   SYMBOL    XDATA    DWORD     AddrDgusPackHead
      0200A5ADH   SYMBOL    XDATA    DWORD     AddrDgusPackMesg
      ---         BLOCKEND  ---      ---       LVL=1
      0100118FH   LINE      CODE     ---       #703
      0100119DH   LINE      CODE     ---       #704
      0100119DH   LINE      CODE     ---       #707
      010011A2H   LINE      CODE     ---       #708
      010011AAH   LINE      CODE     ---       #709
      010011BCH   LINE      CODE     ---       #710
      010011D0H   LINE      CODE     ---       #711
      010011DFH   LINE      CODE     ---       #712
      010011EEH   LINE      CODE     ---       #713
      01001202H   LINE      CODE     ---       #714
      01001222H   LINE      CODE     ---       #715
      01001247H   LINE      CODE     ---       #717
      01001247H   LINE      CODE     ---       #718
      01001258H   LINE      CODE     ---       #719
      01001262H   LINE      CODE     ---       #720
      01001262H   LINE      CODE     ---       #721
      01001276H   LINE      CODE     ---       #723
      0100128DH   LINE      CODE     ---       #724
      0100128DH   LINE      CODE     ---       #725
      010012A7H   LINE      CODE     ---       #726
      010012A7H   LINE      CODE     ---       #727
      010012B0H   LINE      CODE     ---       #728
LX51 LINKER/LOCATER V4.66.93.0                                                        07/09/2019  16:24:51  PAGE 50


      010012D2H   LINE      CODE     ---       #729
      010012D4H   LINE      CODE     ---       #731
      010012D4H   LINE      CODE     ---       #732
      010012E5H   LINE      CODE     ---       #733
      010012EFH   LINE      CODE     ---       #734
      010012EFH   LINE      CODE     ---       #735
      01001317H   LINE      CODE     ---       #736
      0100134BH   LINE      CODE     ---       #737
      01001351H   LINE      CODE     ---       #738
      01001351H   LINE      CODE     ---       #739
      0100135EH   LINE      CODE     ---       #740
      01001364H   LINE      CODE     ---       #741
      01001364H   LINE      CODE     ---       #742
      010013B2H   LINE      CODE     ---       #743
      010013C1H   LINE      CODE     ---       #744
      010013E1H   LINE      CODE     ---       #745
      01001400H   LINE      CODE     ---       #746
      01001403H   LINE      CODE     ---       #747
      0100142BH   LINE      CODE     ---       #748
      01001453H   LINE      CODE     ---       #749
      ---         BLOCKEND  ---      ---       LVL=0

      01002CD8H   BLOCK     CODE     ---       LVL=0
      0200902EH   SYMBOL    XDATA    BYTE      FileType
      0200902FH   SYMBOL    XDATA    WORD      FileNumber
      01002CE3H   BLOCK     CODE     NEAR LAB  LVL=1
      02009031H   SYMBOL    XDATA    ---       String
      02009049H   SYMBOL    XDATA    ---       FilePath
      0200905FH   SYMBOL    XDATA    ---       FileList
      0200937FH   SYMBOL    XDATA    BYTE      UpSpace
      00000007H   SYMBOL    DATA     BYTE      Status
      02009380H   SYMBOL    XDATA    DWORD     AddrFile
      02009384H   SYMBOL    XDATA    DWORD     FileSize
      02009388H   SYMBOL    XDATA    DWORD     AddrDgusPack
      ---         BLOCKEND  ---      ---       LVL=1
      01002CD8H   LINE      CODE     ---       #764
      01002CE3H   LINE      CODE     ---       #765
      01002CE3H   LINE      CODE     ---       #769
      01002CE9H   LINE      CODE     ---       #770
      01002D05H   LINE      CODE     ---       #771
      01002D14H   LINE      CODE     ---       #772
      01002D23H   LINE      CODE     ---       #773
      01002D32H   LINE      CODE     ---       #775
      01002D4BH   LINE      CODE     ---       #776
      01002D5BH   LINE      CODE     ---       #778
      01002D89H   LINE      CODE     ---       #780
      01002D92H   LINE      CODE     ---       #782
      01002DC1H   LINE      CODE     ---       #783
      01002DC7H   LINE      CODE     ---       #784
      01002DE3H   LINE      CODE     ---       #786
      01002DECH   LINE      CODE     ---       #787
      01002DF5H   LINE      CODE     ---       #790
      01002E3FH   LINE      CODE     ---       #791
      01002E41H   LINE      CODE     ---       #792
      ---         BLOCKEND  ---      ---       LVL=0

      01002FABH   BLOCK     CODE     ---       LVL=0
      020090BEH   SYMBOL    XDATA    ---       pFilePath
      020090C1H   SYMBOL    XDATA    ---       pBuf
      01002FB6H   BLOCK     CODE     NEAR LAB  LVL=1
      020090C4H   SYMBOL    XDATA    BYTE      Status
      020090C5H   SYMBOL    XDATA    ---       pDir
      020090C8H   SYMBOL    XDATA    ---       FatDir
      020090E8H   SYMBOL    XDATA    ---       pFatDir
      ---         BLOCKEND  ---      ---       LVL=1
LX51 LINKER/LOCATER V4.66.93.0                                                        07/09/2019  16:24:51  PAGE 51


      01002FABH   LINE      CODE     ---       #806
      01002FB6H   LINE      CODE     ---       #807
      01002FB6H   LINE      CODE     ---       #808
      01002FBBH   LINE      CODE     ---       #809
      01002FC4H   LINE      CODE     ---       #811
      01002FD2H   LINE      CODE     ---       #813
      01002FE0H   LINE      CODE     ---       #814
      01002FEEH   LINE      CODE     ---       #815
      0100300FH   LINE      CODE     ---       #816
      01003024H   LINE      CODE     ---       #818
      01003045H   LINE      CODE     ---       #819
      0100306CH   LINE      CODE     ---       #820
      01003093H   LINE      CODE     ---       #821
      010030BAH   LINE      CODE     ---       #822
      010030E1H   LINE      CODE     ---       #823
      01003103H   LINE      CODE     ---       #824
      01003108H   LINE      CODE     ---       #825
      ---         BLOCKEND  ---      ---       LVL=0

      0100325FH   BLOCK     CODE     ---       LVL=0
      020090BEH   SYMBOL    XDATA    ---       pFilePath
      020090C1H   SYMBOL    XDATA    ---       pBuf
      0100326AH   BLOCK     CODE     NEAR LAB  LVL=1
      00000007H   SYMBOL    DATA     BYTE      Status
      020090C4H   SYMBOL    XDATA    ---       pDir
      020090C7H   SYMBOL    XDATA    ---       FatDir
      020090E7H   SYMBOL    XDATA    ---       pFatDir
      ---         BLOCKEND  ---      ---       LVL=1
      0100325FH   LINE      CODE     ---       #839
      0100326AH   LINE      CODE     ---       #840
      0100326AH   LINE      CODE     ---       #841
      0100326BH   LINE      CODE     ---       #842
      01003276H   LINE      CODE     ---       #844
      01003284H   LINE      CODE     ---       #846
      01003292H   LINE      CODE     ---       #847
      010032A0H   LINE      CODE     ---       #848
      010032B4H   LINE      CODE     ---       #849
      010032CAH   LINE      CODE     ---       #850
      010032F1H   LINE      CODE     ---       #851
      01003318H   LINE      CODE     ---       #852
      0100333FH   LINE      CODE     ---       #853
      01003366H   LINE      CODE     ---       #854
      01003388H   LINE      CODE     ---       #855
      ---         BLOCKEND  ---      ---       LVL=0

      ---         MODULE    ---      ---       FILE_SYS
      0200B5E9H   PUBLIC    XDATA    ---       GlobalBuf
      020090EAH   PUBLIC    XDATA    BYTE      ?_CH376SetFileMessage?BYTE
      01001C41H   PUBLIC    CODE     ---       _CH376SetFileMessage
      020090EBH   PUBLIC    XDATA    BYTE      ?_CH376GetFileMessage?BYTE
      0100209FH   PUBLIC    CODE     ---       _CH376GetFileMessage
      020093F2H   PUBLIC    XDATA    BYTE      ?_CH376MatchFile?BYTE
      01002B5BH   PUBLIC    CODE     ---       _CH376MatchFile
      010041A6H   PUBLIC    CODE     ---       _CH376ReadBlock
      010041EEH   PUBLIC    CODE     ---       _CH376WriteHostBlock
      0200B2E8H   PUBLIC    XDATA    BYTE      ?_CH376DiskReadSec?BYTE
      010036EEH   PUBLIC    CODE     ---       _CH376DiskReadSec
      0200B2E8H   PUBLIC    XDATA    BYTE      ?_CH376DiskWriteSec?BYTE
      010035EAH   PUBLIC    CODE     ---       _CH376DiskWriteSec
      010042FCH   PUBLIC    CODE     ---       _CH376SecLocate
      0200B2DBH   PUBLIC    XDATA    BYTE      ?_CH376SectorRead?BYTE
      010039C2H   PUBLIC    CODE     ---       _CH376SectorRead
      0200B2DBH   PUBLIC    XDATA    BYTE      ?_CH376SectorWrite?BYTE
      010038F0H   PUBLIC    CODE     ---       _CH376SectorWrite
      01004683H   PUBLIC    CODE     ---       CH376GetFileSize
LX51 LINKER/LOCATER V4.66.93.0                                                        07/09/2019  16:24:51  PAGE 52


      0100467EH   PUBLIC    CODE     ---       CH376DiskMount
      01004679H   PUBLIC    CODE     ---       CH376DiskReqSense
      01004674H   PUBLIC    CODE     ---       CH376DiskConnect
      01004479H   PUBLIC    CODE     ---       CH376GetIntStatus
      0100466EH   PUBLIC    CODE     ---       _CH376SendCmdWaitInt
      01004667H   PUBLIC    CODE     ---       CH376EndDirInfo
      01003E30H   PUBLIC    CODE     ---       CH376Read32bitDat
      010045C9H   PUBLIC    CODE     ---       _CH376ReadVar32
      0200B5E2H   PUBLIC    XDATA    BYTE      ?_CH376WriteVar32?BYTE
      01004148H   PUBLIC    CODE     ---       _CH376WriteVar32
      0100454EH   PUBLIC    CODE     ---       _CH376WriteVar8
      010045B4H   PUBLIC    CODE     ---       _CH376CloseFile
      0100465FH   PUBLIC    CODE     ---       _CH376FileCreate
      01004642H   PUBLIC    CODE     ---       _CH376FileOpenPath
      01003FA4H   PUBLIC    CODE     ---       _CH376FileDeletePath
      0100459DH   PUBLIC    CODE     ---       _CH376DirCreate
      01003B5EH   PUBLIC    CODE     ---       _CH376FileOpenDir
      01004657H   PUBLIC    CODE     ---       _CH376FileOpen
      0100464FH   PUBLIC    CODE     ---       _CH376DeleteFile
      01004647H   PUBLIC    CODE     ---       CH376Error
      0100407FH   PUBLIC    CODE     ---       _CH376SetFileName
      01000003H   PUBLIC    CODE     ---       Query376Interrupt
      010044A3H   PUBLIC    CODE     ---       Wait376Interrupt
      010044F1H   PUBLIC    CODE     ---       _AlphabetTransfrom
      000000F1H   SFRSYM    DATA     BYTE      ADR_H
      00000080H   SFRSYM    DATA     BYTE      P0
      00000090H   SFRSYM    DATA     BYTE      P1
      000000A0H   SFRSYM    DATA     BYTE      P2
      000000B0H   SFRSYM    DATA     BYTE      P3
      000000F3H   SFRSYM    DATA     BYTE      ADR_L
      000000D0H.6 SFRSYM    DATA     BIT       AC
      00000094H   SFRSYM    DATA     BYTE      PAGESEL
      000000F2H   SFRSYM    DATA     BYTE      ADR_M
      000000A8H.7 SFRSYM    DATA     BIT       EA
      000000F8H   SFRSYM    DATA     BYTE      RAMMODE
      000000B7H   SFRSYM    DATA     BYTE      P0MDOUT
      000000BCH   SFRSYM    DATA     BYTE      P1MDOUT
      000000A8H   SFRSYM    DATA     BYTE      IEN0
      000000BDH   SFRSYM    DATA     BYTE      P2MDOUT
      000000B8H   SFRSYM    DATA     BYTE      IEN1
      000000BEH   SFRSYM    DATA     BYTE      P3MDOUT
      0000009AH   SFRSYM    DATA     BYTE      IEN2
      000000D1H   SFRSYM    DATA     BYTE      IEN3
      00000090H.4 SFRSYM    DATA     BIT       CH376_INT_WIRE
      000000F8H.4 SFRSYM    DATA     BIT       APP_ACK
      000000F4H   SFRSYM    DATA     BYTE      ADR_INC
      000000B8H.1 SFRSYM    DATA     BIT       ECAN
      000000D0H.7 SFRSYM    DATA     BIT       CY
      000000B8H.3 SFRSYM    DATA     BIT       ES2R
      000000B8H.5 SFRSYM    DATA     BIT       ES3R
      000000B8H.2 SFRSYM    DATA     BIT       ES2T
      000000B8H.4 SFRSYM    DATA     BIT       ES3T
      00000090H.3 SFRSYM    DATA     BIT       CH376_RD
      00000090H.1 SFRSYM    DATA     BIT       CH376_CS
      00000081H   SFRSYM    DATA     BYTE      SP
      000000D0H.2 SFRSYM    DATA     BIT       OV
      00000095H   SFRSYM    DATA     BYTE      D_PAGESEL
      000000F8H.7 SFRSYM    DATA     BIT       APP_REQ
      000000BFH   SFRSYM    DATA     BYTE      IRCON2
      000000BAH   SFRSYM    DATA     BYTE      SREL0H
      000000BBH   SFRSYM    DATA     BYTE      SREL1H
      00000087H   SFRSYM    DATA     BYTE      PCON
      000000F9H   SFRSYM    DATA     BYTE      PORTDRV
      000000AAH   SFRSYM    DATA     BYTE      SREL0L
      0000009DH   SFRSYM    DATA     BYTE      SREL1L
LX51 LINKER/LOCATER V4.66.93.0                                                        07/09/2019  16:24:51  PAGE 53


      00000089H   SFRSYM    DATA     BYTE      TMOD
      00000088H   SFRSYM    DATA     BYTE      TCON
      00000090H.2 SFRSYM    DATA     BIT       CH376_WR
      000000FFH   SFRSYM    DATA     BYTE      EXDATA
      00000097H   SFRSYM    DATA     BYTE      SCON2R
      000000ABH   SFRSYM    DATA     BYTE      SCON3R
      000000D9H   SFRSYM    DATA     BYTE      BODE2_DIV_H
      000000AEH   SFRSYM    DATA     BYTE      BODE3_DIV_H
      00000096H   SFRSYM    DATA     BYTE      SCON2T
      000000A7H   SFRSYM    DATA     BYTE      SCON3T
      000000E7H   SFRSYM    DATA     BYTE      BODE2_DIV_L
      00000088H.1 SFRSYM    DATA     BIT       IE0
      000000AFH   SFRSYM    DATA     BYTE      BODE3_DIV_L
      00000088H.3 SFRSYM    DATA     BIT       IE1
      000000C9H   SFRSYM    DATA     BYTE      MUX_SEL
      000000F0H   SFRSYM    DATA     BYTE      B
      000000E0H   SFRSYM    DATA     BYTE      ACC
      0000008FH   SFRSYM    DATA     BYTE      CAN_CR
      000000A8H.4 SFRSYM    DATA     BIT       ES0
      000000A9H   SFRSYM    DATA     BYTE      IP0
      000000A8H.1 SFRSYM    DATA     BIT       ET0
      000000B9H   SFRSYM    DATA     BYTE      IP1
      000000A8H.3 SFRSYM    DATA     BIT       ET1
      00000088H.5 SFRSYM    DATA     BIT       TF0
      000000FDH   SFRSYM    DATA     BYTE      DATA0
      000000A8H.5 SFRSYM    DATA     BIT       ET2
      00000098H.0 SFRSYM    DATA     BIT       RI0
      00000088H.7 SFRSYM    DATA     BIT       TF1
      000000E8H   SFRSYM    DATA     BYTE      CAN_ET
      000000FCH   SFRSYM    DATA     BYTE      DATA1
      000000C0H.6 SFRSYM    DATA     BIT       TF2
      0000008CH   SFRSYM    DATA     BYTE      TH0
      000000FBH   SFRSYM    DATA     BYTE      DATA2
      000000A8H.0 SFRSYM    DATA     BIT       EX0
      00000098H.1 SFRSYM    DATA     BIT       TI0
      0000008DH   SFRSYM    DATA     BYTE      TH1
      00000088H.0 SFRSYM    DATA     BIT       IT0
      00000091H   SFRSYM    DATA     BYTE      CAN_IR
      000000FAH   SFRSYM    DATA     BYTE      DATA3
      000000CDH   SFRSYM    DATA     BYTE      TH2
      000000A8H.2 SFRSYM    DATA     BIT       EX1
      00000088H.2 SFRSYM    DATA     BIT       IT1
      000000D0H.0 SFRSYM    DATA     BIT       P
      0000008AH   SFRSYM    DATA     BYTE      TL0
      0000008BH   SFRSYM    DATA     BYTE      TL1
      000000CCH   SFRSYM    DATA     BYTE      TL2
      000000F8H.6 SFRSYM    DATA     BIT       APP_EN
      000000D0H.3 SFRSYM    DATA     BIT       RS0
      000000D0H.4 SFRSYM    DATA     BIT       RS1
      00000088H.4 SFRSYM    DATA     BIT       TR0
      00000093H   SFRSYM    DATA     BYTE      DPC
      00000088H.6 SFRSYM    DATA     BIT       TR1
      000000E5H   SFRSYM    DATA     BYTE      MAC_MODE
      000000C8H.0 SFRSYM    DATA     BIT       TR2
      00000083H   SFRSYM    DATA     BYTE      DPH
      00000082H   SFRSYM    DATA     BYTE      DPL
      00000099H   SFRSYM    DATA     BYTE      SBUF0
      0000009CH   SFRSYM    DATA     BYTE      SBUF1
      00000098H   SFRSYM    DATA     BYTE      SCON0
      0000009BH   SFRSYM    DATA     BYTE      SCON1
      000000D8H   SFRSYM    DATA     BYTE      ADCON
      000000C8H   SFRSYM    DATA     BYTE      T2CON
      000000E6H   SFRSYM    DATA     BYTE      DIV_MODE
      000000F8H.5 SFRSYM    DATA     BIT       APP_RW
      000000CBH   SFRSYM    DATA     BYTE      TRL2H
LX51 LINKER/LOCATER V4.66.93.0                                                        07/09/2019  16:24:51  PAGE 54


      0000009FH   SFRSYM    DATA     BYTE      SBUF2_RX
      000000ADH   SFRSYM    DATA     BYTE      SBUF3_RX
      0000008EH   SFRSYM    DATA     BYTE      CKCON
      0000009EH   SFRSYM    DATA     BYTE      SBUF2_TX
      000000ACH   SFRSYM    DATA     BYTE      SBUF3_TX
      000000CAH   SFRSYM    DATA     BYTE      TRL2L
      000000FEH   SFRSYM    DATA     BYTE      EXADR
      000000D0H.5 SFRSYM    DATA     BIT       F0
      000000D0H.1 SFRSYM    DATA     BIT       F1
      000000D0H   SFRSYM    DATA     BYTE      PSW
      000000C0H   SFRSYM    DATA     BYTE      IRCON
      00000090H.0 SFRSYM    DATA     BIT       CH376_A0

      010044F1H   BLOCK     CODE     ---       LVL=0
      00000001H   SYMBOL    DATA     ---       name
      010044F1H   BLOCK     CODE     NEAR LAB  LVL=1
      00000001H   SYMBOL    DATA     ---       c
      ---         BLOCKEND  ---      ---       LVL=1
      010044F1H   LINE      CODE     ---       #52
      010044F1H   LINE      CODE     ---       #53
      010044F1H   LINE      CODE     ---       #55
      010044F6H   LINE      CODE     ---       #56
      010044F6H   LINE      CODE     ---       #57
      01004508H   LINE      CODE     ---       #58
      01004511H   LINE      CODE     ---       #59
      ---         BLOCKEND  ---      ---       LVL=0

      010044A3H   BLOCK     CODE     ---       LVL=0
      010044A3H   BLOCK     CODE     NEAR LAB  LVL=1
      0200B5E3H   SYMBOL    XDATA    DWORD     i
      ---         BLOCKEND  ---      ---       LVL=1
      010044A3H   LINE      CODE     ---       #61
      010044A3H   LINE      CODE     ---       #62
      010044A3H   LINE      CODE     ---       #63
      010044ADH   LINE      CODE     ---       #64
      010044B3H   LINE      CODE     ---       #65
      010044B3H   LINE      CODE     ---       #66
      010044C7H   LINE      CODE     ---       #67
      010044C7H   LINE      CODE     ---       #68
      ---         BLOCKEND  ---      ---       LVL=0

      01000003H   BLOCK     CODE     ---       LVL=0
      01000003H   LINE      CODE     ---       #71
      01000003H   LINE      CODE     ---       #72
      01000003H   LINE      CODE     ---       #73
      0100000AH   LINE      CODE     ---       #74
      ---         BLOCKEND  ---      ---       LVL=0

      01004077H   BLOCK     CODE     VOID      LVL=0
      ---         BLOCKEND  ---      ---       LVL=0

      0100407FH   BLOCK     CODE     ---       LVL=0
      0200B5E2H   SYMBOL    XDATA    ---       name
      0200B5E5H   SYMBOL    XDATA    BYTE      c
      0100408AH   BLOCK     CODE     NEAR LAB  LVL=1
      0200B5E5H   SYMBOL    XDATA    BYTE      c
      ---         BLOCKEND  ---      ---       LVL=1
      0100407FH   LINE      CODE     ---       #76
      0100408AH   LINE      CODE     ---       #77
      0100408AH   LINE      CODE     ---       #79
      0100408FH   LINE      CODE     ---       #80
      010040A2H   LINE      CODE     ---       #81
      010040A4H   LINE      CODE     ---       #82
      010040AAH   LINE      CODE     ---       #83
      010040AAH   LINE      CODE     ---       #84
LX51 LINKER/LOCATER V4.66.93.0                                                        07/09/2019  16:24:51  PAGE 55


      010040B4H   LINE      CODE     ---       #85
      010040C7H   LINE      CODE     ---       #86
      010040D5H   LINE      CODE     ---       #87
      010040DDH   LINE      CODE     ---       #88
      010040DFH   LINE      CODE     ---       #89
      ---         BLOCKEND  ---      ---       LVL=0

      01004647H   BLOCK     CODE     ---       LVL=0
      01004647H   LINE      CODE     ---       #91
      01004647H   LINE      CODE     ---       #92
      01004647H   LINE      CODE     ---       #93
      0100464CH   LINE      CODE     ---       #94
      0100464EH   LINE      CODE     ---       #95
      ---         BLOCKEND  ---      ---       LVL=0

      0100464FH   BLOCK     CODE     ---       LVL=0
      00000001H   SYMBOL    DATA     ---       pName
      0100464FH   LINE      CODE     ---       #97
      0100464FH   LINE      CODE     ---       #98
      0100464FH   LINE      CODE     ---       #99
      01004652H   LINE      CODE     ---       #100
      ---         BLOCKEND  ---      ---       LVL=0

      01004657H   BLOCK     CODE     ---       LVL=0
      00000001H   SYMBOL    DATA     ---       name
      01004657H   LINE      CODE     ---       #103
      01004657H   LINE      CODE     ---       #104
      01004657H   LINE      CODE     ---       #105
      0100465AH   LINE      CODE     ---       #106
      ---         BLOCKEND  ---      ---       LVL=0

      01003B53H   BLOCK     CODE     VOID      LVL=0
      ---         BLOCKEND  ---      ---       LVL=0

      01003B5EH   BLOCK     CODE     ---       LVL=0
      0200B2DBH   SYMBOL    XDATA    ---       PathName
      0200B2DEH   SYMBOL    XDATA    BYTE      StopName
      0200B2DFH   SYMBOL    XDATA    BYTE      i
      00000007H   SYMBOL    DATA     BYTE      s
      01003B6CH   BLOCK     CODE     NEAR LAB  LVL=1
      0200B2DFH   SYMBOL    XDATA    BYTE      i
      00000007H   SYMBOL    DATA     BYTE      s
      ---         BLOCKEND  ---      ---       LVL=1
      01003B5EH   LINE      CODE     ---       #119
      01003B6CH   LINE      CODE     ---       #121
      01003B6CH   LINE      CODE     ---       #123
      01003B6EH   LINE      CODE     ---       #124
      01003B71H   LINE      CODE     ---       #125
      01003B71H   LINE      CODE     ---       #126
      01003B71H   LINE      CODE     ---       #127
      01003B9DH   LINE      CODE     ---       #128
      01003BBEH   LINE      CODE     ---       #129
      01003BC3H   LINE      CODE     ---       #130
      01003BD7H   LINE      CODE     ---       #131
      01003BE7H   LINE      CODE     ---       #132
      01003BE7H   LINE      CODE     ---       #133
      01003BEDH   LINE      CODE     ---       #134
      01003BEDH   LINE      CODE     ---       #135
      01003BF5H   LINE      CODE     ---       #136
      01003BFDH   LINE      CODE     ---       #138
      01003BFDH   LINE      CODE     ---       #139
      01003C02H   LINE      CODE     ---       #140
      01003C05H   LINE      CODE     ---       #141
      01003C05H   LINE      CODE     ---       #142
      01003C05H   LINE      CODE     ---       #143
LX51 LINKER/LOCATER V4.66.93.0                                                        07/09/2019  16:24:51  PAGE 56


      ---         BLOCKEND  ---      ---       LVL=0

      0100459DH   BLOCK     CODE     ---       LVL=0
      00000001H   SYMBOL    DATA     ---       PathName
      0100459DH   LINE      CODE     ---       #145
      0100459DH   LINE      CODE     ---       #146
      0100459DH   LINE      CODE     ---       #147
      010045A0H   LINE      CODE     ---       #148
      010045AFH   LINE      CODE     ---       #149
      ---         BLOCKEND  ---      ---       LVL=0

      01003FA4H   BLOCK     CODE     ---       LVL=0
      020090B2H   SYMBOL    XDATA    ---       PathName
      01003FAFH   BLOCK     CODE     NEAR LAB  LVL=1
      00000007H   SYMBOL    DATA     BYTE      s
      ---         BLOCKEND  ---      ---       LVL=1
      01003FA4H   LINE      CODE     ---       #152
      01003FAFH   LINE      CODE     ---       #153
      01003FAFH   LINE      CODE     ---       #155
      01003FB3H   LINE      CODE     ---       #156
      01003FB3H   LINE      CODE     ---       #157
      01003FD8H   LINE      CODE     ---       #158
      01003FEDH   LINE      CODE     ---       #159
      01003FEDH   LINE      CODE     ---       #160
      01003FF6H   LINE      CODE     ---       #161
      01004002H   LINE      CODE     ---       #162
      01004002H   LINE      CODE     ---       #163
      01004008H   LINE      CODE     ---       #164
      01004008H   LINE      CODE     ---       #165
      0100400DH   LINE      CODE     ---       #166
      ---         BLOCKEND  ---      ---       LVL=0

      0100463AH   BLOCK     CODE     VOID      LVL=0
      ---         BLOCKEND  ---      ---       LVL=0

      01004642H   BLOCK     CODE     ---       LVL=0
      00000001H   SYMBOL    DATA     ---       PathName
      01004642H   LINE      CODE     ---       #168
      01004642H   LINE      CODE     ---       #169
      01004642H   LINE      CODE     ---       #170
      ---         BLOCKEND  ---      ---       LVL=0

      0100465FH   BLOCK     CODE     ---       LVL=0
      00000001H   SYMBOL    DATA     ---       PathName
      0100465FH   LINE      CODE     ---       #173
      0100465FH   LINE      CODE     ---       #174
      0100465FH   LINE      CODE     ---       #175
      01004662H   LINE      CODE     ---       #176
      ---         BLOCKEND  ---      ---       LVL=0
      00000007H   SYMBOL    DATA     BYTE      s

      010045B4H   BLOCK     CODE     ---       LVL=0
      0200B5E2H   SYMBOL    XDATA    BYTE      param
      010045B4H   LINE      CODE     ---       #197
      010045B9H   LINE      CODE     ---       #198
      010045B9H   LINE      CODE     ---       #199
      010045BEH   LINE      CODE     ---       #200
      010045C6H   LINE      CODE     ---       #201
      ---         BLOCKEND  ---      ---       LVL=0

      0100454EH   BLOCK     CODE     ---       LVL=0
      02009443H   SYMBOL    XDATA    BYTE      var
      02009444H   SYMBOL    XDATA    BYTE      dat
      0100454EH   LINE      CODE     ---       #204
      01004556H   LINE      CODE     ---       #205
LX51 LINKER/LOCATER V4.66.93.0                                                        07/09/2019  16:24:51  PAGE 57


      01004556H   LINE      CODE     ---       #206
      0100455BH   LINE      CODE     ---       #207
      01004563H   LINE      CODE     ---       #208
      ---         BLOCKEND  ---      ---       LVL=0
      00000007H   SYMBOL    DATA     BYTE      c0

      01004148H   BLOCK     CODE     ---       LVL=0
      0200B5E2H   SYMBOL    XDATA    BYTE      var
      0200B5E3H   SYMBOL    XDATA    DWORD     dat
      01004148H   LINE      CODE     ---       #220
      0100414DH   LINE      CODE     ---       #221
      0100414DH   LINE      CODE     ---       #222
      01004152H   LINE      CODE     ---       #223
      0100415AH   LINE      CODE     ---       #224
      01004165H   LINE      CODE     ---       #225
      01004172H   LINE      CODE     ---       #226
      01004188H   LINE      CODE     ---       #227
      ---         BLOCKEND  ---      ---       LVL=0

      010045C9H   BLOCK     CODE     ---       LVL=0
      0200B2DBH   SYMBOL    XDATA    BYTE      var
      010045C9H   LINE      CODE     ---       #230
      010045CEH   LINE      CODE     ---       #231
      010045CEH   LINE      CODE     ---       #232
      010045D3H   LINE      CODE     ---       #233
      010045DBH   LINE      CODE     ---       #234
      ---         BLOCKEND  ---      ---       LVL=0

      01003E30H   BLOCK     CODE     ---       LVL=0
      01003E30H   BLOCK     CODE     NEAR LAB  LVL=1
      0200B2E8H   SYMBOL    XDATA    BYTE      c0
      0200B2E9H   SYMBOL    XDATA    BYTE      c1
      0200B2EAH   SYMBOL    XDATA    BYTE      c2
      0200B2EBH   SYMBOL    XDATA    BYTE      c3
      ---         BLOCKEND  ---      ---       LVL=1
      01003E30H   LINE      CODE     ---       #237
      01003E30H   LINE      CODE     ---       #238
      01003E30H   LINE      CODE     ---       #240
      01003E38H   LINE      CODE     ---       #241
      01003E40H   LINE      CODE     ---       #242
      01003E48H   LINE      CODE     ---       #243
      01003E50H   LINE      CODE     ---       #244
      01003EAFH   LINE      CODE     ---       #245
      ---         BLOCKEND  ---      ---       LVL=0

      01004667H   BLOCK     CODE     ---       LVL=0
      01004667H   LINE      CODE     ---       #255
      01004667H   LINE      CODE     ---       #256
      01004667H   LINE      CODE     ---       #257
      ---         BLOCKEND  ---      ---       LVL=0

      0100466EH   BLOCK     CODE     ---       LVL=0
      00000007H   SYMBOL    DATA     BYTE      mCmd
      0100466EH   LINE      CODE     ---       #260
      0100466EH   LINE      CODE     ---       #261
      0100466EH   LINE      CODE     ---       #262
      01004671H   LINE      CODE     ---       #263
      ---         BLOCKEND  ---      ---       LVL=0

      01004479H   BLOCK     CODE     ---       LVL=0
      01004479H   BLOCK     CODE     NEAR LAB  LVL=1
      0200B5E7H   SYMBOL    XDATA    BYTE      i
      0200B5E8H   SYMBOL    XDATA    BYTE      Data
      ---         BLOCKEND  ---      ---       LVL=1
      01004479H   LINE      CODE     ---       #266
LX51 LINKER/LOCATER V4.66.93.0                                                        07/09/2019  16:24:51  PAGE 58


      01004479H   LINE      CODE     ---       #267
      01004479H   LINE      CODE     ---       #269
      0100447EH   LINE      CODE     ---       #270
      0100448AH   LINE      CODE     ---       #271
      0100448AH   LINE      CODE     ---       #272
      01004492H   LINE      CODE     ---       #273
      01004495H   LINE      CODE     ---       #274
      0100449DH   LINE      CODE     ---       #275
      010044A2H   LINE      CODE     ---       #276
      ---         BLOCKEND  ---      ---       LVL=0

      01004674H   BLOCK     CODE     ---       LVL=0
      01004674H   LINE      CODE     ---       #278
      01004674H   LINE      CODE     ---       #279
      01004674H   LINE      CODE     ---       #280
      ---         BLOCKEND  ---      ---       LVL=0

      01004679H   BLOCK     CODE     ---       LVL=0
      01004679H   BLOCK     CODE     NEAR LAB  LVL=1
      00000007H   SYMBOL    DATA     BYTE      s
      ---         BLOCKEND  ---      ---       LVL=1
      01004679H   LINE      CODE     ---       #283
      01004679H   LINE      CODE     ---       #284
      01004679H   LINE      CODE     ---       #286
      ---         BLOCKEND  ---      ---       LVL=0

      0100467EH   BLOCK     CODE     ---       LVL=0
      0100467EH   LINE      CODE     ---       #290
      0100467EH   LINE      CODE     ---       #291
      0100467EH   LINE      CODE     ---       #292
      ---         BLOCKEND  ---      ---       LVL=0

      01004683H   BLOCK     CODE     ---       LVL=0
      01004683H   LINE      CODE     ---       #300
      01004683H   LINE      CODE     ---       #301
      01004683H   LINE      CODE     ---       #302
      ---         BLOCKEND  ---      ---       LVL=0

      010038F0H   BLOCK     CODE     ---       LVL=0
      0200B2DBH   SYMBOL    XDATA    ---       buf
      0200B2DEH   SYMBOL    XDATA    BYTE      ReqCount
      0200B2DFH   SYMBOL    XDATA    ---       RealCount
      010038FEH   BLOCK     CODE     NEAR LAB  LVL=1
      0200B2E2H   SYMBOL    XDATA    BYTE      s
      0200B2E3H   SYMBOL    XDATA    BYTE      cnt
      0200B2E4H   SYMBOL    XDATA    DWORD     StaSec
      ---         BLOCKEND  ---      ---       LVL=1
      010038F0H   LINE      CODE     ---       #305
      010038FEH   LINE      CODE     ---       #307
      010038FEH   LINE      CODE     ---       #311
      01003910H   LINE      CODE     ---       #313
      01003910H   LINE      CODE     ---       #314
      01003915H   LINE      CODE     ---       #315
      0100391DH   LINE      CODE     ---       #316
      01003925H   LINE      CODE     ---       #317
      0100392CH   LINE      CODE     ---       #318
      01003931H   LINE      CODE     ---       #319
      01003934H   LINE      CODE     ---       #320
      0100393CH   LINE      CODE     ---       #321
      0100393FH   LINE      CODE     ---       #322
      01003942H   LINE      CODE     ---       #323
      01003945H   LINE      CODE     ---       #324
      0100394EH   LINE      CODE     ---       #325
      01003954H   LINE      CODE     ---       #326
      0100397BH   LINE      CODE     ---       #327
LX51 LINKER/LOCATER V4.66.93.0                                                        07/09/2019  16:24:51  PAGE 59


      01003982H   LINE      CODE     ---       #328
      01003992H   LINE      CODE     ---       #329
      010039A6H   LINE      CODE     ---       #330
      010039B7H   LINE      CODE     ---       #331
      010039B7H   LINE      CODE     ---       #332
      010039BCH   LINE      CODE     ---       #334
      010039C1H   LINE      CODE     ---       #335
      ---         BLOCKEND  ---      ---       LVL=0

      010039C2H   BLOCK     CODE     ---       LVL=0
      0200B2DBH   SYMBOL    XDATA    ---       buf
      0200B2DEH   SYMBOL    XDATA    BYTE      ReqCount
      0200B2DFH   SYMBOL    XDATA    ---       RealCount
      010039D0H   BLOCK     CODE     NEAR LAB  LVL=1
      0200B2E2H   SYMBOL    XDATA    BYTE      s
      0200B2E3H   SYMBOL    XDATA    BYTE      cnt
      0200B2E4H   SYMBOL    XDATA    DWORD     StaSec
      ---         BLOCKEND  ---      ---       LVL=1
      010039C2H   LINE      CODE     ---       #337
      010039D0H   LINE      CODE     ---       #338
      010039D0H   LINE      CODE     ---       #341
      010039E2H   LINE      CODE     ---       #343
      010039E2H   LINE      CODE     ---       #344
      010039E7H   LINE      CODE     ---       #345
      010039EFH   LINE      CODE     ---       #346
      010039F7H   LINE      CODE     ---       #347
      010039FEH   LINE      CODE     ---       #348
      01003A03H   LINE      CODE     ---       #349
      01003A06H   LINE      CODE     ---       #350
      01003A0EH   LINE      CODE     ---       #351
      01003A11H   LINE      CODE     ---       #352
      01003A14H   LINE      CODE     ---       #353
      01003A17H   LINE      CODE     ---       #354
      01003A20H   LINE      CODE     ---       #355
      01003A26H   LINE      CODE     ---       #356
      01003A4DH   LINE      CODE     ---       #357
      01003A54H   LINE      CODE     ---       #358
      01003A64H   LINE      CODE     ---       #359
      01003A78H   LINE      CODE     ---       #360
      01003A89H   LINE      CODE     ---       #361
      01003A89H   LINE      CODE     ---       #362
      01003A8EH   LINE      CODE     ---       #363
      01003A93H   LINE      CODE     ---       #364
      ---         BLOCKEND  ---      ---       LVL=0

      010042FCH   BLOCK     CODE     ---       LVL=0
      0200B2DBH   SYMBOL    XDATA    DWORD     offset
      010042FCH   LINE      CODE     ---       #366
      01004302H   LINE      CODE     ---       #369
      01004302H   LINE      CODE     ---       #370
      01004307H   LINE      CODE     ---       #371
      01004312H   LINE      CODE     ---       #372
      0100431FH   LINE      CODE     ---       #373
      01004335H   LINE      CODE     ---       #374
      0100433AH   LINE      CODE     ---       #375
      ---         BLOCKEND  ---      ---       LVL=0

      010035EAH   BLOCK     CODE     ---       LVL=0
      0200B2E8H   SYMBOL    XDATA    ---       buf
      0200B2EBH   SYMBOL    XDATA    DWORD     iLbaStart
      0200B2EFH   SYMBOL    XDATA    BYTE      iSectorCount
      010035F9H   BLOCK     CODE     NEAR LAB  LVL=1
      0200B2F0H   SYMBOL    XDATA    BYTE      s
      0200B2F1H   SYMBOL    XDATA    BYTE      err
      0200B2F2H   SYMBOL    XDATA    WORD      mBlockCount
LX51 LINKER/LOCATER V4.66.93.0                                                        07/09/2019  16:24:51  PAGE 60


      ---         BLOCKEND  ---      ---       LVL=1
      010035EAH   LINE      CODE     ---       #378
      010035F9H   LINE      CODE     ---       #381
      010035F9H   LINE      CODE     ---       #384
      01003609H   LINE      CODE     ---       #385
      01003609H   LINE      CODE     ---       #386
      0100360EH   LINE      CODE     ---       #387
      01003619H   LINE      CODE     ---       #388
      01003626H   LINE      CODE     ---       #389
      0100363CH   LINE      CODE     ---       #390
      01003652H   LINE      CODE     ---       #391
      0100365AH   LINE      CODE     ---       #392
      0100367EH   LINE      CODE     ---       #393
      0100367EH   LINE      CODE     ---       #394
      01003686H   LINE      CODE     ---       #395
      0100368AH   LINE      CODE     ---       #396
      0100368AH   LINE      CODE     ---       #397
      0100369AH   LINE      CODE     ---       #398
      0100369FH   LINE      CODE     ---       #399
      010036A9H   LINE      CODE     ---       #400
      010036A9H   LINE      CODE     ---       #401
      010036A9H   LINE      CODE     ---       #402
      010036B9H   LINE      CODE     ---       #403
      010036C3H   LINE      CODE     ---       #404
      010036C3H   LINE      CODE     ---       #405
      010036CBH   LINE      CODE     ---       #406
      010036D2H   LINE      CODE     ---       #407
      010036D2H   LINE      CODE     ---       #408
      010036DCH   LINE      CODE     ---       #409
      010036DFH   LINE      CODE     ---       #410
      010036E8H   LINE      CODE     ---       #411
      010036EDH   LINE      CODE     ---       #412
      ---         BLOCKEND  ---      ---       LVL=0

      010036EEH   BLOCK     CODE     ---       LVL=0
      0200B2E8H   SYMBOL    XDATA    ---       buf
      0200B2EBH   SYMBOL    XDATA    DWORD     iLbaStart
      0200B2EFH   SYMBOL    XDATA    BYTE      iSectorCount
      010036FDH   BLOCK     CODE     NEAR LAB  LVL=1
      0200B2F0H   SYMBOL    XDATA    BYTE      s
      0200B2F1H   SYMBOL    XDATA    BYTE      err
      0200B2F2H   SYMBOL    XDATA    WORD      mBlockCount
      ---         BLOCKEND  ---      ---       LVL=1
      010036EEH   LINE      CODE     ---       #414
      010036FDH   LINE      CODE     ---       #416
      010036FDH   LINE      CODE     ---       #419
      0100370DH   LINE      CODE     ---       #420
      0100370DH   LINE      CODE     ---       #421
      01003712H   LINE      CODE     ---       #422
      0100371DH   LINE      CODE     ---       #423
      0100372AH   LINE      CODE     ---       #424
      01003740H   LINE      CODE     ---       #425
      01003756H   LINE      CODE     ---       #426
      0100375EH   LINE      CODE     ---       #427
      01003782H   LINE      CODE     ---       #428
      01003782H   LINE      CODE     ---       #429
      0100378AH   LINE      CODE     ---       #430
      0100378EH   LINE      CODE     ---       #431
      0100378EH   LINE      CODE     ---       #432
      01003799H   LINE      CODE     ---       #433
      0100379EH   LINE      CODE     ---       #434
      010037ACH   LINE      CODE     ---       #435
      010037ACH   LINE      CODE     ---       #436
      010037ACH   LINE      CODE     ---       #437
      010037BCH   LINE      CODE     ---       #438
LX51 LINKER/LOCATER V4.66.93.0                                                        07/09/2019  16:24:51  PAGE 61


      010037C6H   LINE      CODE     ---       #439
      010037C6H   LINE      CODE     ---       #440
      010037CEH   LINE      CODE     ---       #441
      010037D5H   LINE      CODE     ---       #442
      010037D5H   LINE      CODE     ---       #443
      010037DFH   LINE      CODE     ---       #444
      010037E2H   LINE      CODE     ---       #445
      010037EBH   LINE      CODE     ---       #446
      010037F0H   LINE      CODE     ---       #447
      ---         BLOCKEND  ---      ---       LVL=0

      010041EEH   BLOCK     CODE     ---       LVL=0
      0200B2F4H   SYMBOL    XDATA    ---       buf
      0200B2F7H   SYMBOL    XDATA    BYTE      len
      010041EEH   LINE      CODE     ---       #449
      010041FCH   LINE      CODE     ---       #450
      010041FCH   LINE      CODE     ---       #451
      01004201H   LINE      CODE     ---       #452
      01004209H   LINE      CODE     ---       #453
      0100420FH   LINE      CODE     ---       #454
      0100420FH   LINE      CODE     ---       #456
      0100420FH   LINE      CODE     ---       #457
      01004221H   LINE      CODE     ---       #458
      0100422BH   LINE      CODE     ---       #459
      0100422BH   LINE      CODE     ---       #460
      01004233H   LINE      CODE     ---       #461
      01004233H   LINE      CODE     ---       #462
      ---         BLOCKEND  ---      ---       LVL=0

      0100419EH   BLOCK     CODE     VOID      LVL=0
      ---         BLOCKEND  ---      ---       LVL=0

      010041A6H   BLOCK     CODE     ---       LVL=0
      0200B2F4H   SYMBOL    XDATA    ---       buf
      0200B2F7H   SYMBOL    XDATA    BYTE      s
      0200B2F8H   SYMBOL    XDATA    BYTE      l
      010041B1H   BLOCK     CODE     NEAR LAB  LVL=1
      0200B2F7H   SYMBOL    XDATA    BYTE      s
      0200B2F8H   SYMBOL    XDATA    BYTE      l
      ---         BLOCKEND  ---      ---       LVL=1
      010041A6H   LINE      CODE     ---       #464
      010041B1H   LINE      CODE     ---       #465
      010041B1H   LINE      CODE     ---       #467
      010041B6H   LINE      CODE     ---       #468
      010041C2H   LINE      CODE     ---       #469
      010041C4H   LINE      CODE     ---       #470
      010041C4H   LINE      CODE     ---       #472
      010041C4H   LINE      CODE     ---       #473
      010041D6H   LINE      CODE     ---       #474
      010041E0H   LINE      CODE     ---       #475
      010041E0H   LINE      CODE     ---       #476
      010041E8H   LINE      CODE     ---       #477
      010041E8H   LINE      CODE     ---       #478
      010041EDH   LINE      CODE     ---       #479
      ---         BLOCKEND  ---      ---       LVL=0

      01002B5BH   BLOCK     CODE     ---       LVL=0
      020093F2H   SYMBOL    XDATA    ---       String
      020093F5H   SYMBOL    XDATA    ---       PathName
      020093F8H   SYMBOL    XDATA    ---       MatchLish
      01002B66H   BLOCK     CODE     NEAR LAB  LVL=1
      020093FBH   SYMBOL    XDATA    BYTE      s
      020093FCH   SYMBOL    XDATA    BYTE      FileCount
      00000007H   SYMBOL    DATA     BYTE      i
      020093FDH   SYMBOL    XDATA    ---       pBuf
LX51 LINKER/LOCATER V4.66.93.0                                                        07/09/2019  16:24:51  PAGE 62


      0200943DH   SYMBOL    XDATA    ---       pNameBuf
      02009440H   SYMBOL    XDATA    ---       pDir
      ---         BLOCKEND  ---      ---       LVL=1
      01002B5BH   LINE      CODE     ---       #518
      01002B66H   LINE      CODE     ---       #519
      01002B66H   LINE      CODE     ---       #524
      01002B77H   LINE      CODE     ---       #525
      01002B82H   LINE      CODE     ---       #526
      01002B89H   LINE      CODE     ---       #527
      01002B8FH   LINE      CODE     ---       #528
      01002B94H   LINE      CODE     ---       #529
      01002BA9H   LINE      CODE     ---       #530
      01002BA9H   LINE      CODE     ---       #531
      01002BB1H   LINE      CODE     ---       #532
      01002BB8H   LINE      CODE     ---       #533
      01002BB8H   LINE      CODE     ---       #534
      01002BC1H   LINE      CODE     ---       #535
      01002BC6H   LINE      CODE     ---       #536
      01002BD7H   LINE      CODE     ---       #537
      01002BE2H   LINE      CODE     ---       #538
      01002BF7H   LINE      CODE     ---       #539
      01002C0CH   LINE      CODE     ---       #540
      01002C18H   LINE      CODE     ---       #541
      01002C18H   LINE      CODE     ---       #542
      01002C2FH   LINE      CODE     ---       #543
      01002C2FH   LINE      CODE     ---       #544
      01002C34H   LINE      CODE     ---       #545
      01002C34H   LINE      CODE     ---       #546
      01002C49H   LINE      CODE     ---       #547
      01002C49H   LINE      CODE     ---       #548
      01002C6CH   LINE      CODE     ---       #549
      01002C76H   LINE      CODE     ---       #550
      01002C76H   LINE      CODE     ---       #551
      01002C79H   LINE      CODE     ---       #552
      01002C88H   LINE      CODE     ---       #553
      01002CAAH   LINE      CODE     ---       #554
      01002CB4H   LINE      CODE     ---       #555
      01002CB6H   LINE      CODE     ---       #556
      01002CBEH   LINE      CODE     ---       #557
      01002CC7H   LINE      CODE     ---       #558
      01002CD2H   LINE      CODE     ---       #559
      01002CD7H   LINE      CODE     ---       #560
      ---         BLOCKEND  ---      ---       LVL=0

      0100209FH   BLOCK     CODE     ---       LVL=0
      020090EBH   SYMBOL    XDATA    ---       pFilePath
      020090EEH   SYMBOL    XDATA    ---       pDir
      010020AAH   BLOCK     CODE     NEAR LAB  LVL=1
      020090F1H   SYMBOL    XDATA    ---       Buf
      02009131H   SYMBOL    XDATA    BYTE      Status
      02009132H   SYMBOL    XDATA    ---       pFile
      ---         BLOCKEND  ---      ---       LVL=1
      0100209FH   LINE      CODE     ---       #562
      010020AAH   LINE      CODE     ---       #563
      010020AAH   LINE      CODE     ---       #565
      010020AFH   LINE      CODE     ---       #567
      010020BCH   LINE      CODE     ---       #568
      010020C7H   LINE      CODE     ---       #569
      010020D0H   LINE      CODE     ---       #570
      010020D0H   LINE      CODE     ---       #571
      010020D0H   LINE      CODE     ---       #572
      010020D2H   LINE      CODE     ---       #573
      010020D2H   LINE      CODE     ---       #574
      010020D7H   LINE      CODE     ---       #575
      010020DCH   LINE      CODE     ---       #576
LX51 LINKER/LOCATER V4.66.93.0                                                        07/09/2019  16:24:51  PAGE 63


      010020E4H   LINE      CODE     ---       #577
      010020E8H   LINE      CODE     ---       #578
      010020E8H   LINE      CODE     ---       #579
      010020EDH   LINE      CODE     ---       #580
      010020F0H   LINE      CODE     ---       #581
      010020F0H   LINE      CODE     ---       #582
      010020F9H   LINE      CODE     ---       #583
      01002107H   LINE      CODE     ---       #585
      0100212BH   LINE      CODE     ---       #586
      01002151H   LINE      CODE     ---       #587
      01002177H   LINE      CODE     ---       #588
      0100219DH   LINE      CODE     ---       #589
      010021C3H   LINE      CODE     ---       #590
      010021ECH   LINE      CODE     ---       #591
      010022A0H   LINE      CODE     ---       #593
      010022A5H   LINE      CODE     ---       #594
      010022A7H   LINE      CODE     ---       #595
      ---         BLOCKEND  ---      ---       LVL=0

      01001C41H   BLOCK     CODE     ---       LVL=0
      020090EAH   SYMBOL    XDATA    ---       pFilePath
      020090EDH   SYMBOL    XDATA    ---       pDir
      01001C4CH   BLOCK     CODE     NEAR LAB  LVL=1
      020090F0H   SYMBOL    XDATA    ---       Buf
      02009130H   SYMBOL    XDATA    BYTE      Status
      02009131H   SYMBOL    XDATA    ---       pFile
      ---         BLOCKEND  ---      ---       LVL=1
      01001C41H   LINE      CODE     ---       #597
      01001C4CH   LINE      CODE     ---       #598
      01001C4CH   LINE      CODE     ---       #600
      01001C51H   LINE      CODE     ---       #602
      01001C5EH   LINE      CODE     ---       #603
      01001C6CH   LINE      CODE     ---       #604
      01001C77H   LINE      CODE     ---       #605
      01001C7EH   LINE      CODE     ---       #606
      01001C83H   LINE      CODE     ---       #607
      01001C88H   LINE      CODE     ---       #608
      01001C90H   LINE      CODE     ---       #609
      01001C95H   LINE      CODE     ---       #614
      01001CA9H   LINE      CODE     ---       #615
      01001CA9H   LINE      CODE     ---       #616
      01001CBBH   LINE      CODE     ---       #617
      01001CC0H   LINE      CODE     ---       #618
      01001CC5H   LINE      CODE     ---       #619
      01001CDAH   LINE      CODE     ---       #620
      01001CDAH   LINE      CODE     ---       #621
      01001CF1H   LINE      CODE     ---       #622
      01001CF1H   LINE      CODE     ---       #623
      01001D05H   LINE      CODE     ---       #624
      01001D0AH   LINE      CODE     ---       #625
      01001D0FH   LINE      CODE     ---       #626
      01001D24H   LINE      CODE     ---       #627
      01001D3BH   LINE      CODE     ---       #628
      01001D3BH   LINE      CODE     ---       #629
      01001D52H   LINE      CODE     ---       #630
      01001D52H   LINE      CODE     ---       #631
      01001D66H   LINE      CODE     ---       #632
      01001D6BH   LINE      CODE     ---       #633
      01001D70H   LINE      CODE     ---       #634
      01001D85H   LINE      CODE     ---       #635
      01001D9CH   LINE      CODE     ---       #636
      01001D9CH   LINE      CODE     ---       #637
      01001DB3H   LINE      CODE     ---       #638
      01001DB3H   LINE      CODE     ---       #639
      01001DC7H   LINE      CODE     ---       #640
LX51 LINKER/LOCATER V4.66.93.0                                                        07/09/2019  16:24:51  PAGE 64


      01001DCCH   LINE      CODE     ---       #641
      01001DD1H   LINE      CODE     ---       #642
      01001DE6H   LINE      CODE     ---       #643
      01001DFDH   LINE      CODE     ---       #644
      01001DFDH   LINE      CODE     ---       #645
      01001E14H   LINE      CODE     ---       #646
      01001E14H   LINE      CODE     ---       #647
      01001E28H   LINE      CODE     ---       #648
      01001E2DH   LINE      CODE     ---       #649
      01001E32H   LINE      CODE     ---       #650
      01001E47H   LINE      CODE     ---       #651
      01001E5EH   LINE      CODE     ---       #652
      01001E5EH   LINE      CODE     ---       #653
      01001E63H   LINE      CODE     ---       #654
      01001E6BH   LINE      CODE     ---       #655
      01001E70H   LINE      CODE     ---       #656
      01001E7CH   LINE      CODE     ---       #657
      01001E7CH   LINE      CODE     ---       #658
      ---         BLOCKEND  ---      ---       LVL=0
      00000006H   SYMBOL    DATA     BYTE      NameLen
      00000007H   SYMBOL    DATA     BYTE      CheckSum
      00000006H   SYMBOL    DATA     WORD      NameCount

      ---         MODULE    ---      ---       ?C_INIT
      01003CE4H   PUBLIC    CODE     ---       ?C_START

      ---         MODULE    ---      ---       ?C?CLDPTR
      01000100H   PUBLIC    CODE     ---       ?C?CLDPTR

      ---         MODULE    ---      ---       ?C?CLDOPTR
      01000119H   PUBLIC    CODE     ---       ?C?CLDOPTR

      ---         MODULE    ---      ---       ?C?CILDPTR
      01000146H   PUBLIC    CODE     ---       ?C?CILDPTR

      ---         MODULE    ---      ---       ?C?CSTPTR
      01000168H   PUBLIC    CODE     ---       ?C?CSTPTR

      ---         MODULE    ---      ---       ?C?CSTOPTR
      0100017AH   PUBLIC    CODE     ---       ?C?CSTOPTR

      ---         MODULE    ---      ---       ?C?UIDIV
      0100019CH   PUBLIC    CODE     ---       ?C?UIDIV

      ---         MODULE    ---      ---       ?C?IILDX
      010001F1H   PUBLIC    CODE     ---       ?C?IILDX

      ---         MODULE    ---      ---       ?C?ILDIX
      01000207H   PUBLIC    CODE     ---       ?C?ILDIX

      ---         MODULE    ---      ---       ?C?ILDPTR
      0100021DH   PUBLIC    CODE     ---       ?C?ILDPTR

      ---         MODULE    ---      ---       ?C?ILDOPTR
      01000248H   PUBLIC    CODE     ---       ?C?ILDOPTR

      ---         MODULE    ---      ---       ?C?IILDPTR
      01000280H   PUBLIC    CODE     ---       ?C?IILDPTR

      ---         MODULE    ---      ---       ?C?ISTPTR
      010002B8H   PUBLIC    CODE     ---       ?C?ISTPTR

      ---         MODULE    ---      ---       ?C?ISTOPTR
      010002D7H   PUBLIC    CODE     ---       ?C?ISTOPTR

LX51 LINKER/LOCATER V4.66.93.0                                                        07/09/2019  16:24:51  PAGE 65


      ---         MODULE    ---      ---       ?C?ULCMP
      01000304H   PUBLIC    CODE     ---       ?C?ULCMP

      ---         MODULE    ---      ---       ?C?ULSHR
      01000315H   PUBLIC    CODE     ---       ?C?ULSHR

      ---         MODULE    ---      ---       ?C?LSHL
      01000328H   PUBLIC    CODE     ---       ?C?LSHL

      ---         MODULE    ---      ---       ?C?LLDOPTR
      0100033BH   PUBLIC    CODE     ---       ?C?LLDOPTR

      ---         MODULE    ---      ---       ?C?LSTPTR
      0100036BH   PUBLIC    CODE     ---       ?C?LSTPTR

      ---         MODULE    ---      ---       ?C?LSTOPTR
      01000385H   PUBLIC    CODE     ---       ?C?LSTOPTR

      ---         MODULE    ---      ---       ?C?LLDPTR0
      010003A9H   PUBLIC    CODE     ---       ?C?LLDPTR0

      ---         MODULE    ---      ---       ?C?LLDIXDATA
      010003D2H   PUBLIC    CODE     ---       ?C?LLDIXDATA
      010003C9H   PUBLIC    CODE     ---       ?C?LLDIXDATA1
      010003CBH   PUBLIC    CODE     ---       ?C?LLDIXDATA8

      ---         MODULE    ---      ---       ?C?LSTXDATA
      010003FEH   PUBLIC    CODE     ---       ?C?LSTXDATA

      ---         MODULE    ---      ---       ?C?LSTKXDATA
      0100040AH   PUBLIC    CODE     ---       ?C?LSTKXDATA

      ---         MODULE    ---      ---       ?C?LSTKPTR
      0100043BH   PUBLIC    CODE     ---       ?C?LSTKPTR

      ---         MODULE    ---      ---       ?C_XBP
      0000000DH   PUBLIC    DATA     ---       ?C_XBP

      ---         MODULE    ---      ---       ?C?ADDXBP
      01000455H   PUBLIC    CODE     ---       ?C?ADDXBP

      ---         MODULE    ---      ---       ?C?XBPOFF
      01000479H   PUBLIC    CODE     ---       ?C?XBPOFF

      ---         MODULE    ---      ---       PRINTF
      0200939FH   PUBLIC    XDATA    ---       ?_PRINTF517?BYTE
      0200939FH   PUBLIC    XDATA    ---       ?_PRINTF?BYTE
      0200939FH   PUBLIC    XDATA    ---       ?_SPRINTF517?BYTE
      0200939FH   PUBLIC    XDATA    ---       ?_SPRINTF?BYTE
      01000E95H   PUBLIC    CODE     ---       _PRINTF
      01000E95H   PUBLIC    CODE     ---       _PRINTF517
      01000E8FH   PUBLIC    CODE     ---       _SPRINTF
      01000E8FH   PUBLIC    CODE     ---       _SPRINTF517

      ---         MODULE    ---      ---       ?C?STRCPY
      01000552H   PUBLIC    CODE     ---       ?C?STRCPY

      ---         MODULE    ---      ---       STRNCPY
      0200B2DBH   PUBLIC    XDATA    ---       ?_STRNCPY?BYTE
      010040E0H   PUBLIC    CODE     ---       _STRNCPY

      ---         MODULE    ---      ---       STRLEN
      010045DEH   PUBLIC    CODE     ---       _STRLEN

      ---         MODULE    ---      ---       STRSTR
LX51 LINKER/LOCATER V4.66.93.0                                                        07/09/2019  16:24:51  PAGE 66


      0200939FH   PUBLIC    XDATA    ---       ?_STRSTR?BYTE
      01003A94H   PUBLIC    CODE     ---       _STRSTR

      ---         MODULE    ---      ---       ?C?MEMSET
      0100056FH   PUBLIC    CODE     ---       ?C?MEMSET

      ---         MODULE    ---      ---       ?C?LLDIDATA
      0100059BH   PUBLIC    CODE     ---       ?C?LLDIDATA

      ---         MODULE    ---      ---       ?C?LLDXDATA
      010005A7H   PUBLIC    CODE     ---       ?C?LLDXDATA

      ---         MODULE    ---      ---       ?C?LLDPDATA
      010005B3H   PUBLIC    CODE     ---       ?C?LLDPDATA

      ---         MODULE    ---      ---       ?C?LLDCODE
      010005BFH   PUBLIC    CODE     ---       ?C?LLDCODE

      ---         MODULE    ---      ---       ?C?LLDIDATA0
      010005CFH   PUBLIC    CODE     ---       ?C?LLDIDATA0

      ---         MODULE    ---      ---       ?C?LLDXDATA0
      010005DCH   PUBLIC    CODE     ---       ?C?LLDXDATA0

      ---         MODULE    ---      ---       ?C?LLDPDATA0
      010005E8H   PUBLIC    CODE     ---       ?C?LLDPDATA0

      ---         MODULE    ---      ---       ?C?LLDCODE0
      010005F5H   PUBLIC    CODE     ---       ?C?LLDCODE0

      ---         MODULE    ---      ---       ?C?LSTIDATA
      01000605H   PUBLIC    CODE     ---       ?C?LSTIDATA

      ---         MODULE    ---      ---       ?C?LSTPDATA
      01000611H   PUBLIC    CODE     ---       ?C?LSTPDATA

      ---         MODULE    ---      ---       ?C?LSTKIDATA
      0100061DH   PUBLIC    CODE     ---       ?C?LSTKIDATA

      ---         MODULE    ---      ---       ?C?LSTKPDATA
      01000636H   PUBLIC    CODE     ---       ?C?LSTKPDATA

      ---         MODULE    ---      ---       ?C?PLDIXDATA
      0100064FH   PUBLIC    CODE     ---       ?C?PLDIXDATA

      ---         MODULE    ---      ---       ?C?PSTXDATA
      01000666H   PUBLIC    CODE     ---       ?C?PSTXDATA

      ---         MODULE    ---      ---       ?C?CCASE
      0100066FH   PUBLIC    CODE     ---       ?C?CCASE

      ---         MODULE    ---      ---       PUTCHAR
      010044CAH   PUBLIC    CODE     ---       _PUTCHAR

Program Size: data=17.1 xdata=13867 const=102 code=18056
LX51 RUN COMPLETE.  0 WARNING(S),  0 ERROR(S)
