LX51 LINKER/LOCATER V4.66.93.0                                                          07/09/2019  19:31:38  PAGE 1


LX51 LINKER/LOCATER V4.66.93.0, INVOKED BY:
D:\SOFT\KEIL5\C51\BIN\LX51.EXE .\obj\main.obj, .\obj\STARTUP_M5.obj, .\obj\dgus_config.obj, ..\..\lib\dwin.lib TO .\obj\
>> T5L51 PRINT (.\list\T5L51.map) REMOVEUNUSED CLASSES (XDATA (X:0X8000-X:0XFFFF), HDATA (X:0X8000-X:0XFFFF))


CPU MODE:     8051 MODE
MEMORY MODEL: LARGE


INPUT MODULES INCLUDED:
  .\obj\main.obj (MAIN)
         COMMENT TYPE 0: C51 V9.59.0.0
  .\obj\STARTUP_M5.obj (?C_STARTUP)
         COMMENT TYPE 1: A51 / ASM51 Assembler
  .\obj\dgus_config.obj (DGUS_CONFIG)
         COMMENT TYPE 0: C51 V9.59.0.0
  ..\..\lib\dwin.lib (DGUS)
         COMMENT TYPE 0: C51 V9.59.0.0
  ..\..\lib\dwin.lib (SYS)
         COMMENT TYPE 0: C51 V9.59.0.0
  ..\..\lib\dwin.lib (UART)
         COMMENT TYPE 0: C51 V9.59.0.0
  ..\..\lib\dwin.lib (PARA_PORT)
         COMMENT TYPE 0: C51 V9.59.0.0
  ..\..\lib\dwin.lib (USB_DGUS)
         COMMENT TYPE 0: C51 V9.59.0.0
  ..\..\lib\dwin.lib (APP_INTERFACE)
         COMMENT TYPE 0: C51 V9.59.0.0
  ..\..\lib\dwin.lib (FILE_SYS)
         COMMENT TYPE 0: C51 V9.59.0.0
  D:\SOFT\KEIL5\C51\LIB\C51L.LIB (?C_INIT)
         COMMENT TYPE 1: A51 / ASM51 Assembler
  D:\SOFT\KEIL5\C51\LIB\C51L.LIB (?C?COPY)
         COMMENT TYPE 1: A51 / ASM51 Assembler
  D:\SOFT\KEIL5\C51\LIB\C51L.LIB (?C?CLDPTR)
         COMMENT TYPE 1: A51 / ASM51 Assembler
  D:\SOFT\KEIL5\C51\LIB\C51L.LIB (?C?CLDOPTR)
         COMMENT TYPE 1: A51 / ASM51 Assembler
  D:\SOFT\KEIL5\C51\LIB\C51L.LIB (?C?CILDPTR)
         COMMENT TYPE 1: A51 / ASM51 Assembler
  D:\SOFT\KEIL5\C51\LIB\C51L.LIB (?C?CSTPTR)
         COMMENT TYPE 1: A51 / ASM51 Assembler
  D:\SOFT\KEIL5\C51\LIB\C51L.LIB (?C?CSTOPTR)
         COMMENT TYPE 1: A51 / ASM51 Assembler
  D:\SOFT\KEIL5\C51\LIB\C51L.LIB (?C?UIDIV)
         COMMENT TYPE 1: A51 / ASM51 Assembler
  D:\SOFT\KEIL5\C51\LIB\C51L.LIB (?C?IILDX)
         COMMENT TYPE 1: A51 / ASM51 Assembler
  D:\SOFT\KEIL5\C51\LIB\C51L.LIB (?C?ILDIX)
         COMMENT TYPE 1: A51 / ASM51 Assembler
  D:\SOFT\KEIL5\C51\LIB\C51L.LIB (?C?ILDPTR)
         COMMENT TYPE 1: A51 / ASM51 Assembler
  D:\SOFT\KEIL5\C51\LIB\C51L.LIB (?C?ILDOPTR)
         COMMENT TYPE 1: A51 / ASM51 Assembler
  D:\SOFT\KEIL5\C51\LIB\C51L.LIB (?C?IILDPTR)
         COMMENT TYPE 1: A51 / ASM51 Assembler
  D:\SOFT\KEIL5\C51\LIB\C51L.LIB (?C?ISTPTR)
         COMMENT TYPE 1: A51 / ASM51 Assembler
  D:\SOFT\KEIL5\C51\LIB\C51L.LIB (?C?ISTOPTR)
         COMMENT TYPE 1: A51 / ASM51 Assembler
  D:\SOFT\KEIL5\C51\LIB\C51L.LIB (?C?ULCMP)
         COMMENT TYPE 1: A51 / ASM51 Assembler
  D:\SOFT\KEIL5\C51\LIB\C51L.LIB (?C?ULSHR)
         COMMENT TYPE 1: A51 / ASM51 Assembler
  D:\SOFT\KEIL5\C51\LIB\C51L.LIB (?C?LSHL)
         COMMENT TYPE 1: A51 / ASM51 Assembler
LX51 LINKER/LOCATER V4.66.93.0                                                        07/09/2019  19:31:38  PAGE 2


  D:\SOFT\KEIL5\C51\LIB\C51L.LIB (?C?LLDOPTR)
         COMMENT TYPE 1: A51 / ASM51 Assembler
  D:\SOFT\KEIL5\C51\LIB\C51L.LIB (?C?LSTPTR)
         COMMENT TYPE 1: A51 / ASM51 Assembler
  D:\SOFT\KEIL5\C51\LIB\C51L.LIB (?C?LSTOPTR)
         COMMENT TYPE 1: A51 / ASM51 Assembler
  D:\SOFT\KEIL5\C51\LIB\C51L.LIB (?C?LLDPTR0)
         COMMENT TYPE 1: A51 / ASM51 Assembler
  D:\SOFT\KEIL5\C51\LIB\C51L.LIB (?C?LLDIXDATA)
         COMMENT TYPE 1: A51 / ASM51 Assembler
  D:\SOFT\KEIL5\C51\LIB\C51L.LIB (?C?LSTXDATA)
         COMMENT TYPE 1: A51 / ASM51 Assembler
  D:\SOFT\KEIL5\C51\LIB\C51L.LIB (?C?LSTKXDATA)
         COMMENT TYPE 1: A51 / ASM51 Assembler
  D:\SOFT\KEIL5\C51\LIB\C51L.LIB (?C?LSTKPTR)
         COMMENT TYPE 1: A51 / ASM51 Assembler
  D:\SOFT\KEIL5\C51\LIB\C51L.LIB (?C_XBP)
         COMMENT TYPE 1: A51 / ASM51 Assembler
  D:\SOFT\KEIL5\C51\LIB\C51L.LIB (?C?ADDXBP)
         COMMENT TYPE 1: A51 / ASM51 Assembler
  D:\SOFT\KEIL5\C51\LIB\C51L.LIB (?C?XBPOFF)
         COMMENT TYPE 1: A51 / ASM51 Assembler
  D:\SOFT\KEIL5\C51\LIB\C51L.LIB (PRINTF)
         COMMENT TYPE 1: A51 / ASM51 Assembler
  D:\SOFT\KEIL5\C51\LIB\C51L.LIB (?C?STRCPY)
         COMMENT TYPE 1: A51 / ASM51 Assembler
  D:\SOFT\KEIL5\C51\LIB\C51L.LIB (STRNCPY)
         COMMENT TYPE 1: C51 Compiler
  D:\SOFT\KEIL5\C51\LIB\C51L.LIB (STRLEN)
         COMMENT TYPE 1: A51 / ASM51 Assembler
  D:\SOFT\KEIL5\C51\LIB\C51L.LIB (STRSTR)
         COMMENT TYPE 1: C51 Compiler
  D:\SOFT\KEIL5\C51\LIB\C51L.LIB (?C?MEMSET)
         COMMENT TYPE 1: A51 / ASM51 Assembler
  D:\SOFT\KEIL5\C51\LIB\C51L.LIB (?C?LLDIDATA)
         COMMENT TYPE 1: A51 / ASM51 Assembler
  D:\SOFT\KEIL5\C51\LIB\C51L.LIB (?C?LLDXDATA)
         COMMENT TYPE 1: A51 / ASM51 Assembler
  D:\SOFT\KEIL5\C51\LIB\C51L.LIB (?C?LLDPDATA)
         COMMENT TYPE 1: A51 / ASM51 Assembler
  D:\SOFT\KEIL5\C51\LIB\C51L.LIB (?C?LLDCODE)
         COMMENT TYPE 1: A51 / ASM51 Assembler
  D:\SOFT\KEIL5\C51\LIB\C51L.LIB (?C?LLDIDATA0)
         COMMENT TYPE 1: A51 / ASM51 Assembler
  D:\SOFT\KEIL5\C51\LIB\C51L.LIB (?C?LLDXDATA0)
         COMMENT TYPE 1: A51 / ASM51 Assembler
  D:\SOFT\KEIL5\C51\LIB\C51L.LIB (?C?LLDPDATA0)
         COMMENT TYPE 1: A51 / ASM51 Assembler
  D:\SOFT\KEIL5\C51\LIB\C51L.LIB (?C?LLDCODE0)
         COMMENT TYPE 1: A51 / ASM51 Assembler
  D:\SOFT\KEIL5\C51\LIB\C51L.LIB (?C?LSTIDATA)
         COMMENT TYPE 1: A51 / ASM51 Assembler
  D:\SOFT\KEIL5\C51\LIB\C51L.LIB (?C?LSTPDATA)
         COMMENT TYPE 1: A51 / ASM51 Assembler
  D:\SOFT\KEIL5\C51\LIB\C51L.LIB (?C?LSTKIDATA)
         COMMENT TYPE 1: A51 / ASM51 Assembler
  D:\SOFT\KEIL5\C51\LIB\C51L.LIB (?C?LSTKPDATA)
         COMMENT TYPE 1: A51 / ASM51 Assembler
  D:\SOFT\KEIL5\C51\LIB\C51L.LIB (?C?PLDIXDATA)
         COMMENT TYPE 1: A51 / ASM51 Assembler
  D:\SOFT\KEIL5\C51\LIB\C51L.LIB (?C?PSTXDATA)
         COMMENT TYPE 1: A51 / ASM51 Assembler
  D:\SOFT\KEIL5\C51\LIB\C51L.LIB (?C?CCASE)
         COMMENT TYPE 1: A51 / ASM51 Assembler
  D:\SOFT\KEIL5\C51\LIB\C51L.LIB (PUTCHAR)
LX51 LINKER/LOCATER V4.66.93.0                                                        07/09/2019  19:31:38  PAGE 3


         COMMENT TYPE 1: A51 / ASM51 Assembler


ACTIVE MEMORY CLASSES OF MODULE:  .\obj\T5L51 (MAIN)

BASE        START       END         USED      MEMORY CLASS
==========================================================
X:000000H   X:008000H   X:00FFFFH   002609H   XDATA
X:000000H   X:008000H   X:00FFFFH             HDATA
C:000000H   C:000000H   C:00FFFFH   004958H   CODE
I:000000H   I:000000H   I:0000FFH   000001H   IDATA
C:000000H   C:000000H   C:00FFFFH   000066H   CONST
I:000000H   I:000000H   I:00007FH   00000FH   DATA
I:000020H.0 I:000020H.0 I:00002FH.7 000001H.1 BIT


MEMORY MAP OF MODULE:  .\obj\T5L51 (MAIN)


START     STOP      LENGTH    ALIGN  RELOC    MEMORY CLASS   SEGMENT NAME
=========================================================================

* * * * * * * * * * *   D A T A   M E M O R Y   * * * * * * * * * * * * *
000000H   000007H   000008H   ---    AT..     DATA           "REG BANK 0"
000008H   00000CH   000005H   BYTE   UNIT     DATA           _DATA_GROUP_
00000DH   00000EH   000002H   BYTE   UNIT     DATA           ?C?LIB_DATA
00000FH.0 00001FH.7 000011H.0 ---    ---      **GAP**
000020H.0 000021H.0 000001H.1 BIT    UNIT     BIT            _BIT_GROUP_
000021H.1 000021H   000000H.7 ---    ---      **GAP**
000022H   000022H   000001H   BYTE   UNIT     IDATA          ?STACK

* * * * * * * * * * *   C O D E   M E M O R Y   * * * * * * * * * * * * *
000000H   000002H   000003H   ---    OFFS..   CODE           ?CO??C_STARTUP?0
000003H   00000AH   000008H   BYTE   UNIT     CODE           ?PR?QUERY376INTERRUPT?FILE_SYS
00000BH   00000DH   000003H   BYTE   OFFS..   CODE           ?MAIN?0000B
00000EH   0000F1H   0000E4H   BYTE   UNIT     CODE           ?PR?ACKCREATEORDELPATH?USB_DGUS
0000F2H   0000F7H   000006H   BYTE   UNIT     CODE           ?C_INITSEG
0000F8H   0000FFH   000008H   ---    OFFS..   CODE           ?CO??C_STARTUP?1
000100H   00078AH   00068BH   BYTE   UNIT     CODE           ?C?LIB_CODE
00078BH   000B7BH   0003F1H   BYTE   UNIT     CODE           ?PR?MESSEAGESHOW?DGUS_CONFIG
000B7CH   000F1FH   0003A4H   BYTE   UNIT     CODE           ?PR?_WRITEFILE?APP_INTERFACE
000F20H   001284H   000365H   BYTE   UNIT     CODE           ?PR?PRINTF?PRINTF
001285H   001596H   000312H   BYTE   UNIT     CODE           ?PR?_SYSUPFILESEND?APP_INTERFACE
001597H   001855H   0002BFH   BYTE   UNIT     CODE           ?PR?_READFILE?APP_INTERFACE
001856H   001ADFH   00028AH   BYTE   UNIT     CODE           ?PR?_SYSUPGETFILEMESG?APP_INTERFACE
001AE0H   001D36H   000257H   BYTE   UNIT     CODE           ?PR?_SYSUPFILEMATCH?APP_INTERFACE
001D37H   001F72H   00023CH   BYTE   UNIT     CODE           ?PR?_CH376SETFILEMESSAGE?FILE_SYS
001F73H   002194H   000222H   BYTE   UNIT     CODE           ?PR?ACKREADORWRITEFILE?USB_DGUS
002195H   00239DH   000209H   BYTE   UNIT     CODE           ?PR?_CH376GETFILEMESSAGE?FILE_SYS
00239EH   002590H   0001F3H   BYTE   UNIT     CODE           ?PR?ACKSEARCHFILE?USB_DGUS
002591H   002751H   0001C1H   BYTE   UNIT     CODE           ?PR?_?SYSTEMUPDRIVER?USB_DGUS
002752H   002900H   0001AFH   BYTE   UNIT     CODE           ?PR?_READDGUS?DGUS
002901H   002AAEH   0001AEH   BYTE   UNIT     CODE           ?PR?_WRITEDGUS?DGUS
002AAFH   002C50H   0001A2H   BYTE   UNIT     CODE           ?PR?_CH376CREATEFILEORDIR?APP_INTERFACE
002C51H   002DCDH   00017DH   BYTE   UNIT     CODE           ?PR?_CH376MATCHFILE?FILE_SYS
002DCEH   002F37H   00016AH   BYTE   UNIT     CODE           ?PR?_SYSTEMUPDATE?APP_INTERFACE
002F38H   0030A0H   000169H   BYTE   UNIT     CODE           ?PR?ACKGETORSETPATH?USB_DGUS
0030A1H   0031FEH   00015EH   BYTE   UNIT     CODE           ?PR?_GETFILEMESSAGE?APP_INTERFACE
0031FFH   003343H   000145H   BYTE   UNIT     CODE           ?PR?_SETFILEMESSAGE?APP_INTERFACE
003344H   00347AH   000137H   BYTE   UNIT     CODE           ?PR?_PAGEDRIVER?DGUS_CONFIG
00347BH   0035A7H   00012DH   BYTE   UNIT     CODE           ?PR?_SYSUPPCAKSET?APP_INTERFACE
0035A8H   0036C1H   00011AH   BYTE   UNIT     CODE           ?PR?DGUSREGCONFIG?DGUS_CONFIG
0036C2H   0037DAH   000119H   BYTE   UNIT     CODE           ?PR?USBMODULE?USB_DGUS
0037DBH   0038DEH   000104H   BYTE   UNIT     CODE           ?PR?_CH376DISKWRITESEC?FILE_SYS
0038DFH   0039E1H   000103H   BYTE   UNIT     CODE           ?PR?_CH376DISKREADSEC?FILE_SYS
LX51 LINKER/LOCATER V4.66.93.0                                                        07/09/2019  19:31:38  PAGE 4


0039E2H   003AE0H   0000FFH   BYTE   UNIT     CODE           ?PR?_READDGUSCLIENTSTRING?USB_DGUS
003AE1H   003BB2H   0000D2H   BYTE   UNIT     CODE           ?PR?_CH376SECTORWRITE?FILE_SYS
003BB3H   003C84H   0000D2H   BYTE   UNIT     CODE           ?PR?_CH376SECTORREAD?FILE_SYS
003C85H   003D4EH   0000CAH   BYTE   UNIT     CODE           ?PR?PAGEACK?DGUS_CONFIG
003D4FH   003E0DH   0000BFH   BYTE   UNIT     CODE           ?PR?_STRSTR?STRSTR
003E0EH   003EC0H   0000B3H   BYTE   UNIT     CODE           ?PR?_CH376FILEOPENDIR?FILE_SYS
003EC1H   003F57H   000097H   BYTE   UNIT     CODE           ?PR?_SENDUPPACKTODGUS?APP_INTERFACE
003F58H   003FE3H   00008CH   BYTE   UNIT     CODE           ?C_C51STARTUP
003FE4H   004067H   000084H   BYTE   UNIT     CODE           ?PR?_NUMBERSTRINGMATCH?APP_INTERFACE
004068H   0040EAH   000083H   BYTE   UNIT     CODE           ?PR?ACKSYSTEMUP?USB_DGUS
0040EBH   00416AH   000080H   BYTE   UNIT     CODE           ?PR?CH376READ32BITDAT?FILE_SYS
00416BH   0041E9H   00007FH   BYTE   UNIT     CODE           ?PR?_MATCHFILE?APP_INTERFACE
0041EAH   00425EH   000075H   BYTE   UNIT     CODE           ?PR?ACKDISKINIT?USB_DGUS
00425FH   0042C8H   00006AH   BYTE   UNIT     CODE           ?PR?_CH376FILEDELETEPATH?FILE_SYS
0042C9H   004331H   000069H   BYTE   UNIT     CODE           ?PR?_WRITEDGUSCLIENTSTRING?USB_DGUS
004332H   00439AH   000069H   BYTE   UNIT     CODE           ?PR?_CH376SETFILENAME?FILE_SYS
00439BH   004402H   000068H   BYTE   UNIT     CODE           ?PR?_STRNCPY?STRNCPY
004403H   004458H   000056H   BYTE   UNIT     CODE           ?PR?_CH376WRITEVAR32?FILE_SYS
004459H   0044A8H   000050H   BYTE   UNIT     CODE           ?PR?_CH376READBLOCK?FILE_SYS
0044A9H   0044EEH   000046H   BYTE   UNIT     CODE           ?PR?_CH376WRITEHOSTBLOCK?FILE_SYS
0044EFH   004532H   000044H   BYTE   UNIT     CODE           ?PR?_SYSUPGETDWINFILE?APP_INTERFACE
004533H   004575H   000043H   BYTE   UNIT     CODE           ?PR?CHECKIC?APP_INTERFACE
004576H   0045B6H   000041H   BYTE   UNIT     CODE           ?PR?_SYSUPWAITOSFINISHREAD?APP_INTERFACE
0045B7H   0045F7H   000041H   BYTE   UNIT     CODE           ?PR?_CH376SECLOCATE?FILE_SYS
0045F8H   004632H   00003BH   BYTE   UNIT     CODE           ?PR?INIT_CPU?SYS
004633H   004669H   000037H   BYTE   UNIT     CODE           ?PR?T0_ISR_PC?MAIN
00466AH   00469FH   000036H   BYTE   UNIT     CODE           ?PR?_CREATEFILEORDIR?APP_INTERFACE
0046A0H   0046D2H   000033H   BYTE   UNIT     CODE           ?PR?_UART5_SENDSTRING?UART
0046D3H   004703H   000031H   BYTE   UNIT     CODE           ?PR?_COMPAREDGUSREGVALUE?USB_DGUS
004704H   004733H   000030H   BYTE   UNIT     CODE           ?PR?_RMFILEORDIR?APP_INTERFACE
004734H   00475DH   00002AH   BYTE   UNIT     CODE           ?PR?CH376GETINTSTATUS?FILE_SYS
00475EH   004784H   000027H   BYTE   UNIT     CODE           ?PR?WAIT376INTERRUPT?FILE_SYS
004785H   0047ABH   000027H   BYTE   UNIT     CODE           ?PR?PUTCHAR?PUTCHAR
0047ACH   0047CCH   000021H   BYTE   UNIT     CODE           ?PR?_ALPHABETTRANSFROM?FILE_SYS
0047CDH   0047EBH   00001FH   BYTE   UNIT     CODE           ?PR?_XWRITECH376CMD?PARA_PORT
0047ECH   004808H   00001DH   BYTE   UNIT     CODE           ?PR?_UART5_SENDBYTE?UART
004809H   004825H   00001DH   BYTE   UNIT     CODE           ?PR?_CH376WRITEVAR8?FILE_SYS
004826H   004840H   00001BH   BYTE   UNIT     CODE           ?PR?XREADCH376DATA?PARA_PORT
004841H   004857H   000017H   BYTE   UNIT     CODE           ?PR?_XWRITECH376DATA?PARA_PORT
004858H   00486EH   000017H   BYTE   UNIT     CODE           ?PR?_CH376DIRCREATE?FILE_SYS
00486FH   004883H   000015H   BYTE   UNIT     CODE           ?PR?MAIN?MAIN
004884H   004898H   000015H   BYTE   UNIT     CODE           ?PR?_CH376CLOSEFILE?FILE_SYS
004899H   0048ADH   000015H   BYTE   UNIT     CODE           ?PR?_CH376READVAR32?FILE_SYS
0048AEH   0048C2H   000015H   BYTE   UNIT     CODE           ?PR?_STRLEN?STRLEN
0048C3H   0048D3H   000011H   BYTE   UNIT     CODE           ?PR?MDELAY0_5US?PARA_PORT
0048D4H   0048E2H   00000FH   BYTE   UNIT     CODE           ?PR?CH376_PORT_INIT?PARA_PORT
0048E3H   0048EFH   00000DH   BYTE   UNIT     CODE           ?PR?UART5_INIT?UART
0048F0H   0048FCH   00000DH   BYTE   UNIT     CODE           ?PR?CHECKCONNECT?APP_INTERFACE
0048FDH   004909H   00000DH   BYTE   UNIT     CODE           ?PR?CHECKDISKINIT?APP_INTERFACE
00490AH   004916H   00000DH   BYTE   UNIT     CODE           ?PR?_CH376FILEOPENPATH?FILE_SYS
004917H   00491EH   000008H   BYTE   UNIT     CODE           ?PR?CH376ERROR?FILE_SYS
00491FH   004926H   000008H   BYTE   UNIT     CODE           ?PR?_CH376DELETEFILE?FILE_SYS
004927H   00492EH   000008H   BYTE   UNIT     CODE           ?PR?_CH376FILEOPEN?FILE_SYS
00492FH   004936H   000008H   BYTE   UNIT     CODE           ?PR?_CH376FILECREATE?FILE_SYS
004937H   00493DH   000007H   BYTE   UNIT     CODE           ?PR?CH376ENDDIRINFO?FILE_SYS
00493EH   004943H   000006H   BYTE   UNIT     CODE           ?PR?_CH376SENDCMDWAITINT?FILE_SYS
004944H   004948H   000005H   BYTE   UNIT     CODE           ?PR?CH376DISKCONNECT?FILE_SYS
004949H   00494DH   000005H   BYTE   UNIT     CODE           ?PR?CH376DISKREQSENSE?FILE_SYS
00494EH   004952H   000005H   BYTE   UNIT     CODE           ?PR?CH376DISKMOUNT?FILE_SYS
004953H   004957H   000005H   BYTE   UNIT     CODE           ?PR?CH376GETFILESIZE?FILE_SYS
004958H   004994H   00003DH   BYTE   UNIT     CONST          ?CO?APP_INTERFACE
004995H   0049BDH   000029H   BYTE   UNIT     CONST          ?CO?DGUS_CONFIG

* * * * * * * * * * *  X D A T A   M E M O R Y  * * * * * * * * * * * * *
008000H   00A5C6H   0025C7H   BYTE   UNIT     XDATA          _XDATA_GROUP_
LX51 LINKER/LOCATER V4.66.93.0                                                        07/09/2019  19:31:38  PAGE 5


00A5C7H   00A606H   000040H   BYTE   UNIT     XDATA          ?XD?FILE_SYS
00A607H   00A608H   000002H   BYTE   UNIT     XDATA          ?XD?MAIN

* * * * * * * * *   R E M O V E D     S E G M E N T S   * * * * * * * *
   *DEL*:           00007CH   BYTE   UNIT     CODE           ?PR?_SENDSTRING?UART
   *DEL*:           00000BH   BYTE   UNIT     XDATA          ?XD?_SENDSTRING?UART
   *DEL*:           000031H   BYTE   UNIT     CODE           ?PR?_SEND32BYTE?UART
   *DEL*:           000004H   BYTE   UNIT     XDATA          ?XD?_SEND32BYTE?UART
   *DEL*:           000016H   BYTE   UNIT     CODE           ?PR?XREADCH376STATUS?PARA_PORT
   *DEL*:           00001FH   BYTE   UNIT     CODE           ?PR?DELAY?APP_INTERFACE
   *DEL*:           000095H   BYTE   UNIT     CODE           ?PR?USBINIT?APP_INTERFACE
   *DEL*:           000002H   BYTE   UNIT     XDATA          ?XD?USBINIT?APP_INTERFACE
   *DEL*:           0000C7H   BYTE   UNIT     CODE           ?PR?_CH376SEPARATEPATH?FILE_SYS
   *DEL*:           000006H   BYTE   UNIT     XDATA          ?XD?_CH376SEPARATEPATH?FILE_SYS
   *DEL*:           00004BH   BYTE   UNIT     CODE           ?PR?_CH376FILECREATEPATH?FILE_SYS
   *DEL*:           000004H   BYTE   UNIT     XDATA          ?XD?_CH376FILECREATEPATH?FILE_SYS
   *DEL*:           000015H   BYTE   UNIT     CODE           ?PR?_CH376READVAR8?FILE_SYS
   *DEL*:           000001H   BYTE   UNIT     XDATA          ?XD?_CH376READVAR8?FILE_SYS
   *DEL*:           000053H   BYTE   UNIT     CODE           ?PR?_CH376WRITE32BITDAT?FILE_SYS
   *DEL*:           000004H   BYTE   UNIT     XDATA          ?XD?_CH376WRITE32BITDAT?FILE_SYS
   *DEL*:           000005H   BYTE   UNIT     CODE           ?PR?CH376GETDISKSTATUS?FILE_SYS
   *DEL*:           0000DAH   BYTE   UNIT     CODE           ?PR?_CH376DISKQUERY?FILE_SYS
   *DEL*:           000008H   BYTE   UNIT     XDATA          ?XD?_CH376DISKQUERY?FILE_SYS
   *DEL*:           00004CH   BYTE   UNIT     CODE           ?PR?_CH376DISKCAPACITY?FILE_SYS
   *DEL*:           000004H   BYTE   UNIT     XDATA          ?XD?_CH376DISKCAPACITY?FILE_SYS
   *DEL*:           000048H   BYTE   UNIT     CODE           ?PR?_CH376WRITEREQBLOCK?FILE_SYS
   *DEL*:           000005H   BYTE   UNIT     XDATA          ?XD?_CH376WRITEREQBLOCK?FILE_SYS
   *DEL*:           00003BH   BYTE   UNIT     CODE           ?PR?_CH376CHECKNAMESUM?FILE_SYS
   *DEL*:           000003H   BYTE   UNIT     XDATA          ?XD?_CH376CHECKNAMESUM?FILE_SYS
   *DEL*:           000060H   BYTE   UNIT     CODE           ?PR?_CH376BYTELOCATE?FILE_SYS
   *DEL*:           000004H   BYTE   UNIT     XDATA          ?XD?_CH376BYTELOCATE?FILE_SYS
   *DEL*:           00009FH   BYTE   UNIT     CODE           ?PR?_CH376BYTEREAD?FILE_SYS
   *DEL*:           000009H   BYTE   UNIT     XDATA          ?XD?_CH376BYTEREAD?FILE_SYS
   *DEL*:           000117H   BYTE   UNIT     CODE           ?PR?_CH376LOCATEINUPDIR?FILE_SYS
   *DEL*:           000004H   BYTE   UNIT     XDATA          ?XD?_CH376LOCATEINUPDIR?FILE_SYS
   *DEL*:           000086H   BYTE   UNIT     CODE           ?PR?_CH376LONGNAMEWRITE?FILE_SYS
   *DEL*:           000006H   BYTE   UNIT     XDATA          ?XD?_CH376LONGNAMEWRITE?FILE_SYS
   *DEL*:           00040FH   BYTE   UNIT     CODE           ?PR?_CH376CREATELONGNAME?FILE_SYS
   *DEL*:           00000FH   BYTE   UNIT     XDATA          ?XD?_CH376CREATELONGNAME?FILE_SYS
   *DEL*:           000002H   BYTE   UNIT     CONST          ?CO?FILE_SYS



OVERLAY MAP OF MODULE:   .\obj\T5L51 (MAIN)


FUNCTION/MODULE                            BIT_GROUP   DATA_GROUP   XDATA_GROUP
--> CALLED FUNCTION/MODULE                START  STOP  START  STOP  START  STOP
===============================================================================
T0_ISR_PC/MAIN                            ----- -----  ----- -----  ----- -----

*** NEW ROOT ****************************

?C_C51STARTUP                             ----- -----  ----- -----  ----- -----
  +--> MAIN/MAIN
  +--> ?C_INITSEG

MAIN/MAIN                                 ----- -----  ----- -----  ----- -----
  +--> INIT_CPU/SYS
  +--> CH376_PORT_INIT/PARA_PORT
  +--> UART5_INIT/UART
  +--> DGUSREGCONFIG/DGUS_CONFIG
  +--> USBMODULE/USB_DGUS
  +--> MESSEAGESHOW/DGUS_CONFIG
  +--> PAGEACK/DGUS_CONFIG
LX51 LINKER/LOCATER V4.66.93.0                                                        07/09/2019  19:31:38  PAGE 6



INIT_CPU/SYS                              ----- -----  ----- -----  ----- -----

CH376_PORT_INIT/PARA_PORT                 ----- -----  ----- -----  ----- -----

UART5_INIT/UART                           ----- -----  ----- -----  ----- -----

DGUSREGCONFIG/DGUS_CONFIG                 ----- -----  ----- -----  8000H 810FH
  +--> _WRITEDGUS/DGUS

_WRITEDGUS/DGUS                           ----- -----  ----- -----  959FH 95A7H

USBMODULE/USB_DGUS                        ----- -----  ----- -----  8000H 8000H
  +--> ACKDISKINIT/USB_DGUS
  +--> _COMPAREDGUSREGVALUE/USB_DGUS
  +--> ACKSYSTEMUP/USB_DGUS
  +--> ACKSEARCHFILE/USB_DGUS
  +--> ACKREADORWRITEFILE/USB_DGUS
  +--> ACKCREATEORDELPATH/USB_DGUS
  +--> ACKGETORSETPATH/USB_DGUS

ACKDISKINIT/USB_DGUS                      ----- -----  ----- -----  8001H 8004H
  +--> _READDGUS/DGUS
  +--> CHECKIC/APP_INTERFACE
  +--> CHECKCONNECT/APP_INTERFACE
  +--> CHECKDISKINIT/APP_INTERFACE
  +--> _WRITEDGUS/DGUS

_READDGUS/DGUS                            ----- -----  ----- -----  95A4H 95ADH

CHECKIC/APP_INTERFACE                     ----- -----  ----- -----  8005H 8005H
  +--> _XWRITECH376CMD/PARA_PORT
  +--> _XWRITECH376DATA/PARA_PORT
  +--> XREADCH376DATA/PARA_PORT

_XWRITECH376CMD/PARA_PORT                 ----- -----  ----- -----  ----- -----
  +--> MDELAY0_5US/PARA_PORT

MDELAY0_5US/PARA_PORT                     ----- -----  ----- -----  ----- -----

_XWRITECH376DATA/PARA_PORT                ----- -----  ----- -----  ----- -----
  +--> MDELAY0_5US/PARA_PORT

XREADCH376DATA/PARA_PORT                  ----- -----  ----- -----  ----- -----
  +--> MDELAY0_5US/PARA_PORT

CHECKCONNECT/APP_INTERFACE                ----- -----  ----- -----  ----- -----
  +--> CH376DISKCONNECT/FILE_SYS

CH376DISKCONNECT/FILE_SYS                 ----- -----  ----- -----  ----- -----
  +--> _CH376SENDCMDWAITINT/FILE_SYS

_CH376SENDCMDWAITINT/FILE_SYS             ----- -----  ----- -----  ----- -----
  +--> _XWRITECH376CMD/PARA_PORT
  +--> WAIT376INTERRUPT/FILE_SYS

WAIT376INTERRUPT/FILE_SYS                 ----- -----  ----- -----  A5C1H A5C4H
  +--> QUERY376INTERRUPT/FILE_SYS
  +--> CH376GETINTSTATUS/FILE_SYS

QUERY376INTERRUPT/FILE_SYS                ----- -----  ----- -----  ----- -----

CH376GETINTSTATUS/FILE_SYS                ----- -----  ----- -----  A5C5H A5C6H
  +--> _XWRITECH376CMD/PARA_PORT
  +--> XREADCH376DATA/PARA_PORT
LX51 LINKER/LOCATER V4.66.93.0                                                        07/09/2019  19:31:38  PAGE 7



CHECKDISKINIT/APP_INTERFACE               ----- -----  ----- -----  ----- -----
  +--> CH376DISKMOUNT/FILE_SYS

CH376DISKMOUNT/FILE_SYS                   ----- -----  ----- -----  ----- -----
  +--> _CH376SENDCMDWAITINT/FILE_SYS

_COMPAREDGUSREGVALUE/USB_DGUS             ----- -----  ----- -----  8001H 8006H
  +--> _READDGUS/DGUS

ACKSYSTEMUP/USB_DGUS                      ----- -----  ----- -----  8001H 800BH
  +--> _READDGUS/DGUS
  +--> _?SYSTEMUPDRIVER/USB_DGUS
  +--> _WRITEDGUS/DGUS

_?SYSTEMUPDRIVER/USB_DGUS                 ----- -----  ----- -----  ----- -----
  +--> _SYSTEMUPDATE/APP_INTERFACE

_SYSTEMUPDATE/APP_INTERFACE               ----- -----  ----- -----  800CH 8369H
  +--> _READDGUS/DGUS
  +--> _SYSUPGETFILEMESG/APP_INTERFACE
  +--> _SYSUPGETDWINFILE/APP_INTERFACE
  +--> _SYSUPFILEMATCH/APP_INTERFACE
  +--> _UART5_SENDSTRING/UART
  +--> _SYSUPFILESEND/APP_INTERFACE

_SYSUPGETFILEMESG/APP_INTERFACE           ----- -----  ----- -----  836AH 8375H
  +--> PRINTF/PRINTF

PRINTF/PRINTF                             20H.0 21H.0  0008H 000CH  837DH 83A4H
  +--> PUTCHAR/PUTCHAR

PUTCHAR/PUTCHAR                           ----- -----  ----- -----  ----- -----

_SYSUPGETDWINFILE/APP_INTERFACE           ----- -----  ----- -----  836AH 836DH
  +--> _CH376MATCHFILE/FILE_SYS

_CH376MATCHFILE/FILE_SYS                  ----- -----  ----- -----  8A64H 8AB4H
  +--> _CH376FILEOPENPATH/FILE_SYS
  +--> _CH376SETFILENAME/FILE_SYS
  +--> _XWRITECH376CMD/PARA_PORT
  +--> WAIT376INTERRUPT/FILE_SYS
  +--> _CH376READBLOCK/FILE_SYS
  +--> CH376ENDDIRINFO/FILE_SYS

_CH376FILEOPENPATH/FILE_SYS               ----- -----  ----- -----  ----- -----
  +--> _CH376FILEOPENDIR/FILE_SYS

_CH376FILEOPENDIR/FILE_SYS                ----- -----  ----- -----  A2B9H A2BDH
  +--> _CH376FILEOPEN/FILE_SYS

_CH376FILEOPEN/FILE_SYS                   ----- -----  ----- -----  ----- -----
  +--> _CH376SETFILENAME/FILE_SYS
  +--> _CH376SENDCMDWAITINT/FILE_SYS

_CH376SETFILENAME/FILE_SYS                ----- -----  ----- -----  A5C0H A5C3H
  +--> _XWRITECH376CMD/PARA_PORT
  +--> _XWRITECH376DATA/PARA_PORT

_CH376READBLOCK/FILE_SYS                  ----- -----  ----- -----  A2D2H A2D6H
  +--> _XWRITECH376CMD/PARA_PORT
  +--> XREADCH376DATA/PARA_PORT

CH376ENDDIRINFO/FILE_SYS                  ----- -----  ----- -----  ----- -----
  +--> _CH376WRITEVAR8/FILE_SYS
LX51 LINKER/LOCATER V4.66.93.0                                                        07/09/2019  19:31:38  PAGE 8



_CH376WRITEVAR8/FILE_SYS                  ----- -----  ----- -----  8AB5H 8AB6H
  +--> _XWRITECH376CMD/PARA_PORT
  +--> _XWRITECH376DATA/PARA_PORT

_SYSUPFILEMATCH/APP_INTERFACE             ----- -----  ----- -----  836AH 837CH
  +--> _STRSTR/STRSTR
  +--> _NUMBERSTRINGMATCH/APP_INTERFACE
  +--> PRINTF/PRINTF

_STRSTR/STRSTR                            ----- -----  ----- -----  837DH 8388H

_NUMBERSTRINGMATCH/APP_INTERFACE          ----- -----  ----- -----  837DH 8385H

_UART5_SENDSTRING/UART                    ----- -----  ----- -----  909DH 909FH
  +--> _UART5_SENDBYTE/UART

_UART5_SENDBYTE/UART                      ----- -----  ----- -----  ----- -----

_SYSUPFILESEND/APP_INTERFACE              ----- -----  ----- -----  836AH 958EH
  +--> _SYSUPPCAKSET/APP_INTERFACE
  +--> _READFILE/APP_INTERFACE
  +--> _SENDUPPACKTODGUS/APP_INTERFACE

_SYSUPPCAKSET/APP_INTERFACE               ----- -----  ----- -----  958FH 9599H

_READFILE/APP_INTERFACE                   ----- -----  ----- -----  958FH 95A7H
  +--> _ALPHABETTRANSFROM/FILE_SYS
  +--> _CH376FILEOPENPATH/FILE_SYS
  +--> CH376GETFILESIZE/FILE_SYS
  +--> _CH376SECLOCATE/FILE_SYS
  +--> _CH376SECTORREAD/FILE_SYS
  +--> CH376ERROR/FILE_SYS
  +--> _CH376CLOSEFILE/FILE_SYS

_ALPHABETTRANSFROM/FILE_SYS               ----- -----  ----- -----  ----- -----

CH376GETFILESIZE/FILE_SYS                 ----- -----  ----- -----  ----- -----
  +--> _CH376READVAR32/FILE_SYS

_CH376READVAR32/FILE_SYS                  ----- -----  ----- -----  A2B9H A2B9H
  +--> _XWRITECH376CMD/PARA_PORT
  +--> _XWRITECH376DATA/PARA_PORT
  +--> CH376READ32BITDAT/FILE_SYS

CH376READ32BITDAT/FILE_SYS                ----- -----  ----- -----  A2C6H A2C9H
  +--> XREADCH376DATA/PARA_PORT

_CH376SECLOCATE/FILE_SYS                  ----- -----  ----- -----  A2B9H A2BCH
  +--> _XWRITECH376CMD/PARA_PORT
  +--> _XWRITECH376DATA/PARA_PORT
  +--> WAIT376INTERRUPT/FILE_SYS

_CH376SECTORREAD/FILE_SYS                 ----- -----  ----- -----  A2B9H A2C5H
  +--> _XWRITECH376CMD/PARA_PORT
  +--> _XWRITECH376DATA/PARA_PORT
  +--> WAIT376INTERRUPT/FILE_SYS
  +--> XREADCH376DATA/PARA_PORT
  +--> CH376READ32BITDAT/FILE_SYS
  +--> _CH376DISKREADSEC/FILE_SYS

_CH376DISKREADSEC/FILE_SYS                ----- -----  ----- -----  A2C6H A2D1H
  +--> _XWRITECH376CMD/PARA_PORT
  +--> _XWRITECH376DATA/PARA_PORT
  +--> WAIT376INTERRUPT/FILE_SYS
LX51 LINKER/LOCATER V4.66.93.0                                                        07/09/2019  19:31:38  PAGE 9


  +--> _CH376READBLOCK/FILE_SYS
  +--> CH376DISKREQSENSE/FILE_SYS

CH376DISKREQSENSE/FILE_SYS                ----- -----  ----- -----  ----- -----
  +--> _CH376SENDCMDWAITINT/FILE_SYS

CH376ERROR/FILE_SYS                       ----- -----  ----- -----  ----- -----
  +--> _CH376CLOSEFILE/FILE_SYS

_CH376CLOSEFILE/FILE_SYS                  ----- -----  ----- -----  A5C0H A5C0H
  +--> _XWRITECH376CMD/PARA_PORT
  +--> _XWRITECH376DATA/PARA_PORT
  +--> WAIT376INTERRUPT/FILE_SYS

_SENDUPPACKTODGUS/APP_INTERFACE           ----- -----  ----- -----  958FH 959EH
  +--> _SYSUPWAITOSFINISHREAD/APP_INTERFACE
  +--> _WRITEDGUS/DGUS

_SYSUPWAITOSFINISHREAD/APP_INTERFACE      ----- -----  ----- -----  959FH 95A3H
  +--> _READDGUS/DGUS

ACKSEARCHFILE/USB_DGUS                    ----- -----  ----- -----  8695H 8A59H
  +--> _READDGUS/DGUS
  +--> _WRITEDGUS/DGUS
  +--> _READDGUSCLIENTSTRING/USB_DGUS
  +--> _MATCHFILE/APP_INTERFACE

_READDGUSCLIENTSTRING/USB_DGUS            ----- -----  ----- -----  909DH 90ABH
  +--> _READDGUS/DGUS
  +--> _STRLEN/STRLEN

_STRLEN/STRLEN                            ----- -----  ----- -----  ----- -----

_MATCHFILE/APP_INTERFACE                  ----- -----  ----- -----  8A5AH 8A63H
  +--> _ALPHABETTRANSFROM/FILE_SYS
  +--> _CH376MATCHFILE/FILE_SYS

ACKREADORWRITEFILE/USB_DGUS               ----- -----  ----- -----  8001H 909CH
  +--> _READDGUS/DGUS
  +--> _READDGUSCLIENTSTRING/USB_DGUS
  +--> _READFILE/APP_INTERFACE
  +--> _UART5_SENDSTRING/UART
  +--> _WRITEDGUSCLIENTSTRING/USB_DGUS
  +--> _WRITEFILE/APP_INTERFACE
  +--> _WRITEDGUS/DGUS

_WRITEDGUSCLIENTSTRING/USB_DGUS           ----- -----  ----- -----  909DH 90A5H
  +--> _WRITEDGUS/DGUS

_WRITEFILE/APP_INTERFACE                  ----- -----  ----- -----  909DH A2B8H
  +--> _ALPHABETTRANSFROM/FILE_SYS
  +--> _CH376FILEOPENPATH/FILE_SYS
  +--> _CH376CREATEFILEORDIR/APP_INTERFACE
  +--> CH376GETFILESIZE/FILE_SYS
  +--> _CH376SECTORREAD/FILE_SYS
  +--> _CH376SECLOCATE/FILE_SYS
  +--> CH376ERROR/FILE_SYS
  +--> _STRNCPY/STRNCPY
  +--> _CH376SECTORWRITE/FILE_SYS
  +--> _CH376WRITEVAR32/FILE_SYS
  +--> _CH376CLOSEFILE/FILE_SYS

_CH376CREATEFILEORDIR/APP_INTERFACE       ----- -----  ----- -----  A2B9H A5BFH
  +--> _CH376FILEOPEN/FILE_SYS
  +--> _CH376FILECREATE/FILE_SYS
LX51 LINKER/LOCATER V4.66.93.0                                                        07/09/2019  19:31:38  PAGE 10


  +--> _CH376DELETEFILE/FILE_SYS
  +--> CH376ERROR/FILE_SYS
  +--> _CH376DIRCREATE/FILE_SYS

_CH376FILECREATE/FILE_SYS                 ----- -----  ----- -----  ----- -----
  +--> _CH376SETFILENAME/FILE_SYS
  +--> _CH376SENDCMDWAITINT/FILE_SYS

_CH376DELETEFILE/FILE_SYS                 ----- -----  ----- -----  ----- -----
  +--> _CH376SETFILENAME/FILE_SYS
  +--> _CH376SENDCMDWAITINT/FILE_SYS

_CH376DIRCREATE/FILE_SYS                  ----- -----  ----- -----  ----- -----
  +--> _CH376SETFILENAME/FILE_SYS
  +--> _CH376WRITEVAR32/FILE_SYS
  +--> _CH376SENDCMDWAITINT/FILE_SYS

_CH376WRITEVAR32/FILE_SYS                 ----- -----  ----- -----  A5C0H A5C4H
  +--> _XWRITECH376CMD/PARA_PORT
  +--> _XWRITECH376DATA/PARA_PORT

_STRNCPY/STRNCPY                          ----- -----  ----- -----  A2B9H A2C2H

_CH376SECTORWRITE/FILE_SYS                ----- -----  ----- -----  A2B9H A2C5H
  +--> _XWRITECH376CMD/PARA_PORT
  +--> _XWRITECH376DATA/PARA_PORT
  +--> WAIT376INTERRUPT/FILE_SYS
  +--> XREADCH376DATA/PARA_PORT
  +--> CH376READ32BITDAT/FILE_SYS
  +--> _CH376DISKWRITESEC/FILE_SYS

_CH376DISKWRITESEC/FILE_SYS               ----- -----  ----- -----  A2C6H A2D1H
  +--> _XWRITECH376CMD/PARA_PORT
  +--> _XWRITECH376DATA/PARA_PORT
  +--> WAIT376INTERRUPT/FILE_SYS
  +--> _CH376WRITEHOSTBLOCK/FILE_SYS
  +--> CH376DISKREQSENSE/FILE_SYS

_CH376WRITEHOSTBLOCK/FILE_SYS             ----- -----  ----- -----  A2D2H A2D5H
  +--> _XWRITECH376CMD/PARA_PORT
  +--> _XWRITECH376DATA/PARA_PORT

ACKCREATEORDELPATH/USB_DGUS               ----- -----  ----- -----  8001H 808CH
  +--> _READDGUS/DGUS
  +--> _READDGUSCLIENTSTRING/USB_DGUS
  +--> _CREATEFILEORDIR/APP_INTERFACE
  +--> _RMFILEORDIR/APP_INTERFACE
  +--> _WRITEDGUS/DGUS

_CREATEFILEORDIR/APP_INTERFACE            ----- -----  ----- -----  808DH 8090H
  +--> _ALPHABETTRANSFROM/FILE_SYS
  +--> _CH376CREATEFILEORDIR/APP_INTERFACE

_RMFILEORDIR/APP_INTERFACE                ----- -----  ----- -----  808DH 808FH
  +--> _ALPHABETTRANSFROM/FILE_SYS
  +--> _CH376FILEDELETEPATH/FILE_SYS

_CH376FILEDELETEPATH/FILE_SYS             ----- -----  ----- -----  8090H 8092H
  +--> _CH376FILEOPENPATH/FILE_SYS
  +--> _CH376SETFILENAME/FILE_SYS
  +--> _CH376SENDCMDWAITINT/FILE_SYS

ACKGETORSETPATH/USB_DGUS                  ----- -----  ----- -----  8001H 809BH
  +--> _READDGUS/DGUS
  +--> _READDGUSCLIENTSTRING/USB_DGUS
LX51 LINKER/LOCATER V4.66.93.0                                                        07/09/2019  19:31:38  PAGE 11


  +--> _GETFILEMESSAGE/APP_INTERFACE
  +--> _WRITEDGUS/DGUS
  +--> _SETFILEMESSAGE/APP_INTERFACE

_GETFILEMESSAGE/APP_INTERFACE             ----- -----  ----- -----  809CH 80C8H
  +--> _ALPHABETTRANSFROM/FILE_SYS
  +--> _CH376GETFILEMESSAGE/FILE_SYS

_CH376GETFILEMESSAGE/FILE_SYS             ----- -----  ----- -----  80C9H 8112H
  +--> _CH376FILEOPENPATH/FILE_SYS
  +--> _XWRITECH376CMD/PARA_PORT
  +--> _XWRITECH376DATA/PARA_PORT
  +--> WAIT376INTERRUPT/FILE_SYS
  +--> _CH376CLOSEFILE/FILE_SYS
  +--> _CH376READBLOCK/FILE_SYS

_SETFILEMESSAGE/APP_INTERFACE             ----- -----  ----- -----  809CH 80C7H
  +--> _ALPHABETTRANSFROM/FILE_SYS
  +--> _CH376SETFILEMESSAGE/FILE_SYS

_CH376SETFILEMESSAGE/FILE_SYS             ----- -----  ----- -----  80C8H 8111H
  +--> _CH376FILEOPENPATH/FILE_SYS
  +--> _XWRITECH376CMD/PARA_PORT
  +--> _XWRITECH376DATA/PARA_PORT
  +--> WAIT376INTERRUPT/FILE_SYS
  +--> _CH376CLOSEFILE/FILE_SYS

MESSEAGESHOW/DGUS_CONFIG                  ----- -----  ----- -----  8000H 8034H
  +--> _READDGUS/DGUS
  +--> PRINTF/PRINTF
  +--> _WRITEDGUS/DGUS

PAGEACK/DGUS_CONFIG                       ----- -----  ----- -----  8000H 804AH
  +--> _READDGUS/DGUS
  +--> _PAGEDRIVER/DGUS_CONFIG
  +--> _WRITEDGUS/DGUS

_PAGEDRIVER/DGUS_CONFIG                   ----- -----  ----- -----  804BH 8694H
  +--> ACKSEARCHFILE/USB_DGUS
  +--> _READDGUS/DGUS
  +--> _WRITEDGUS/DGUS

?C_INITSEG                                ----- -----  ----- -----  ----- -----



PUBLIC SYMBOLS OF MODULE:  .\obj\T5L51 (MAIN)


      VALUE       CLASS    TYPE      PUBLIC SYMBOL NAME
      =================================================
*DEL*:00000000H   XDATA    BYTE      ?_CH376ByteRead?BYTE
*DEL*:00000000H   XDATA    BYTE      ?_CH376CreateLongName?BYTE
      0200A2C6H   XDATA    BYTE      ?_CH376DiskReadSec?BYTE
      0200A2C6H   XDATA    BYTE      ?_CH376DiskWriteSec?BYTE
      020080C9H   XDATA    BYTE      ?_CH376GetFileMessage?BYTE
      02008A64H   XDATA    BYTE      ?_CH376MatchFile?BYTE
      0200A2B9H   XDATA    BYTE      ?_CH376SectorRead?BYTE
      0200A2B9H   XDATA    BYTE      ?_CH376SectorWrite?BYTE
      020080C8H   XDATA    BYTE      ?_CH376SetFileMessage?BYTE
      0200A5C0H   XDATA    BYTE      ?_CH376WriteVar32?BYTE
      02008001H   XDATA    BYTE      ?_CompareDgusRegValue?BYTE
      0200809CH   XDATA    BYTE      ?_GetFileMessage?BYTE
      02008A5AH   XDATA    BYTE      ?_MatchFile?BYTE
      0200837DH   XDATA    BYTE      ?_NumberStringMatch?BYTE
LX51 LINKER/LOCATER V4.66.93.0                                                        07/09/2019  19:31:38  PAGE 12


      0200837DH   XDATA    ---       ?_PRINTF517?BYTE
      0200837DH   XDATA    ---       ?_PRINTF?BYTE
      020095A4H   XDATA    BYTE      ?_ReadDGUS?BYTE
      0200909DH   XDATA    BYTE      ?_ReadDgusClientString?BYTE
      0200958FH   XDATA    BYTE      ?_ReadFile?BYTE
      0200958FH   XDATA    BYTE      ?_SendUpPackToDGUS?BYTE
      0200809CH   XDATA    BYTE      ?_SetFileMessage?BYTE
      0200837DH   XDATA    ---       ?_SPRINTF517?BYTE
      0200837DH   XDATA    ---       ?_SPRINTF?BYTE
      0200A2B9H   XDATA    ---       ?_strncpy?BYTE
      0200837DH   XDATA    ---       ?_strstr?BYTE
      0200836AH   XDATA    BYTE      ?_SysUpFileMatch?BYTE
      0200836AH   XDATA    BYTE      ?_SysUpFileSend?BYTE
      0200836AH   XDATA    BYTE      ?_SysUpGetFileMesg?BYTE
      0200958FH   XDATA    BYTE      ?_SysUpPcakSet?BYTE
      0200959FH   XDATA    BYTE      ?_WriteDGUS?BYTE
      0200909DH   XDATA    BYTE      ?_WriteDgusClientString?BYTE
      0200909DH   XDATA    BYTE      ?_WriteFile?BYTE
      0100054BH   CODE     ---       ?C?ADDXBP
      01000765H   CODE     ---       ?C?CCASE
      0100023CH   CODE     ---       ?C?CILDPTR
      0100020FH   CODE     ---       ?C?CLDOPTR
      010001F6H   CODE     ---       ?C?CLDPTR
      00000000H   NUMBER   ---       ?C?CODESEG
      010001D0H   CODE     ---       ?C?COPY
      01000270H   CODE     ---       ?C?CSTOPTR
      0100025EH   CODE     ---       ?C?CSTPTR
      01000376H   CODE     ---       ?C?IILDPTR
      010002E7H   CODE     ---       ?C?IILDX
      010002FDH   CODE     ---       ?C?ILDIX
      0100033EH   CODE     ---       ?C?ILDOPTR
      01000313H   CODE     ---       ?C?ILDPTR
      010003CDH   CODE     ---       ?C?ISTOPTR
      010003AEH   CODE     ---       ?C?ISTPTR
      010006B5H   CODE     ---       ?C?LLDCODE
      010006EBH   CODE     ---       ?C?LLDCODE0
      01000691H   CODE     ---       ?C?LLDIDATA
      010006C5H   CODE     ---       ?C?LLDIDATA0
      010004C8H   CODE     ---       ?C?LLDIXDATA
      010004BFH   CODE     ---       ?C?LLDIXDATA1
      010004C1H   CODE     ---       ?C?LLDIXDATA8
      01000431H   CODE     ---       ?C?LLDOPTR
      010006A9H   CODE     ---       ?C?LLDPDATA
      010006DEH   CODE     ---       ?C?LLDPDATA0
      0100049FH   CODE     ---       ?C?LLDPTR0
      0100069DH   CODE     ---       ?C?LLDXDATA
      010006D2H   CODE     ---       ?C?LLDXDATA0
      0100041EH   CODE     ---       ?C?LSHL
      010006FBH   CODE     ---       ?C?LSTIDATA
      01000713H   CODE     ---       ?C?LSTKIDATA
      0100072CH   CODE     ---       ?C?LSTKPDATA
      01000531H   CODE     ---       ?C?LSTKPTR
      01000500H   CODE     ---       ?C?LSTKXDATA
      0100047BH   CODE     ---       ?C?LSTOPTR
      01000707H   CODE     ---       ?C?LSTPDATA
      01000461H   CODE     ---       ?C?LSTPTR
      010004F4H   CODE     ---       ?C?LSTXDATA
      01000665H   CODE     ---       ?C?MEMSET
      01000745H   CODE     ---       ?C?PLDIXDATA
      0100075CH   CODE     ---       ?C?PSTXDATA
      01000648H   CODE     ---       ?C?STRCPY
      01000292H   CODE     ---       ?C?UIDIV
      010003FAH   CODE     ---       ?C?ULCMP
      0100040BH   CODE     ---       ?C?ULSHR
      0100056FH   CODE     ---       ?C?XBPOFF
LX51 LINKER/LOCATER V4.66.93.0                                                        07/09/2019  19:31:38  PAGE 13


      00000000H   NUMBER   ---       ?C?XDATASEG
      01003F9FH   CODE     ---       ?C_START
      01000000H   CODE     ---       ?C_STARTUP
      0000000DH   DATA     ---       ?C_XBP
      0100259DH   CODE     ---       _?SystemUpDriver
      010047ACH   CODE     ---       _AlphabetTransfrom
*DEL*:0000000EH   CODE     ---       _CH376ByteLocate
*DEL*:00000018H   CODE     ---       _CH376ByteRead
*DEL*:00000000H   CODE     ---       _CH376CheckNameSum
      01004884H   CODE     ---       _CH376CloseFile
      01002AAFH   CODE     ---       _CH376CreateFileOrDir
*DEL*:00000000H   CODE     ---       _CH376CreateLongName
      0100491FH   CODE     ---       _CH376DeleteFile
      01004858H   CODE     ---       _CH376DirCreate
*DEL*:00000000H   CODE     ---       _CH376DiskCapacity
*DEL*:00000000H   CODE     ---       _CH376DiskQuery
      010038DFH   CODE     ---       _CH376DiskReadSec
      010037DBH   CODE     ---       _CH376DiskWriteSec
      0100492FH   CODE     ---       _CH376FileCreate
*DEL*:00000000H   CODE     ---       _CH376FileCreatePath
      0100425FH   CODE     ---       _CH376FileDeletePath
      01004927H   CODE     ---       _CH376FileOpen
      01003E19H   CODE     ---       _CH376FileOpenDir
      01004912H   CODE     ---       _CH376FileOpenPath
      01002195H   CODE     ---       _CH376GetFileMessage
*DEL*:00000000H   CODE     ---       _CH376LocateInUpDir
*DEL*:0000000AH   CODE     ---       _CH376LongNameWrite
      01002C51H   CODE     ---       _CH376MatchFile
      01004461H   CODE     ---       _CH376ReadBlock
      01004899H   CODE     ---       _CH376ReadVar32
*DEL*:00000000H   CODE     ---       _CH376ReadVar8
      010045B7H   CODE     ---       _CH376SecLocate
      01003BB3H   CODE     ---       _CH376SectorRead
      01003AE1H   CODE     ---       _CH376SectorWrite
      0100493EH   CODE     ---       _CH376SendCmdWaitInt
*DEL*:00000000H   CODE     ---       _CH376SeparatePath
      01001D37H   CODE     ---       _CH376SetFileMessage
      0100433AH   CODE     ---       _CH376SetFileName
*DEL*:00000000H   CODE     ---       _CH376Write32bitDat
      010044A9H   CODE     ---       _CH376WriteHostBlock
*DEL*:00000000H   CODE     ---       _CH376WriteReqBlock
      01004403H   CODE     ---       _CH376WriteVar32
      01004809H   CODE     ---       _CH376WriteVar8
      010046DFH   CODE     ---       _CompareDgusRegValue
      0100466AH   CODE     ---       _CreateFileOrDir
      010030A1H   CODE     ---       _GetFileMessage
      0100416BH   CODE     ---       _MatchFile
      01003FE4H   CODE     ---       _NumberStringMatch
      0100334AH   CODE     ---       _PageDriver
      01000F8BH   CODE     ---       _PRINTF
      01000F8BH   CODE     ---       _PRINTF517
      01004785H   CODE     ---       _PUTCHAR
      01002752H   CODE     ---       _ReadDGUS
      010039E2H   CODE     ---       _ReadDgusClientString
      010015A2H   CODE     ---       _ReadFile
      01004704H   CODE     ---       _RmFileOrDir
*DEL*:00000000H   CODE     ---       _Send32Byte
*DEL*:00000000H   CODE     ---       _SendString
      01003EC1H   CODE     ---       _SendUpPackToDGUS
      010031FFH   CODE     ---       _SetFileMessage
      01000F85H   CODE     ---       _SPRINTF
      01000F85H   CODE     ---       _SPRINTF517
      010048AEH   CODE     ---       _STRLEN
      0100439BH   CODE     ---       _strncpy
      01003D4FH   CODE     ---       _strstr
LX51 LINKER/LOCATER V4.66.93.0                                                        07/09/2019  19:31:38  PAGE 14


      01002DCEH   CODE     ---       _SystemUpdate
      01001AE0H   CODE     ---       _SysUpFileMatch
      01001285H   CODE     ---       _SysUpFileSend
      010044EFH   CODE     ---       _SysUpGetDWINFile
      01001856H   CODE     ---       _SysUpGetFileMesg
      01003489H   CODE     ---       _SysUpPcakSet
      01004584H   CODE     ---       _SysUpWaitOsFinishRead
      010047FDH   CODE     ---       _UART5_Sendbyte
      010046A0H   CODE     ---       _UART5_SendString
      01002901H   CODE     ---       _WriteDGUS
      010042C9H   CODE     ---       _WriteDgusClientString
      01000B7CH   CODE     ---       _WriteFile
      010047CDH   CODE     ---       _xWriteCH376Cmd
      01004841H   CODE     ---       _xWriteCH376Data
*SFR* 000000D0H.6 DATA     BIT       AC
*SFR* 000000E0H   DATA     BYTE      ACC
      0100000EH   CODE     ---       AckCreateOrDelPath
      010041EAH   CODE     ---       AckDiskInit
      01002F38H   CODE     ---       AckGetOrSetPath
      01001F73H   CODE     ---       AckReadOrWriteFile
      0100239EH   CODE     ---       AckSearchFile
      01004068H   CODE     ---       AckSystemUp
*SFR* 000000D8H   DATA     BYTE      ADCON
*SFR* 000000F1H   DATA     BYTE      ADR_H
*SFR* 000000F4H   DATA     BYTE      ADR_INC
*SFR* 000000F3H   DATA     BYTE      ADR_L
*SFR* 000000F2H   DATA     BYTE      ADR_M
*SFR* 000000F8H.4 DATA     BIT       APP_ACK
*SFR* 000000F8H.6 DATA     BIT       APP_EN
*SFR* 000000F8H.7 DATA     BIT       APP_REQ
*SFR* 000000F8H.5 DATA     BIT       APP_RW
*SFR* 000000F0H   DATA     BYTE      B
*SFR* 000000D9H   DATA     BYTE      BODE2_DIV_H
*SFR* 000000E7H   DATA     BYTE      BODE2_DIV_L
*SFR* 000000AEH   DATA     BYTE      BODE3_DIV_H
*SFR* 000000AFH   DATA     BYTE      BODE3_DIV_L
*SFR* 0000008FH   DATA     BYTE      CAN_CR
*SFR* 000000E8H   DATA     BYTE      CAN_ET
*SFR* 00000091H   DATA     BYTE      CAN_IR
*SFR* 00000090H.0 DATA     BIT       CH376_A0
*SFR* 00000090H.1 DATA     BIT       CH376_CS
*SFR* 00000090H.4 DATA     BIT       CH376_INT_WIRE
      010048D4H   CODE     ---       CH376_PORT_INIT
*SFR* 00000090H.3 DATA     BIT       CH376_RD
*SFR* 00000090H.2 DATA     BIT       CH376_WR
      01004944H   CODE     ---       CH376DiskConnect
      0100494EH   CODE     ---       CH376DiskMount
      01004949H   CODE     ---       CH376DiskReqSense
      01004937H   CODE     ---       CH376EndDirInfo
      01004917H   CODE     ---       CH376Error
*DEL*:00000000H   CODE     ---       CH376GetDiskStatus
      01004953H   CODE     ---       CH376GetFileSize
      01004734H   CODE     ---       CH376GetIntStatus
      010040EBH   CODE     ---       CH376Read32bitDat
      010048F0H   CODE     ---       CheckConnect
      010048FDH   CODE     ---       CheckDiskInit
      01004533H   CODE     ---       CheckIC
*SFR* 0000008EH   DATA     BYTE      CKCON
*SFR* 000000D0H.7 DATA     BIT       CY
*SFR* 00000095H   DATA     BYTE      D_PAGESEL
*SFR* 000000FDH   DATA     BYTE      DATA0
*SFR* 000000FCH   DATA     BYTE      DATA1
*SFR* 000000FBH   DATA     BYTE      DATA2
*SFR* 000000FAH   DATA     BYTE      DATA3
*DEL*:00000000H   CODE     ---       Delay
LX51 LINKER/LOCATER V4.66.93.0                                                        07/09/2019  19:31:38  PAGE 15


      010035A8H   CODE     ---       DgusRegConfig
*SFR* 000000E6H   DATA     BYTE      DIV_MODE
*SFR* 00000093H   DATA     BYTE      DPC
*SFR* 00000083H   DATA     BYTE      DPH
*SFR* 00000082H   DATA     BYTE      DPL
*SFR* 000000A8H.7 DATA     BIT       EA
*SFR* 000000B8H.1 DATA     BIT       ECAN
*SFR* 000000A8H.4 DATA     BIT       ES0
*SFR* 000000B8H.3 DATA     BIT       ES2R
*SFR* 000000B8H.2 DATA     BIT       ES2T
*SFR* 000000B8H.5 DATA     BIT       ES3R
*SFR* 000000B8H.4 DATA     BIT       ES3T
*SFR* 000000A8H.1 DATA     BIT       ET0
*SFR* 000000A8H.3 DATA     BIT       ET1
*SFR* 000000A8H.5 DATA     BIT       ET2
*SFR* 000000A8H.0 DATA     BIT       EX0
*SFR* 000000A8H.2 DATA     BIT       EX1
*SFR* 000000FEH   DATA     BYTE      EXADR
*SFR* 000000FFH   DATA     BYTE      EXDATA
*SFR* 000000D0H.5 DATA     BIT       F0
*SFR* 000000D0H.1 DATA     BIT       F1
      0200A5C7H   XDATA    ---       GlobalBuf
*SFR* 00000088H.1 DATA     BIT       IE0
*SFR* 00000088H.3 DATA     BIT       IE1
*SFR* 000000A8H   DATA     BYTE      IEN0
*SFR* 000000B8H   DATA     BYTE      IEN1
*SFR* 0000009AH   DATA     BYTE      IEN2
*SFR* 000000D1H   DATA     BYTE      IEN3
      010045F8H   CODE     ---       INIT_CPU
*SFR* 000000A9H   DATA     BYTE      IP0
*SFR* 000000B9H   DATA     BYTE      IP1
*SFR* 000000C0H   DATA     BYTE      IRCON
*SFR* 000000BFH   DATA     BYTE      IRCON2
*SFR* 00000088H.0 DATA     BIT       IT0
*SFR* 00000088H.2 DATA     BIT       IT1
*SFR* 000000E5H   DATA     BYTE      MAC_MODE
      0100486FH   CODE     ---       main
      010048C3H   CODE     ---       mDelay0_5uS
      0100078BH   CODE     ---       MesseageShow
*SFR* 000000C9H   DATA     BYTE      MUX_SEL
*SFR* 000000D0H.2 DATA     BIT       OV
*SFR* 000000D0H.0 DATA     BIT       P
*SFR* 00000080H   DATA     BYTE      P0
*SFR* 000000B7H   DATA     BYTE      P0MDOUT
*SFR* 00000090H   DATA     BYTE      P1
*SFR* 000000BCH   DATA     BYTE      P1MDOUT
*SFR* 000000A0H   DATA     BYTE      P2
*SFR* 000000BDH   DATA     BYTE      P2MDOUT
*SFR* 000000B0H   DATA     BYTE      P3
*SFR* 000000BEH   DATA     BYTE      P3MDOUT
      01003C85H   CODE     ---       PageAck
*SFR* 00000094H   DATA     BYTE      PAGESEL
*SFR* 00000087H   DATA     BYTE      PCON
*SFR* 000000F9H   DATA     BYTE      PORTDRV
*SFR* 000000D0H   DATA     BYTE      PSW
      01000003H   CODE     ---       Query376Interrupt
*SFR* 000000F8H   DATA     BYTE      RAMMODE
*SFR* 00000098H.0 DATA     BIT       RI0
*SFR* 000000D0H.3 DATA     BIT       RS0
*SFR* 000000D0H.4 DATA     BIT       RS1
*SFR* 00000099H   DATA     BYTE      SBUF0
*SFR* 0000009CH   DATA     BYTE      SBUF1
*SFR* 0000009FH   DATA     BYTE      SBUF2_RX
*SFR* 0000009EH   DATA     BYTE      SBUF2_TX
*SFR* 000000ADH   DATA     BYTE      SBUF3_RX
LX51 LINKER/LOCATER V4.66.93.0                                                        07/09/2019  19:31:38  PAGE 16


*SFR* 000000ACH   DATA     BYTE      SBUF3_TX
*SFR* 00000098H   DATA     BYTE      SCON0
*SFR* 0000009BH   DATA     BYTE      SCON1
*SFR* 00000097H   DATA     BYTE      SCON2R
*SFR* 00000096H   DATA     BYTE      SCON2T
*SFR* 000000ABH   DATA     BYTE      SCON3R
*SFR* 000000A7H   DATA     BYTE      SCON3T
*SFR* 00000081H   DATA     BYTE      SP
*SFR* 000000BAH   DATA     BYTE      SREL0H
*SFR* 000000AAH   DATA     BYTE      SREL0L
*SFR* 000000BBH   DATA     BYTE      SREL1H
*SFR* 0000009DH   DATA     BYTE      SREL1L
      01004633H   CODE     ---       T0_ISR_PC
*SFR* 000000C8H   DATA     BYTE      T2CON
*SFR* 00000088H   DATA     BYTE      TCON
*SFR* 00000088H.5 DATA     BIT       TF0
*SFR* 00000088H.7 DATA     BIT       TF1
*SFR* 000000C0H.6 DATA     BIT       TF2
*SFR* 0000008CH   DATA     BYTE      TH0
*SFR* 0000008DH   DATA     BYTE      TH1
*SFR* 000000CDH   DATA     BYTE      TH2
*SFR* 00000098H.1 DATA     BIT       TI0
      0200A607H   XDATA    WORD      TIMES
*SFR* 0000008AH   DATA     BYTE      TL0
*SFR* 0000008BH   DATA     BYTE      TL1
*SFR* 000000CCH   DATA     BYTE      TL2
*SFR* 00000089H   DATA     BYTE      TMOD
*SFR* 00000088H.4 DATA     BIT       TR0
*SFR* 00000088H.6 DATA     BIT       TR1
*SFR* 000000C8H.0 DATA     BIT       TR2
*SFR* 000000CBH   DATA     BYTE      TRL2H
*SFR* 000000CAH   DATA     BYTE      TRL2L
      010048E3H   CODE     ---       UART5_Init
*DEL*:00000000H   CODE     ---       USBInit
      010036C2H   CODE     ---       USBModule
      0100475EH   CODE     ---       Wait376Interrupt
      01004826H   CODE     ---       xReadCH376Data
*DEL*:00000000H   CODE     ---       xReadCH376Status



SYMBOL TABLE OF MODULE:  .\obj\T5L51 (MAIN)

      VALUE       REP       CLASS    TYPE      SYMBOL NAME
      ====================================================
      ---         MODULE    ---      ---       MAIN
      0200A607H   PUBLIC    XDATA    WORD      TIMES
      01004633H   PUBLIC    CODE     ---       T0_ISR_PC
      0100486FH   PUBLIC    CODE     ---       main
      000000F1H   SFRSYM    DATA     BYTE      ADR_H
      00000080H   SFRSYM    DATA     BYTE      P0
      00000090H   SFRSYM    DATA     BYTE      P1
      000000A0H   SFRSYM    DATA     BYTE      P2
      000000B0H   SFRSYM    DATA     BYTE      P3
      000000F3H   SFRSYM    DATA     BYTE      ADR_L
      000000D0H.6 SFRSYM    DATA     BIT       AC
      00000094H   SFRSYM    DATA     BYTE      PAGESEL
      000000F2H   SFRSYM    DATA     BYTE      ADR_M
      000000A8H.7 SFRSYM    DATA     BIT       EA
      000000F8H   SFRSYM    DATA     BYTE      RAMMODE
      000000B7H   SFRSYM    DATA     BYTE      P0MDOUT
      000000BCH   SFRSYM    DATA     BYTE      P1MDOUT
      000000A8H   SFRSYM    DATA     BYTE      IEN0
      000000BDH   SFRSYM    DATA     BYTE      P2MDOUT
      000000B8H   SFRSYM    DATA     BYTE      IEN1
LX51 LINKER/LOCATER V4.66.93.0                                                        07/09/2019  19:31:38  PAGE 17


      000000BEH   SFRSYM    DATA     BYTE      P3MDOUT
      0000009AH   SFRSYM    DATA     BYTE      IEN2
      000000D1H   SFRSYM    DATA     BYTE      IEN3
      00000090H.4 SFRSYM    DATA     BIT       CH376_INT_WIRE
      000000F8H.4 SFRSYM    DATA     BIT       APP_ACK
      000000F4H   SFRSYM    DATA     BYTE      ADR_INC
      000000B8H.1 SFRSYM    DATA     BIT       ECAN
      000000D0H.7 SFRSYM    DATA     BIT       CY
      000000B8H.3 SFRSYM    DATA     BIT       ES2R
      000000B8H.5 SFRSYM    DATA     BIT       ES3R
      000000B8H.2 SFRSYM    DATA     BIT       ES2T
      000000B8H.4 SFRSYM    DATA     BIT       ES3T
      00000090H.3 SFRSYM    DATA     BIT       CH376_RD
      00000090H.1 SFRSYM    DATA     BIT       CH376_CS
      00000081H   SFRSYM    DATA     BYTE      SP
      000000D0H.2 SFRSYM    DATA     BIT       OV
      00000095H   SFRSYM    DATA     BYTE      D_PAGESEL
      000000F8H.7 SFRSYM    DATA     BIT       APP_REQ
      000000BFH   SFRSYM    DATA     BYTE      IRCON2
      000000BAH   SFRSYM    DATA     BYTE      SREL0H
      000000BBH   SFRSYM    DATA     BYTE      SREL1H
      00000087H   SFRSYM    DATA     BYTE      PCON
      000000F9H   SFRSYM    DATA     BYTE      PORTDRV
      000000AAH   SFRSYM    DATA     BYTE      SREL0L
      0000009DH   SFRSYM    DATA     BYTE      SREL1L
      00000089H   SFRSYM    DATA     BYTE      TMOD
      00000088H   SFRSYM    DATA     BYTE      TCON
      00000090H.2 SFRSYM    DATA     BIT       CH376_WR
      000000FFH   SFRSYM    DATA     BYTE      EXDATA
      00000097H   SFRSYM    DATA     BYTE      SCON2R
      000000ABH   SFRSYM    DATA     BYTE      SCON3R
      000000D9H   SFRSYM    DATA     BYTE      BODE2_DIV_H
      000000AEH   SFRSYM    DATA     BYTE      BODE3_DIV_H
      00000096H   SFRSYM    DATA     BYTE      SCON2T
      000000A7H   SFRSYM    DATA     BYTE      SCON3T
      000000E7H   SFRSYM    DATA     BYTE      BODE2_DIV_L
      00000088H.1 SFRSYM    DATA     BIT       IE0
      000000AFH   SFRSYM    DATA     BYTE      BODE3_DIV_L
      00000088H.3 SFRSYM    DATA     BIT       IE1
      000000C9H   SFRSYM    DATA     BYTE      MUX_SEL
      000000F0H   SFRSYM    DATA     BYTE      B
      000000E0H   SFRSYM    DATA     BYTE      ACC
      0000008FH   SFRSYM    DATA     BYTE      CAN_CR
      000000A8H.4 SFRSYM    DATA     BIT       ES0
      000000A9H   SFRSYM    DATA     BYTE      IP0
      000000A8H.1 SFRSYM    DATA     BIT       ET0
      000000B9H   SFRSYM    DATA     BYTE      IP1
      000000A8H.3 SFRSYM    DATA     BIT       ET1
      00000088H.5 SFRSYM    DATA     BIT       TF0
      000000FDH   SFRSYM    DATA     BYTE      DATA0
      000000A8H.5 SFRSYM    DATA     BIT       ET2
      00000098H.0 SFRSYM    DATA     BIT       RI0
      00000088H.7 SFRSYM    DATA     BIT       TF1
      000000E8H   SFRSYM    DATA     BYTE      CAN_ET
      000000FCH   SFRSYM    DATA     BYTE      DATA1
      000000C0H.6 SFRSYM    DATA     BIT       TF2
      0000008CH   SFRSYM    DATA     BYTE      TH0
      000000FBH   SFRSYM    DATA     BYTE      DATA2
      000000A8H.0 SFRSYM    DATA     BIT       EX0
      00000098H.1 SFRSYM    DATA     BIT       TI0
      0000008DH   SFRSYM    DATA     BYTE      TH1
      00000088H.0 SFRSYM    DATA     BIT       IT0
      00000091H   SFRSYM    DATA     BYTE      CAN_IR
      000000FAH   SFRSYM    DATA     BYTE      DATA3
      000000CDH   SFRSYM    DATA     BYTE      TH2
LX51 LINKER/LOCATER V4.66.93.0                                                        07/09/2019  19:31:38  PAGE 18


      000000A8H.2 SFRSYM    DATA     BIT       EX1
      00000088H.2 SFRSYM    DATA     BIT       IT1
      000000D0H.0 SFRSYM    DATA     BIT       P
      0000008AH   SFRSYM    DATA     BYTE      TL0
      0000008BH   SFRSYM    DATA     BYTE      TL1
      000000CCH   SFRSYM    DATA     BYTE      TL2
      000000F8H.6 SFRSYM    DATA     BIT       APP_EN
      000000D0H.3 SFRSYM    DATA     BIT       RS0
      000000D0H.4 SFRSYM    DATA     BIT       RS1
      00000088H.4 SFRSYM    DATA     BIT       TR0
      00000093H   SFRSYM    DATA     BYTE      DPC
      00000088H.6 SFRSYM    DATA     BIT       TR1
      000000E5H   SFRSYM    DATA     BYTE      MAC_MODE
      000000C8H.0 SFRSYM    DATA     BIT       TR2
      00000083H   SFRSYM    DATA     BYTE      DPH
      00000082H   SFRSYM    DATA     BYTE      DPL
      00000099H   SFRSYM    DATA     BYTE      SBUF0
      0000009CH   SFRSYM    DATA     BYTE      SBUF1
      00000098H   SFRSYM    DATA     BYTE      SCON0
      0000009BH   SFRSYM    DATA     BYTE      SCON1
      000000D8H   SFRSYM    DATA     BYTE      ADCON
      000000C8H   SFRSYM    DATA     BYTE      T2CON
      000000E6H   SFRSYM    DATA     BYTE      DIV_MODE
      000000F8H.5 SFRSYM    DATA     BIT       APP_RW
      000000CBH   SFRSYM    DATA     BYTE      TRL2H
      0000009FH   SFRSYM    DATA     BYTE      SBUF2_RX
      000000ADH   SFRSYM    DATA     BYTE      SBUF3_RX
      0000008EH   SFRSYM    DATA     BYTE      CKCON
      0000009EH   SFRSYM    DATA     BYTE      SBUF2_TX
      000000ACH   SFRSYM    DATA     BYTE      SBUF3_TX
      000000CAH   SFRSYM    DATA     BYTE      TRL2L
      000000FEH   SFRSYM    DATA     BYTE      EXADR
      000000D0H.5 SFRSYM    DATA     BIT       F0
      000000D0H.1 SFRSYM    DATA     BIT       F1
      000000D0H   SFRSYM    DATA     BYTE      PSW
      000000C0H   SFRSYM    DATA     BYTE      IRCON
      00000090H.0 SFRSYM    DATA     BIT       CH376_A0

      0100486FH   BLOCK     CODE     ---       LVL=0
      0100486FH   LINE      CODE     ---       #23
      0100486FH   LINE      CODE     ---       #24
      0100486FH   LINE      CODE     ---       #25
      01004872H   LINE      CODE     ---       #26
      01004875H   LINE      CODE     ---       #27
      01004878H   LINE      CODE     ---       #28
      0100487BH   LINE      CODE     ---       #29
      0100487EH   LINE      CODE     ---       #30
      01004881H   LINE      CODE     ---       #31
      ---         BLOCKEND  ---      ---       LVL=0

      01004633H   BLOCK     CODE     ---       LVL=0
      01004633H   LINE      CODE     ---       #36
      01004639H   LINE      CODE     ---       #38
      0100463BH   LINE      CODE     ---       #39
      01004649H   LINE      CODE     ---       #40
      0100464CH   LINE      CODE     ---       #41
      0100464FH   LINE      CODE     ---       #42
      0100465BH   LINE      CODE     ---       #43
      0100465BH   LINE      CODE     ---       #44
      01004661H   LINE      CODE     ---       #45
      01004661H   LINE      CODE     ---       #46
      01004663H   LINE      CODE     ---       #47
      ---         BLOCKEND  ---      ---       LVL=0

      ---         MODULE    ---      ---       ?C_STARTUP
LX51 LINKER/LOCATER V4.66.93.0                                                        07/09/2019  19:31:38  PAGE 19


      01000000H   PUBLIC    CODE     ---       ?C_STARTUP
      000000E0H   SYMBOL    DATA     ---       ACC
      000000F0H   SYMBOL    DATA     ---       B
      00000083H   SYMBOL    DATA     ---       DPH
      00000082H   SYMBOL    DATA     ---       DPL
      00000000H   SYMBOL    NUMBER   ---       IBPSTACK
      00000100H   SYMBOL    NUMBER   ---       IBPSTACKTOP
      00000100H   SYMBOL    NUMBER   ---       IDATALEN
      01003F5BH   SYMBOL    CODE     ---       IDATALOOP
      00000000H   SYMBOL    NUMBER   ---       PBPSTACK
      00000100H   SYMBOL    NUMBER   ---       PBPSTACKTOP
      00000000H   SYMBOL    NUMBER   ---       PDATALEN
      00000000H   SYMBOL    NUMBER   ---       PDATASTART
      00000000H   SYMBOL    NUMBER   ---       PPAGE
      00000000H   SYMBOL    NUMBER   ---       PPAGEENABLE
      000000A0H   SYMBOL    DATA     ---       PPAGE_SFR
      00000081H   SYMBOL    DATA     ---       SP
      01003F58H   SYMBOL    CODE     ---       STARTUP1
      00000000H   SYMBOL    NUMBER   ---       XBPSTACK
      00000000H   SYMBOL    NUMBER   ---       XBPSTACKTOP
      00000000H   SYMBOL    NUMBER   ---       XDATALEN
      00000000H   SYMBOL    NUMBER   ---       XDATASTART
      01000000H   LINE      CODE     ---       #131
      01003F58H   LINE      CODE     ---       #138
      01003F5AH   LINE      CODE     ---       #139
      01003F5BH   LINE      CODE     ---       #140
      01003F5CH   LINE      CODE     ---       #141
      01003F5EH   LINE      CODE     ---       #190
      01003F61H   LINE      CODE     ---       #201

      ---         MODULE    ---      ---       DGUS_CONFIG
      0100334AH   PUBLIC    CODE     ---       _PageDriver
      01003C85H   PUBLIC    CODE     ---       PageAck
      0100078BH   PUBLIC    CODE     ---       MesseageShow
      010035A8H   PUBLIC    CODE     ---       DgusRegConfig
      000000F1H   SFRSYM    DATA     BYTE      ADR_H
      00000080H   SFRSYM    DATA     BYTE      P0
      00000090H   SFRSYM    DATA     BYTE      P1
      000000A0H   SFRSYM    DATA     BYTE      P2
      000000B0H   SFRSYM    DATA     BYTE      P3
      000000F3H   SFRSYM    DATA     BYTE      ADR_L
      000000D0H.6 SFRSYM    DATA     BIT       AC
      00000094H   SFRSYM    DATA     BYTE      PAGESEL
      000000F2H   SFRSYM    DATA     BYTE      ADR_M
      000000A8H.7 SFRSYM    DATA     BIT       EA
      000000F8H   SFRSYM    DATA     BYTE      RAMMODE
      000000B7H   SFRSYM    DATA     BYTE      P0MDOUT
      000000BCH   SFRSYM    DATA     BYTE      P1MDOUT
      000000A8H   SFRSYM    DATA     BYTE      IEN0
      000000BDH   SFRSYM    DATA     BYTE      P2MDOUT
      000000B8H   SFRSYM    DATA     BYTE      IEN1
      000000BEH   SFRSYM    DATA     BYTE      P3MDOUT
      0000009AH   SFRSYM    DATA     BYTE      IEN2
      000000D1H   SFRSYM    DATA     BYTE      IEN3
      00000090H.4 SFRSYM    DATA     BIT       CH376_INT_WIRE
      000000F8H.4 SFRSYM    DATA     BIT       APP_ACK
      000000F4H   SFRSYM    DATA     BYTE      ADR_INC
      000000B8H.1 SFRSYM    DATA     BIT       ECAN
      000000D0H.7 SFRSYM    DATA     BIT       CY
      000000B8H.3 SFRSYM    DATA     BIT       ES2R
      000000B8H.5 SFRSYM    DATA     BIT       ES3R
      000000B8H.2 SFRSYM    DATA     BIT       ES2T
      000000B8H.4 SFRSYM    DATA     BIT       ES3T
      00000090H.3 SFRSYM    DATA     BIT       CH376_RD
      00000090H.1 SFRSYM    DATA     BIT       CH376_CS
LX51 LINKER/LOCATER V4.66.93.0                                                        07/09/2019  19:31:38  PAGE 20


      00000081H   SFRSYM    DATA     BYTE      SP
      000000D0H.2 SFRSYM    DATA     BIT       OV
      00000095H   SFRSYM    DATA     BYTE      D_PAGESEL
      000000F8H.7 SFRSYM    DATA     BIT       APP_REQ
      000000BFH   SFRSYM    DATA     BYTE      IRCON2
      000000BAH   SFRSYM    DATA     BYTE      SREL0H
      000000BBH   SFRSYM    DATA     BYTE      SREL1H
      00000087H   SFRSYM    DATA     BYTE      PCON
      000000F9H   SFRSYM    DATA     BYTE      PORTDRV
      000000AAH   SFRSYM    DATA     BYTE      SREL0L
      0000009DH   SFRSYM    DATA     BYTE      SREL1L
      00000089H   SFRSYM    DATA     BYTE      TMOD
      00000088H   SFRSYM    DATA     BYTE      TCON
      00000090H.2 SFRSYM    DATA     BIT       CH376_WR
      000000FFH   SFRSYM    DATA     BYTE      EXDATA
      00000097H   SFRSYM    DATA     BYTE      SCON2R
      000000ABH   SFRSYM    DATA     BYTE      SCON3R
      000000D9H   SFRSYM    DATA     BYTE      BODE2_DIV_H
      000000AEH   SFRSYM    DATA     BYTE      BODE3_DIV_H
      00000096H   SFRSYM    DATA     BYTE      SCON2T
      000000A7H   SFRSYM    DATA     BYTE      SCON3T
      000000E7H   SFRSYM    DATA     BYTE      BODE2_DIV_L
      00000088H.1 SFRSYM    DATA     BIT       IE0
      000000AFH   SFRSYM    DATA     BYTE      BODE3_DIV_L
      00000088H.3 SFRSYM    DATA     BIT       IE1
      000000C9H   SFRSYM    DATA     BYTE      MUX_SEL
      000000F0H   SFRSYM    DATA     BYTE      B
      000000E0H   SFRSYM    DATA     BYTE      ACC
      0000008FH   SFRSYM    DATA     BYTE      CAN_CR
      000000A8H.4 SFRSYM    DATA     BIT       ES0
      000000A9H   SFRSYM    DATA     BYTE      IP0
      000000A8H.1 SFRSYM    DATA     BIT       ET0
      000000B9H   SFRSYM    DATA     BYTE      IP1
      000000A8H.3 SFRSYM    DATA     BIT       ET1
      00000088H.5 SFRSYM    DATA     BIT       TF0
      000000FDH   SFRSYM    DATA     BYTE      DATA0
      000000A8H.5 SFRSYM    DATA     BIT       ET2
      00000098H.0 SFRSYM    DATA     BIT       RI0
      00000088H.7 SFRSYM    DATA     BIT       TF1
      000000E8H   SFRSYM    DATA     BYTE      CAN_ET
      000000FCH   SFRSYM    DATA     BYTE      DATA1
      000000C0H.6 SFRSYM    DATA     BIT       TF2
      0000008CH   SFRSYM    DATA     BYTE      TH0
      000000FBH   SFRSYM    DATA     BYTE      DATA2
      000000A8H.0 SFRSYM    DATA     BIT       EX0
      00000098H.1 SFRSYM    DATA     BIT       TI0
      0000008DH   SFRSYM    DATA     BYTE      TH1
      00000088H.0 SFRSYM    DATA     BIT       IT0
      00000091H   SFRSYM    DATA     BYTE      CAN_IR
      000000FAH   SFRSYM    DATA     BYTE      DATA3
      000000CDH   SFRSYM    DATA     BYTE      TH2
      000000A8H.2 SFRSYM    DATA     BIT       EX1
      00000088H.2 SFRSYM    DATA     BIT       IT1
      000000D0H.0 SFRSYM    DATA     BIT       P
      0000008AH   SFRSYM    DATA     BYTE      TL0
      0000008BH   SFRSYM    DATA     BYTE      TL1
      000000CCH   SFRSYM    DATA     BYTE      TL2
      000000F8H.6 SFRSYM    DATA     BIT       APP_EN
      000000D0H.3 SFRSYM    DATA     BIT       RS0
      000000D0H.4 SFRSYM    DATA     BIT       RS1
      00000088H.4 SFRSYM    DATA     BIT       TR0
      00000093H   SFRSYM    DATA     BYTE      DPC
      00000088H.6 SFRSYM    DATA     BIT       TR1
      000000E5H   SFRSYM    DATA     BYTE      MAC_MODE
      000000C8H.0 SFRSYM    DATA     BIT       TR2
LX51 LINKER/LOCATER V4.66.93.0                                                        07/09/2019  19:31:38  PAGE 21


      00000083H   SFRSYM    DATA     BYTE      DPH
      00000082H   SFRSYM    DATA     BYTE      DPL
      00000099H   SFRSYM    DATA     BYTE      SBUF0
      0000009CH   SFRSYM    DATA     BYTE      SBUF1
      00000098H   SFRSYM    DATA     BYTE      SCON0
      0000009BH   SFRSYM    DATA     BYTE      SCON1
      000000D8H   SFRSYM    DATA     BYTE      ADCON
      000000C8H   SFRSYM    DATA     BYTE      T2CON
      000000E6H   SFRSYM    DATA     BYTE      DIV_MODE
      000000F8H.5 SFRSYM    DATA     BIT       APP_RW
      000000CBH   SFRSYM    DATA     BYTE      TRL2H
      0000009FH   SFRSYM    DATA     BYTE      SBUF2_RX
      000000ADH   SFRSYM    DATA     BYTE      SBUF3_RX
      0000008EH   SFRSYM    DATA     BYTE      CKCON
      0000009EH   SFRSYM    DATA     BYTE      SBUF2_TX
      000000ACH   SFRSYM    DATA     BYTE      SBUF3_TX
      000000CAH   SFRSYM    DATA     BYTE      TRL2L
      000000FEH   SFRSYM    DATA     BYTE      EXADR
      000000D0H.5 SFRSYM    DATA     BIT       F0
      000000D0H.1 SFRSYM    DATA     BIT       F1
      000000D0H   SFRSYM    DATA     BYTE      PSW
      000000C0H   SFRSYM    DATA     BYTE      IRCON
      00000090H.0 SFRSYM    DATA     BIT       CH376_A0

      010035A8H   BLOCK     CODE     ---       LVL=0
      010035A8H   BLOCK     CODE     NEAR LAB  LVL=1
      02008000H   SYMBOL    XDATA    ---       Cmd
      02008010H   SYMBOL    XDATA    ---       filename
      ---         BLOCKEND  ---      ---       LVL=1
      010035A8H   LINE      CODE     ---       #22
      010035A8H   LINE      CODE     ---       #23
      010035A8H   LINE      CODE     ---       #26
      010035B7H   LINE      CODE     ---       #27
      010035C6H   LINE      CODE     ---       #29
      010035CCH   LINE      CODE     ---       #30
      010035D0H   LINE      CODE     ---       #31
      010035D3H   LINE      CODE     ---       #32
      010035ECH   LINE      CODE     ---       #34
      010035F2H   LINE      CODE     ---       #35
      0100360CH   LINE      CODE     ---       #36
      01003612H   LINE      CODE     ---       #37
      01003615H   LINE      CODE     ---       #38
      01003619H   LINE      CODE     ---       #39
      0100361DH   LINE      CODE     ---       #40
      01003621H   LINE      CODE     ---       #41
      01003625H   LINE      CODE     ---       #42
      0100363FH   LINE      CODE     ---       #44
      01003645H   LINE      CODE     ---       #45
      01003648H   LINE      CODE     ---       #46
      0100364CH   LINE      CODE     ---       #47
      0100364FH   LINE      CODE     ---       #48
      01003651H   LINE      CODE     ---       #49
      01003653H   LINE      CODE     ---       #50
      01003655H   LINE      CODE     ---       #51
      01003659H   LINE      CODE     ---       #52
      0100365CH   LINE      CODE     ---       #53
      01003675H   LINE      CODE     ---       #55
      0100367BH   LINE      CODE     ---       #56
      0100367EH   LINE      CODE     ---       #57
      01003682H   LINE      CODE     ---       #58
      01003686H   LINE      CODE     ---       #59
      010036A0H   LINE      CODE     ---       #61
      010036A6H   LINE      CODE     ---       #62
      010036A9H   LINE      CODE     ---       #63
      ---         BLOCKEND  ---      ---       LVL=0
LX51 LINKER/LOCATER V4.66.93.0                                                        07/09/2019  19:31:38  PAGE 22



      0100078BH   BLOCK     CODE     ---       LVL=0
      0100078BH   BLOCK     CODE     NEAR LAB  LVL=1
      02008000H   SYMBOL    XDATA    ---       Ms
      0200800DH   SYMBOL    XDATA    ---       String
      0200801FH   SYMBOL    XDATA    WORD      DIR_CrtTime
      02008021H   SYMBOL    XDATA    WORD      DIR_CrtDate
      02008023H   SYMBOL    XDATA    WORD      DIR_WrtTime
      02008025H   SYMBOL    XDATA    WORD      DIR_WrtDate
      02008027H   SYMBOL    XDATA    WORD      Hour
      02008029H   SYMBOL    XDATA    WORD      Min
      0200802BH   SYMBOL    XDATA    WORD      Sec
      0200802DH   SYMBOL    XDATA    WORD      Year
      0200802FH   SYMBOL    XDATA    WORD      Month
      00000006H   SYMBOL    DATA     WORD      Day
      02008031H   SYMBOL    XDATA    DWORD     DIR_FileSize
      ---         BLOCKEND  ---      ---       LVL=1
      0100078BH   LINE      CODE     ---       #76
      0100078BH   LINE      CODE     ---       #77
      0100078BH   LINE      CODE     ---       #79
      0100079EH   LINE      CODE     ---       #80
      010007B4H   LINE      CODE     ---       #81
      010007BCH   LINE      CODE     ---       #83
      010007CBH   LINE      CODE     ---       #84
      010007DAH   LINE      CODE     ---       #85
      010007F4H   LINE      CODE     ---       #86
      01000806H   LINE      CODE     ---       #87
      01000818H   LINE      CODE     ---       #88
      0100082AH   LINE      CODE     ---       #89
      0100083CH   LINE      CODE     ---       #91
      01000896H   LINE      CODE     ---       #93
      010008AFH   LINE      CODE     ---       #94
      010008C8H   LINE      CODE     ---       #95
      010008DAH   LINE      CODE     ---       #96
      0100091EH   LINE      CODE     ---       #97
      01000938H   LINE      CODE     ---       #98
      01000947H   LINE      CODE     ---       #100
      01000961H   LINE      CODE     ---       #101
      0100097AH   LINE      CODE     ---       #102
      01000983H   LINE      CODE     ---       #103
      010009BEH   LINE      CODE     ---       #104
      010009D8H   LINE      CODE     ---       #105
      010009E7H   LINE      CODE     ---       #107
      01000A00H   LINE      CODE     ---       #108
      01000A19H   LINE      CODE     ---       #109
      01000A2BH   LINE      CODE     ---       #110
      01000A6FH   LINE      CODE     ---       #111
      01000A89H   LINE      CODE     ---       #112
      01000A98H   LINE      CODE     ---       #114
      01000AADH   LINE      CODE     ---       #115
      01000ACAH   LINE      CODE     ---       #116
      01000AD3H   LINE      CODE     ---       #117
      01000B0EH   LINE      CODE     ---       #118
      01000B28H   LINE      CODE     ---       #119
      01000B37H   LINE      CODE     ---       #121
      01000B62H   LINE      CODE     ---       #122
      ---         BLOCKEND  ---      ---       LVL=0

      01003C85H   BLOCK     CODE     ---       LVL=0
      01003C85H   BLOCK     CODE     NEAR LAB  LVL=1
      02008000H   SYMBOL    XDATA    ---       Cmd
      0200800AH   SYMBOL    XDATA    ---       Path
      0200804AH   SYMBOL    XDATA    BYTE      PageNumber
      ---         BLOCKEND  ---      ---       LVL=1
      01003C85H   LINE      CODE     ---       #125
LX51 LINKER/LOCATER V4.66.93.0                                                        07/09/2019  19:31:38  PAGE 23


      01003C85H   LINE      CODE     ---       #126
      01003C85H   LINE      CODE     ---       #129
      01003C8AH   LINE      CODE     ---       #130
      01003C97H   LINE      CODE     ---       #131
      01003CA6H   LINE      CODE     ---       #133
      01003CC0H   LINE      CODE     ---       #134
      01003CDAH   LINE      CODE     ---       #136
      01003CE2H   LINE      CODE     ---       #137
      01003CEFH   LINE      CODE     ---       #138
      01003CFCH   LINE      CODE     ---       #139
      01003D04H   LINE      CODE     ---       #140
      01003D0AH   LINE      CODE     ---       #141
      01003D0AH   LINE      CODE     ---       #142
      01003D0DH   LINE      CODE     ---       #143
      01003D26H   LINE      CODE     ---       #144
      01003D26H   LINE      CODE     ---       #145
      01003D35H   LINE      CODE     ---       #146
      ---         BLOCKEND  ---      ---       LVL=0

      01003344H   BLOCK     CODE     VOID      LVL=0
      ---         BLOCKEND  ---      ---       LVL=0

      0100334AH   BLOCK     CODE     ---       LVL=0
      0200804BH   SYMBOL    XDATA    ---       pNumber
      0200804EH   SYMBOL    XDATA    BYTE      Type
      0200804FH   SYMBOL    XDATA    ---       FileList
      0200836FH   SYMBOL    XDATA    ---       FileShow
      0200868FH   SYMBOL    XDATA    ---       pFileList
      02008692H   SYMBOL    XDATA    WORD      Offset
      02008694H   SYMBOL    XDATA    BYTE      i
      01003358H   BLOCK     CODE     NEAR LAB  LVL=1
      0200804FH   SYMBOL    XDATA    ---       FileList
      0200836FH   SYMBOL    XDATA    ---       FileShow
      0200868FH   SYMBOL    XDATA    ---       pFileList
      02008692H   SYMBOL    XDATA    WORD      Offset
      02008694H   SYMBOL    XDATA    BYTE      i
      ---         BLOCKEND  ---      ---       LVL=1
      0100334AH   LINE      CODE     ---       #149
      01003358H   LINE      CODE     ---       #150
      01003358H   LINE      CODE     ---       #153
      01003366H   LINE      CODE     ---       #154
      0100336BH   LINE      CODE     ---       #155
      0100336DH   LINE      CODE     ---       #156
      0100337BH   LINE      CODE     ---       #157
      0100338AH   LINE      CODE     ---       #158
      0100338DH   LINE      CODE     ---       #159
      010033A8H   LINE      CODE     ---       #160
      010033C9H   LINE      CODE     ---       #161
      010033D0H   LINE      CODE     ---       #162
      010033E8H   LINE      CODE     ---       #163
      01003400H   LINE      CODE     ---       #164
      0100341DH   LINE      CODE     ---       #165
      0100343AH   LINE      CODE     ---       #166
      01003443H   LINE      CODE     ---       #167
      01003460H   LINE      CODE     ---       #168
      ---         BLOCKEND  ---      ---       LVL=0

      ---         MODULE    ---      ---       DGUS
      0200959FH   PUBLIC    XDATA    BYTE      ?_WriteDGUS?BYTE
      01002901H   PUBLIC    CODE     ---       _WriteDGUS
      020095A4H   PUBLIC    XDATA    BYTE      ?_ReadDGUS?BYTE
      01002752H   PUBLIC    CODE     ---       _ReadDGUS
      000000F1H   SFRSYM    DATA     BYTE      ADR_H
      00000080H   SFRSYM    DATA     BYTE      P0
      00000090H   SFRSYM    DATA     BYTE      P1
LX51 LINKER/LOCATER V4.66.93.0                                                        07/09/2019  19:31:38  PAGE 24


      000000A0H   SFRSYM    DATA     BYTE      P2
      000000B0H   SFRSYM    DATA     BYTE      P3
      000000F3H   SFRSYM    DATA     BYTE      ADR_L
      000000D0H.6 SFRSYM    DATA     BIT       AC
      00000094H   SFRSYM    DATA     BYTE      PAGESEL
      000000F2H   SFRSYM    DATA     BYTE      ADR_M
      000000A8H.7 SFRSYM    DATA     BIT       EA
      000000F8H   SFRSYM    DATA     BYTE      RAMMODE
      000000B7H   SFRSYM    DATA     BYTE      P0MDOUT
      000000BCH   SFRSYM    DATA     BYTE      P1MDOUT
      000000A8H   SFRSYM    DATA     BYTE      IEN0
      000000BDH   SFRSYM    DATA     BYTE      P2MDOUT
      000000B8H   SFRSYM    DATA     BYTE      IEN1
      000000BEH   SFRSYM    DATA     BYTE      P3MDOUT
      0000009AH   SFRSYM    DATA     BYTE      IEN2
      000000D1H   SFRSYM    DATA     BYTE      IEN3
      00000090H.4 SFRSYM    DATA     BIT       CH376_INT_WIRE
      000000F8H.4 SFRSYM    DATA     BIT       APP_ACK
      000000F4H   SFRSYM    DATA     BYTE      ADR_INC
      000000B8H.1 SFRSYM    DATA     BIT       ECAN
      000000D0H.7 SFRSYM    DATA     BIT       CY
      000000B8H.3 SFRSYM    DATA     BIT       ES2R
      000000B8H.5 SFRSYM    DATA     BIT       ES3R
      000000B8H.2 SFRSYM    DATA     BIT       ES2T
      000000B8H.4 SFRSYM    DATA     BIT       ES3T
      00000090H.3 SFRSYM    DATA     BIT       CH376_RD
      00000090H.1 SFRSYM    DATA     BIT       CH376_CS
      00000081H   SFRSYM    DATA     BYTE      SP
      000000D0H.2 SFRSYM    DATA     BIT       OV
      00000095H   SFRSYM    DATA     BYTE      D_PAGESEL
      000000F8H.7 SFRSYM    DATA     BIT       APP_REQ
      000000BFH   SFRSYM    DATA     BYTE      IRCON2
      000000BAH   SFRSYM    DATA     BYTE      SREL0H
      000000BBH   SFRSYM    DATA     BYTE      SREL1H
      00000087H   SFRSYM    DATA     BYTE      PCON
      000000F9H   SFRSYM    DATA     BYTE      PORTDRV
      000000AAH   SFRSYM    DATA     BYTE      SREL0L
      0000009DH   SFRSYM    DATA     BYTE      SREL1L
      00000089H   SFRSYM    DATA     BYTE      TMOD
      00000088H   SFRSYM    DATA     BYTE      TCON
      00000090H.2 SFRSYM    DATA     BIT       CH376_WR
      000000FFH   SFRSYM    DATA     BYTE      EXDATA
      00000097H   SFRSYM    DATA     BYTE      SCON2R
      000000ABH   SFRSYM    DATA     BYTE      SCON3R
      000000D9H   SFRSYM    DATA     BYTE      BODE2_DIV_H
      000000AEH   SFRSYM    DATA     BYTE      BODE3_DIV_H
      00000096H   SFRSYM    DATA     BYTE      SCON2T
      000000A7H   SFRSYM    DATA     BYTE      SCON3T
      000000E7H   SFRSYM    DATA     BYTE      BODE2_DIV_L
      00000088H.1 SFRSYM    DATA     BIT       IE0
      000000AFH   SFRSYM    DATA     BYTE      BODE3_DIV_L
      00000088H.3 SFRSYM    DATA     BIT       IE1
      000000C9H   SFRSYM    DATA     BYTE      MUX_SEL
      000000F0H   SFRSYM    DATA     BYTE      B
      000000E0H   SFRSYM    DATA     BYTE      ACC
      0000008FH   SFRSYM    DATA     BYTE      CAN_CR
      000000A8H.4 SFRSYM    DATA     BIT       ES0
      000000A9H   SFRSYM    DATA     BYTE      IP0
      000000A8H.1 SFRSYM    DATA     BIT       ET0
      000000B9H   SFRSYM    DATA     BYTE      IP1
      000000A8H.3 SFRSYM    DATA     BIT       ET1
      00000088H.5 SFRSYM    DATA     BIT       TF0
      000000FDH   SFRSYM    DATA     BYTE      DATA0
      000000A8H.5 SFRSYM    DATA     BIT       ET2
      00000098H.0 SFRSYM    DATA     BIT       RI0
LX51 LINKER/LOCATER V4.66.93.0                                                        07/09/2019  19:31:38  PAGE 25


      00000088H.7 SFRSYM    DATA     BIT       TF1
      000000E8H   SFRSYM    DATA     BYTE      CAN_ET
      000000FCH   SFRSYM    DATA     BYTE      DATA1
      000000C0H.6 SFRSYM    DATA     BIT       TF2
      0000008CH   SFRSYM    DATA     BYTE      TH0
      000000FBH   SFRSYM    DATA     BYTE      DATA2
      000000A8H.0 SFRSYM    DATA     BIT       EX0
      00000098H.1 SFRSYM    DATA     BIT       TI0
      0000008DH   SFRSYM    DATA     BYTE      TH1
      00000088H.0 SFRSYM    DATA     BIT       IT0
      00000091H   SFRSYM    DATA     BYTE      CAN_IR
      000000FAH   SFRSYM    DATA     BYTE      DATA3
      000000CDH   SFRSYM    DATA     BYTE      TH2
      000000A8H.2 SFRSYM    DATA     BIT       EX1
      00000088H.2 SFRSYM    DATA     BIT       IT1
      000000D0H.0 SFRSYM    DATA     BIT       P
      0000008AH   SFRSYM    DATA     BYTE      TL0
      0000008BH   SFRSYM    DATA     BYTE      TL1
      000000CCH   SFRSYM    DATA     BYTE      TL2
      000000F8H.6 SFRSYM    DATA     BIT       APP_EN
      000000D0H.3 SFRSYM    DATA     BIT       RS0
      000000D0H.4 SFRSYM    DATA     BIT       RS1
      00000088H.4 SFRSYM    DATA     BIT       TR0
      00000093H   SFRSYM    DATA     BYTE      DPC
      00000088H.6 SFRSYM    DATA     BIT       TR1
      000000E5H   SFRSYM    DATA     BYTE      MAC_MODE
      000000C8H.0 SFRSYM    DATA     BIT       TR2
      00000083H   SFRSYM    DATA     BYTE      DPH
      00000082H   SFRSYM    DATA     BYTE      DPL
      00000099H   SFRSYM    DATA     BYTE      SBUF0
      0000009CH   SFRSYM    DATA     BYTE      SBUF1
      00000098H   SFRSYM    DATA     BYTE      SCON0
      0000009BH   SFRSYM    DATA     BYTE      SCON1
      000000D8H   SFRSYM    DATA     BYTE      ADCON
      000000C8H   SFRSYM    DATA     BYTE      T2CON
      000000E6H   SFRSYM    DATA     BYTE      DIV_MODE
      000000F8H.5 SFRSYM    DATA     BIT       APP_RW
      000000CBH   SFRSYM    DATA     BYTE      TRL2H
      0000009FH   SFRSYM    DATA     BYTE      SBUF2_RX
      000000ADH   SFRSYM    DATA     BYTE      SBUF3_RX
      0000008EH   SFRSYM    DATA     BYTE      CKCON
      0000009EH   SFRSYM    DATA     BYTE      SBUF2_TX
      000000ACH   SFRSYM    DATA     BYTE      SBUF3_TX
      000000CAH   SFRSYM    DATA     BYTE      TRL2L
      000000FEH   SFRSYM    DATA     BYTE      EXADR
      000000D0H.5 SFRSYM    DATA     BIT       F0
      000000D0H.1 SFRSYM    DATA     BIT       F1
      000000D0H   SFRSYM    DATA     BYTE      PSW
      000000C0H   SFRSYM    DATA     BYTE      IRCON
      00000090H.0 SFRSYM    DATA     BIT       CH376_A0

      01002752H   BLOCK     CODE     ---       LVL=0
      020095A4H   SYMBOL    XDATA    DWORD     Addr
      020095A8H   SYMBOL    XDATA    ---       pBuf
      020095ABH   SYMBOL    XDATA    WORD      Len
      01002763H   BLOCK     CODE     NEAR LAB  LVL=1
      00000003H   SYMBOL    DATA     BYTE      Offset
      020095ADH   SYMBOL    XDATA    BYTE      EndLen
      ---         BLOCKEND  ---      ---       LVL=1
      01002752H   LINE      CODE     ---       #35
      01002763H   LINE      CODE     ---       #36
      01002763H   LINE      CODE     ---       #37
      01002764H   LINE      CODE     ---       #38
      01002768H   LINE      CODE     ---       #39
      0100277AH   LINE      CODE     ---       #40
LX51 LINKER/LOCATER V4.66.93.0                                                        07/09/2019  19:31:38  PAGE 26


      0100278DH   LINE      CODE     ---       #41
      010027A2H   LINE      CODE     ---       #42
      010027B7H   LINE      CODE     ---       #43
      010027C0H   LINE      CODE     ---       #44
      010027C3H   LINE      CODE     ---       #45
      010027C6H   LINE      CODE     ---       #46
      010027C9H   LINE      CODE     ---       #47
      010027CEH   LINE      CODE     ---       #48
      010027CEH   LINE      CODE     ---       #49
      010027D0H   LINE      CODE     ---       #50
      010027D3H   LINE      CODE     ---       #51
      010027E8H   LINE      CODE     ---       #52
      010027F7H   LINE      CODE     ---       #53
      0100280CH   LINE      CODE     ---       #54
      0100281AH   LINE      CODE     ---       #55
      0100281AH   LINE      CODE     ---       #56
      01002826H   LINE      CODE     ---       #57
      0100283BH   LINE      CODE     ---       #58
      01002849H   LINE      CODE     ---       #59
      01002849H   LINE      CODE     ---       #60
      0100284BH   LINE      CODE     ---       #61
      0100284EH   LINE      CODE     ---       #62
      01002863H   LINE      CODE     ---       #63
      01002878H   LINE      CODE     ---       #64
      0100288DH   LINE      CODE     ---       #65
      010028A2H   LINE      CODE     ---       #66
      010028A4H   LINE      CODE     ---       #67
      010028AAH   LINE      CODE     ---       #68
      010028AAH   LINE      CODE     ---       #69
      010028ACH   LINE      CODE     ---       #70
      010028AFH   LINE      CODE     ---       #71
      010028C4H   LINE      CODE     ---       #72
      010028E0H   LINE      CODE     ---       #73
      010028FDH   LINE      CODE     ---       #74
      010028FDH   LINE      CODE     ---       #75
      01002900H   LINE      CODE     ---       #76
      ---         BLOCKEND  ---      ---       LVL=0

      01002901H   BLOCK     CODE     ---       LVL=0
      0200959FH   SYMBOL    XDATA    DWORD     Addr
      020095A3H   SYMBOL    XDATA    ---       pBuf
      020095A6H   SYMBOL    XDATA    WORD      Len
      01002912H   BLOCK     CODE     NEAR LAB  LVL=1
      00000003H   SYMBOL    DATA     BYTE      Offset
      00000005H   SYMBOL    DATA     BYTE      EndLen
      ---         BLOCKEND  ---      ---       LVL=1
      01002901H   LINE      CODE     ---       #90
      01002912H   LINE      CODE     ---       #91
      01002912H   LINE      CODE     ---       #94
      01002924H   LINE      CODE     ---       #95
      01002937H   LINE      CODE     ---       #96
      01002940H   LINE      CODE     ---       #97
      01002955H   LINE      CODE     ---       #98
      0100296AH   LINE      CODE     ---       #99
      0100296DH   LINE      CODE     ---       #100
      01002970H   LINE      CODE     ---       #101
      01002973H   LINE      CODE     ---       #102
      01002978H   LINE      CODE     ---       #103
      01002978H   LINE      CODE     ---       #104
      0100297AH   LINE      CODE     ---       #105
      0100297DH   LINE      CODE     ---       #106
      0100297FH   LINE      CODE     ---       #107
      01002982H   LINE      CODE     ---       #109
      01002985H   LINE      CODE     ---       #110
      01002988H   LINE      CODE     ---       #111
LX51 LINKER/LOCATER V4.66.93.0                                                        07/09/2019  19:31:38  PAGE 27


      0100299DH   LINE      CODE     ---       #112
      010029ACH   LINE      CODE     ---       #113
      010029C1H   LINE      CODE     ---       #114
      010029C3H   LINE      CODE     ---       #115
      010029C6H   LINE      CODE     ---       #116
      010029D4H   LINE      CODE     ---       #117
      010029D4H   LINE      CODE     ---       #118
      010029DFH   LINE      CODE     ---       #119
      010029F2H   LINE      CODE     ---       #120
      01002A00H   LINE      CODE     ---       #121
      01002A00H   LINE      CODE     ---       #122
      01002A15H   LINE      CODE     ---       #123
      01002A2AH   LINE      CODE     ---       #124
      01002A3FH   LINE      CODE     ---       #125
      01002A54H   LINE      CODE     ---       #126
      01002A56H   LINE      CODE     ---       #127
      01002A5BH   LINE      CODE     ---       #128
      01002A5BH   LINE      CODE     ---       #129
      01002A5EH   LINE      CODE     ---       #130
      01002A5EH   LINE      CODE     ---       #131
      01002A73H   LINE      CODE     ---       #132
      01002A8CH   LINE      CODE     ---       #133
      01002AA6H   LINE      CODE     ---       #134
      01002AA8H   LINE      CODE     ---       #135
      01002AABH   LINE      CODE     ---       #136
      01002AABH   LINE      CODE     ---       #137
      01002AAEH   LINE      CODE     ---       #138
      ---         BLOCKEND  ---      ---       LVL=0

      ---         MODULE    ---      ---       SYS
      010045F8H   PUBLIC    CODE     ---       INIT_CPU
      000000F1H   SFRSYM    DATA     BYTE      ADR_H
      00000080H   SFRSYM    DATA     BYTE      P0
      00000090H   SFRSYM    DATA     BYTE      P1
      000000A0H   SFRSYM    DATA     BYTE      P2
      000000B0H   SFRSYM    DATA     BYTE      P3
      000000F3H   SFRSYM    DATA     BYTE      ADR_L
      000000D0H.6 SFRSYM    DATA     BIT       AC
      00000094H   SFRSYM    DATA     BYTE      PAGESEL
      000000F2H   SFRSYM    DATA     BYTE      ADR_M
      000000A8H.7 SFRSYM    DATA     BIT       EA
      000000F8H   SFRSYM    DATA     BYTE      RAMMODE
      000000B7H   SFRSYM    DATA     BYTE      P0MDOUT
      000000BCH   SFRSYM    DATA     BYTE      P1MDOUT
      000000A8H   SFRSYM    DATA     BYTE      IEN0
      000000BDH   SFRSYM    DATA     BYTE      P2MDOUT
      000000B8H   SFRSYM    DATA     BYTE      IEN1
      000000BEH   SFRSYM    DATA     BYTE      P3MDOUT
      0000009AH   SFRSYM    DATA     BYTE      IEN2
      000000D1H   SFRSYM    DATA     BYTE      IEN3
      00000090H.4 SFRSYM    DATA     BIT       CH376_INT_WIRE
      000000F8H.4 SFRSYM    DATA     BIT       APP_ACK
      000000F4H   SFRSYM    DATA     BYTE      ADR_INC
      000000B8H.1 SFRSYM    DATA     BIT       ECAN
      000000D0H.7 SFRSYM    DATA     BIT       CY
      000000B8H.3 SFRSYM    DATA     BIT       ES2R
      000000B8H.5 SFRSYM    DATA     BIT       ES3R
      000000B8H.2 SFRSYM    DATA     BIT       ES2T
      000000B8H.4 SFRSYM    DATA     BIT       ES3T
      00000090H.3 SFRSYM    DATA     BIT       CH376_RD
      00000090H.1 SFRSYM    DATA     BIT       CH376_CS
      00000081H   SFRSYM    DATA     BYTE      SP
      000000D0H.2 SFRSYM    DATA     BIT       OV
      00000095H   SFRSYM    DATA     BYTE      D_PAGESEL
      000000F8H.7 SFRSYM    DATA     BIT       APP_REQ
LX51 LINKER/LOCATER V4.66.93.0                                                        07/09/2019  19:31:38  PAGE 28


      000000BFH   SFRSYM    DATA     BYTE      IRCON2
      000000BAH   SFRSYM    DATA     BYTE      SREL0H
      000000BBH   SFRSYM    DATA     BYTE      SREL1H
      00000087H   SFRSYM    DATA     BYTE      PCON
      000000F9H   SFRSYM    DATA     BYTE      PORTDRV
      000000AAH   SFRSYM    DATA     BYTE      SREL0L
      0000009DH   SFRSYM    DATA     BYTE      SREL1L
      00000089H   SFRSYM    DATA     BYTE      TMOD
      00000088H   SFRSYM    DATA     BYTE      TCON
      00000090H.2 SFRSYM    DATA     BIT       CH376_WR
      000000FFH   SFRSYM    DATA     BYTE      EXDATA
      00000097H   SFRSYM    DATA     BYTE      SCON2R
      000000ABH   SFRSYM    DATA     BYTE      SCON3R
      000000D9H   SFRSYM    DATA     BYTE      BODE2_DIV_H
      000000AEH   SFRSYM    DATA     BYTE      BODE3_DIV_H
      00000096H   SFRSYM    DATA     BYTE      SCON2T
      000000A7H   SFRSYM    DATA     BYTE      SCON3T
      000000E7H   SFRSYM    DATA     BYTE      BODE2_DIV_L
      00000088H.1 SFRSYM    DATA     BIT       IE0
      000000AFH   SFRSYM    DATA     BYTE      BODE3_DIV_L
      00000088H.3 SFRSYM    DATA     BIT       IE1
      000000C9H   SFRSYM    DATA     BYTE      MUX_SEL
      000000F0H   SFRSYM    DATA     BYTE      B
      000000E0H   SFRSYM    DATA     BYTE      ACC
      0000008FH   SFRSYM    DATA     BYTE      CAN_CR
      000000A8H.4 SFRSYM    DATA     BIT       ES0
      000000A9H   SFRSYM    DATA     BYTE      IP0
      000000A8H.1 SFRSYM    DATA     BIT       ET0
      000000B9H   SFRSYM    DATA     BYTE      IP1
      000000A8H.3 SFRSYM    DATA     BIT       ET1
      00000088H.5 SFRSYM    DATA     BIT       TF0
      000000FDH   SFRSYM    DATA     BYTE      DATA0
      000000A8H.5 SFRSYM    DATA     BIT       ET2
      00000098H.0 SFRSYM    DATA     BIT       RI0
      00000088H.7 SFRSYM    DATA     BIT       TF1
      000000E8H   SFRSYM    DATA     BYTE      CAN_ET
      000000FCH   SFRSYM    DATA     BYTE      DATA1
      000000C0H.6 SFRSYM    DATA     BIT       TF2
      0000008CH   SFRSYM    DATA     BYTE      TH0
      000000FBH   SFRSYM    DATA     BYTE      DATA2
      000000A8H.0 SFRSYM    DATA     BIT       EX0
      00000098H.1 SFRSYM    DATA     BIT       TI0
      0000008DH   SFRSYM    DATA     BYTE      TH1
      00000088H.0 SFRSYM    DATA     BIT       IT0
      00000091H   SFRSYM    DATA     BYTE      CAN_IR
      000000FAH   SFRSYM    DATA     BYTE      DATA3
      000000CDH   SFRSYM    DATA     BYTE      TH2
      000000A8H.2 SFRSYM    DATA     BIT       EX1
      00000088H.2 SFRSYM    DATA     BIT       IT1
      000000D0H.0 SFRSYM    DATA     BIT       P
      0000008AH   SFRSYM    DATA     BYTE      TL0
      0000008BH   SFRSYM    DATA     BYTE      TL1
      000000CCH   SFRSYM    DATA     BYTE      TL2
      000000F8H.6 SFRSYM    DATA     BIT       APP_EN
      000000D0H.3 SFRSYM    DATA     BIT       RS0
      000000D0H.4 SFRSYM    DATA     BIT       RS1
      00000088H.4 SFRSYM    DATA     BIT       TR0
      00000093H   SFRSYM    DATA     BYTE      DPC
      00000088H.6 SFRSYM    DATA     BIT       TR1
      000000E5H   SFRSYM    DATA     BYTE      MAC_MODE
      000000C8H.0 SFRSYM    DATA     BIT       TR2
      00000083H   SFRSYM    DATA     BYTE      DPH
      00000082H   SFRSYM    DATA     BYTE      DPL
      00000099H   SFRSYM    DATA     BYTE      SBUF0
      0000009CH   SFRSYM    DATA     BYTE      SBUF1
LX51 LINKER/LOCATER V4.66.93.0                                                        07/09/2019  19:31:38  PAGE 29


      00000098H   SFRSYM    DATA     BYTE      SCON0
      0000009BH   SFRSYM    DATA     BYTE      SCON1
      000000D8H   SFRSYM    DATA     BYTE      ADCON
      000000C8H   SFRSYM    DATA     BYTE      T2CON
      000000E6H   SFRSYM    DATA     BYTE      DIV_MODE
      000000F8H.5 SFRSYM    DATA     BIT       APP_RW
      000000CBH   SFRSYM    DATA     BYTE      TRL2H
      0000009FH   SFRSYM    DATA     BYTE      SBUF2_RX
      000000ADH   SFRSYM    DATA     BYTE      SBUF3_RX
      0000008EH   SFRSYM    DATA     BYTE      CKCON
      0000009EH   SFRSYM    DATA     BYTE      SBUF2_TX
      000000ACH   SFRSYM    DATA     BYTE      SBUF3_TX
      000000CAH   SFRSYM    DATA     BYTE      TRL2L
      000000FEH   SFRSYM    DATA     BYTE      EXADR
      000000D0H.5 SFRSYM    DATA     BIT       F0
      000000D0H.1 SFRSYM    DATA     BIT       F1
      000000D0H   SFRSYM    DATA     BYTE      PSW
      000000C0H   SFRSYM    DATA     BYTE      IRCON
      00000090H.0 SFRSYM    DATA     BIT       CH376_A0

      010045F8H   BLOCK     CODE     ---       LVL=0
      010045F8H   LINE      CODE     ---       #32
      010045F8H   LINE      CODE     ---       #33
      010045F8H   LINE      CODE     ---       #34
      010045FAH   LINE      CODE     ---       #35
      010045FDH   LINE      CODE     ---       #36
      01004600H   LINE      CODE     ---       #37
      01004602H   LINE      CODE     ---       #38
      01004605H   LINE      CODE     ---       #39
      01004608H   LINE      CODE     ---       #40
      0100460AH   LINE      CODE     ---       #41
      0100460DH   LINE      CODE     ---       #42
      0100460FH   LINE      CODE     ---       #44
      01004611H   LINE      CODE     ---       #45
      01004613H   LINE      CODE     ---       #46
      01004615H   LINE      CODE     ---       #47
      01004617H   LINE      CODE     ---       #48
      01004619H   LINE      CODE     ---       #49
      0100461BH   LINE      CODE     ---       #52
      0100461EH   LINE      CODE     ---       #53
      01004620H   LINE      CODE     ---       #54
      01004622H   LINE      CODE     ---       #55
      01004625H   LINE      CODE     ---       #59
      01004628H   LINE      CODE     ---       #60
      0100462BH   LINE      CODE     ---       #61
      0100462EH   LINE      CODE     ---       #62
      01004630H   LINE      CODE     ---       #63
      01004632H   LINE      CODE     ---       #64
      ---         BLOCKEND  ---      ---       LVL=0

      ---         MODULE    ---      ---       UART
      010046A0H   PUBLIC    CODE     ---       _UART5_SendString
      010047FDH   PUBLIC    CODE     ---       _UART5_Sendbyte
      010048E3H   PUBLIC    CODE     ---       UART5_Init
      000000F1H   SFRSYM    DATA     BYTE      ADR_H
      00000080H   SFRSYM    DATA     BYTE      P0
      00000090H   SFRSYM    DATA     BYTE      P1
      000000A0H   SFRSYM    DATA     BYTE      P2
      000000B0H   SFRSYM    DATA     BYTE      P3
      000000F3H   SFRSYM    DATA     BYTE      ADR_L
      000000D0H.6 SFRSYM    DATA     BIT       AC
      00000094H   SFRSYM    DATA     BYTE      PAGESEL
      000000F2H   SFRSYM    DATA     BYTE      ADR_M
      000000A8H.7 SFRSYM    DATA     BIT       EA
      000000F8H   SFRSYM    DATA     BYTE      RAMMODE
LX51 LINKER/LOCATER V4.66.93.0                                                        07/09/2019  19:31:38  PAGE 30


      000000B7H   SFRSYM    DATA     BYTE      P0MDOUT
      000000BCH   SFRSYM    DATA     BYTE      P1MDOUT
      000000A8H   SFRSYM    DATA     BYTE      IEN0
      000000BDH   SFRSYM    DATA     BYTE      P2MDOUT
      000000B8H   SFRSYM    DATA     BYTE      IEN1
      000000BEH   SFRSYM    DATA     BYTE      P3MDOUT
      0000009AH   SFRSYM    DATA     BYTE      IEN2
      000000D1H   SFRSYM    DATA     BYTE      IEN3
      00000090H.4 SFRSYM    DATA     BIT       CH376_INT_WIRE
      000000F8H.4 SFRSYM    DATA     BIT       APP_ACK
      000000F4H   SFRSYM    DATA     BYTE      ADR_INC
      000000B8H.1 SFRSYM    DATA     BIT       ECAN
      000000D0H.7 SFRSYM    DATA     BIT       CY
      000000B8H.3 SFRSYM    DATA     BIT       ES2R
      000000B8H.5 SFRSYM    DATA     BIT       ES3R
      000000B8H.2 SFRSYM    DATA     BIT       ES2T
      000000B8H.4 SFRSYM    DATA     BIT       ES3T
      00000090H.3 SFRSYM    DATA     BIT       CH376_RD
      00000090H.1 SFRSYM    DATA     BIT       CH376_CS
      00000081H   SFRSYM    DATA     BYTE      SP
      000000D0H.2 SFRSYM    DATA     BIT       OV
      00000095H   SFRSYM    DATA     BYTE      D_PAGESEL
      000000F8H.7 SFRSYM    DATA     BIT       APP_REQ
      000000BFH   SFRSYM    DATA     BYTE      IRCON2
      000000BAH   SFRSYM    DATA     BYTE      SREL0H
      000000BBH   SFRSYM    DATA     BYTE      SREL1H
      00000087H   SFRSYM    DATA     BYTE      PCON
      000000F9H   SFRSYM    DATA     BYTE      PORTDRV
      000000AAH   SFRSYM    DATA     BYTE      SREL0L
      0000009DH   SFRSYM    DATA     BYTE      SREL1L
      00000089H   SFRSYM    DATA     BYTE      TMOD
      00000088H   SFRSYM    DATA     BYTE      TCON
      00000090H.2 SFRSYM    DATA     BIT       CH376_WR
      000000FFH   SFRSYM    DATA     BYTE      EXDATA
      00000097H   SFRSYM    DATA     BYTE      SCON2R
      000000ABH   SFRSYM    DATA     BYTE      SCON3R
      000000D9H   SFRSYM    DATA     BYTE      BODE2_DIV_H
      000000AEH   SFRSYM    DATA     BYTE      BODE3_DIV_H
      00000096H   SFRSYM    DATA     BYTE      SCON2T
      000000A7H   SFRSYM    DATA     BYTE      SCON3T
      000000E7H   SFRSYM    DATA     BYTE      BODE2_DIV_L
      00000088H.1 SFRSYM    DATA     BIT       IE0
      000000AFH   SFRSYM    DATA     BYTE      BODE3_DIV_L
      00000088H.3 SFRSYM    DATA     BIT       IE1
      000000C9H   SFRSYM    DATA     BYTE      MUX_SEL
      000000F0H   SFRSYM    DATA     BYTE      B
      000000E0H   SFRSYM    DATA     BYTE      ACC
      0000008FH   SFRSYM    DATA     BYTE      CAN_CR
      000000A8H.4 SFRSYM    DATA     BIT       ES0
      000000A9H   SFRSYM    DATA     BYTE      IP0
      000000A8H.1 SFRSYM    DATA     BIT       ET0
      000000B9H   SFRSYM    DATA     BYTE      IP1
      000000A8H.3 SFRSYM    DATA     BIT       ET1
      00000088H.5 SFRSYM    DATA     BIT       TF0
      000000FDH   SFRSYM    DATA     BYTE      DATA0
      000000A8H.5 SFRSYM    DATA     BIT       ET2
      00000098H.0 SFRSYM    DATA     BIT       RI0
      00000088H.7 SFRSYM    DATA     BIT       TF1
      000000E8H   SFRSYM    DATA     BYTE      CAN_ET
      000000FCH   SFRSYM    DATA     BYTE      DATA1
      000000C0H.6 SFRSYM    DATA     BIT       TF2
      0000008CH   SFRSYM    DATA     BYTE      TH0
      000000FBH   SFRSYM    DATA     BYTE      DATA2
      000000A8H.0 SFRSYM    DATA     BIT       EX0
      00000098H.1 SFRSYM    DATA     BIT       TI0
LX51 LINKER/LOCATER V4.66.93.0                                                        07/09/2019  19:31:38  PAGE 31


      0000008DH   SFRSYM    DATA     BYTE      TH1
      00000088H.0 SFRSYM    DATA     BIT       IT0
      00000091H   SFRSYM    DATA     BYTE      CAN_IR
      000000FAH   SFRSYM    DATA     BYTE      DATA3
      000000CDH   SFRSYM    DATA     BYTE      TH2
      000000A8H.2 SFRSYM    DATA     BIT       EX1
      00000088H.2 SFRSYM    DATA     BIT       IT1
      000000D0H.0 SFRSYM    DATA     BIT       P
      0000008AH   SFRSYM    DATA     BYTE      TL0
      0000008BH   SFRSYM    DATA     BYTE      TL1
      000000CCH   SFRSYM    DATA     BYTE      TL2
      000000F8H.6 SFRSYM    DATA     BIT       APP_EN
      000000D0H.3 SFRSYM    DATA     BIT       RS0
      000000D0H.4 SFRSYM    DATA     BIT       RS1
      00000088H.4 SFRSYM    DATA     BIT       TR0
      00000093H   SFRSYM    DATA     BYTE      DPC
      00000088H.6 SFRSYM    DATA     BIT       TR1
      000000E5H   SFRSYM    DATA     BYTE      MAC_MODE
      000000C8H.0 SFRSYM    DATA     BIT       TR2
      00000083H   SFRSYM    DATA     BYTE      DPH
      00000082H   SFRSYM    DATA     BYTE      DPL
      00000099H   SFRSYM    DATA     BYTE      SBUF0
      0000009CH   SFRSYM    DATA     BYTE      SBUF1
      00000098H   SFRSYM    DATA     BYTE      SCON0
      0000009BH   SFRSYM    DATA     BYTE      SCON1
      000000D8H   SFRSYM    DATA     BYTE      ADCON
      000000C8H   SFRSYM    DATA     BYTE      T2CON
      000000E6H   SFRSYM    DATA     BYTE      DIV_MODE
      000000F8H.5 SFRSYM    DATA     BIT       APP_RW
      000000CBH   SFRSYM    DATA     BYTE      TRL2H
      0000009FH   SFRSYM    DATA     BYTE      SBUF2_RX
      000000ADH   SFRSYM    DATA     BYTE      SBUF3_RX
      0000008EH   SFRSYM    DATA     BYTE      CKCON
      0000009EH   SFRSYM    DATA     BYTE      SBUF2_TX
      000000ACH   SFRSYM    DATA     BYTE      SBUF3_TX
      000000CAH   SFRSYM    DATA     BYTE      TRL2L
      000000FEH   SFRSYM    DATA     BYTE      EXADR
      000000D0H.5 SFRSYM    DATA     BIT       F0
      000000D0H.1 SFRSYM    DATA     BIT       F1
      000000D0H   SFRSYM    DATA     BYTE      PSW
      000000C0H   SFRSYM    DATA     BYTE      IRCON
      00000090H.0 SFRSYM    DATA     BIT       CH376_A0

      010048E3H   BLOCK     CODE     ---       LVL=0
      010048E3H   LINE      CODE     ---       #32
      010048E3H   LINE      CODE     ---       #33
      010048E3H   LINE      CODE     ---       #34
      010048E6H   LINE      CODE     ---       #35
      010048E9H   LINE      CODE     ---       #36
      010048ECH   LINE      CODE     ---       #37
      010048EFH   LINE      CODE     ---       #38
      ---         BLOCKEND  ---      ---       LVL=0

      010047ECH   BLOCK     CODE     ---       LVL=0
      ---         BLOCKEND  ---      ---       LVL=0

      010047FDH   BLOCK     CODE     ---       LVL=0
      00000007H   SYMBOL    DATA     BYTE      dat
      010047FDH   LINE      CODE     ---       #50
      010047FDH   LINE      CODE     ---       #51
      010047FDH   LINE      CODE     ---       #52
      010047FFH   LINE      CODE     ---       #53
      01004805H   LINE      CODE     ---       #54
      01004808H   LINE      CODE     ---       #55
      ---         BLOCKEND  ---      ---       LVL=0
LX51 LINKER/LOCATER V4.66.93.0                                                        07/09/2019  19:31:38  PAGE 32



      010046A0H   BLOCK     CODE     ---       LVL=0
      0200909DH   SYMBOL    XDATA    ---       pBuf
      010046A0H   LINE      CODE     ---       #67
      010046ABH   LINE      CODE     ---       #68
      010046ABH   LINE      CODE     ---       #69
      010046BBH   LINE      CODE     ---       #70
      010046BBH   LINE      CODE     ---       #71
      010046D0H   LINE      CODE     ---       #72
      010046D2H   LINE      CODE     ---       #73
      ---         BLOCKEND  ---      ---       LVL=0

      ---         MODULE    ---      ---       PARA_PORT
      01004826H   PUBLIC    CODE     ---       xReadCH376Data
      01004841H   PUBLIC    CODE     ---       _xWriteCH376Data
      010047CDH   PUBLIC    CODE     ---       _xWriteCH376Cmd
      010048D4H   PUBLIC    CODE     ---       CH376_PORT_INIT
      010048C3H   PUBLIC    CODE     ---       mDelay0_5uS
      000000F1H   SFRSYM    DATA     BYTE      ADR_H
      00000080H   SFRSYM    DATA     BYTE      P0
      00000090H   SFRSYM    DATA     BYTE      P1
      000000A0H   SFRSYM    DATA     BYTE      P2
      000000B0H   SFRSYM    DATA     BYTE      P3
      000000F3H   SFRSYM    DATA     BYTE      ADR_L
      000000D0H.6 SFRSYM    DATA     BIT       AC
      00000094H   SFRSYM    DATA     BYTE      PAGESEL
      000000F2H   SFRSYM    DATA     BYTE      ADR_M
      000000A8H.7 SFRSYM    DATA     BIT       EA
      000000F8H   SFRSYM    DATA     BYTE      RAMMODE
      000000B7H   SFRSYM    DATA     BYTE      P0MDOUT
      000000BCH   SFRSYM    DATA     BYTE      P1MDOUT
      000000A8H   SFRSYM    DATA     BYTE      IEN0
      000000BDH   SFRSYM    DATA     BYTE      P2MDOUT
      000000B8H   SFRSYM    DATA     BYTE      IEN1
      000000BEH   SFRSYM    DATA     BYTE      P3MDOUT
      0000009AH   SFRSYM    DATA     BYTE      IEN2
      000000D1H   SFRSYM    DATA     BYTE      IEN3
      00000090H.4 SFRSYM    DATA     BIT       CH376_INT_WIRE
      000000F8H.4 SFRSYM    DATA     BIT       APP_ACK
      000000F4H   SFRSYM    DATA     BYTE      ADR_INC
      000000B8H.1 SFRSYM    DATA     BIT       ECAN
      000000D0H.7 SFRSYM    DATA     BIT       CY
      000000B8H.3 SFRSYM    DATA     BIT       ES2R
      000000B8H.5 SFRSYM    DATA     BIT       ES3R
      000000B8H.2 SFRSYM    DATA     BIT       ES2T
      000000B8H.4 SFRSYM    DATA     BIT       ES3T
      00000090H.3 SFRSYM    DATA     BIT       CH376_RD
      00000090H.1 SFRSYM    DATA     BIT       CH376_CS
      00000081H   SFRSYM    DATA     BYTE      SP
      000000D0H.2 SFRSYM    DATA     BIT       OV
      00000095H   SFRSYM    DATA     BYTE      D_PAGESEL
      000000F8H.7 SFRSYM    DATA     BIT       APP_REQ
      000000BFH   SFRSYM    DATA     BYTE      IRCON2
      000000BAH   SFRSYM    DATA     BYTE      SREL0H
      000000BBH   SFRSYM    DATA     BYTE      SREL1H
      00000087H   SFRSYM    DATA     BYTE      PCON
      000000F9H   SFRSYM    DATA     BYTE      PORTDRV
      000000AAH   SFRSYM    DATA     BYTE      SREL0L
      0000009DH   SFRSYM    DATA     BYTE      SREL1L
      00000089H   SFRSYM    DATA     BYTE      TMOD
      00000088H   SFRSYM    DATA     BYTE      TCON
      00000090H.2 SFRSYM    DATA     BIT       CH376_WR
      000000FFH   SFRSYM    DATA     BYTE      EXDATA
      00000097H   SFRSYM    DATA     BYTE      SCON2R
      000000ABH   SFRSYM    DATA     BYTE      SCON3R
LX51 LINKER/LOCATER V4.66.93.0                                                        07/09/2019  19:31:38  PAGE 33


      000000D9H   SFRSYM    DATA     BYTE      BODE2_DIV_H
      000000AEH   SFRSYM    DATA     BYTE      BODE3_DIV_H
      00000096H   SFRSYM    DATA     BYTE      SCON2T
      000000A7H   SFRSYM    DATA     BYTE      SCON3T
      000000E7H   SFRSYM    DATA     BYTE      BODE2_DIV_L
      00000088H.1 SFRSYM    DATA     BIT       IE0
      000000AFH   SFRSYM    DATA     BYTE      BODE3_DIV_L
      00000088H.3 SFRSYM    DATA     BIT       IE1
      000000C9H   SFRSYM    DATA     BYTE      MUX_SEL
      000000F0H   SFRSYM    DATA     BYTE      B
      000000E0H   SFRSYM    DATA     BYTE      ACC
      0000008FH   SFRSYM    DATA     BYTE      CAN_CR
      000000A8H.4 SFRSYM    DATA     BIT       ES0
      000000A9H   SFRSYM    DATA     BYTE      IP0
      000000A8H.1 SFRSYM    DATA     BIT       ET0
      000000B9H   SFRSYM    DATA     BYTE      IP1
      000000A8H.3 SFRSYM    DATA     BIT       ET1
      00000088H.5 SFRSYM    DATA     BIT       TF0
      000000FDH   SFRSYM    DATA     BYTE      DATA0
      000000A8H.5 SFRSYM    DATA     BIT       ET2
      00000098H.0 SFRSYM    DATA     BIT       RI0
      00000088H.7 SFRSYM    DATA     BIT       TF1
      000000E8H   SFRSYM    DATA     BYTE      CAN_ET
      000000FCH   SFRSYM    DATA     BYTE      DATA1
      000000C0H.6 SFRSYM    DATA     BIT       TF2
      0000008CH   SFRSYM    DATA     BYTE      TH0
      000000FBH   SFRSYM    DATA     BYTE      DATA2
      000000A8H.0 SFRSYM    DATA     BIT       EX0
      00000098H.1 SFRSYM    DATA     BIT       TI0
      0000008DH   SFRSYM    DATA     BYTE      TH1
      00000088H.0 SFRSYM    DATA     BIT       IT0
      00000091H   SFRSYM    DATA     BYTE      CAN_IR
      000000FAH   SFRSYM    DATA     BYTE      DATA3
      000000CDH   SFRSYM    DATA     BYTE      TH2
      000000A8H.2 SFRSYM    DATA     BIT       EX1
      00000088H.2 SFRSYM    DATA     BIT       IT1
      000000D0H.0 SFRSYM    DATA     BIT       P
      0000008AH   SFRSYM    DATA     BYTE      TL0
      0000008BH   SFRSYM    DATA     BYTE      TL1
      000000CCH   SFRSYM    DATA     BYTE      TL2
      000000F8H.6 SFRSYM    DATA     BIT       APP_EN
      000000D0H.3 SFRSYM    DATA     BIT       RS0
      000000D0H.4 SFRSYM    DATA     BIT       RS1
      00000088H.4 SFRSYM    DATA     BIT       TR0
      00000093H   SFRSYM    DATA     BYTE      DPC
      00000088H.6 SFRSYM    DATA     BIT       TR1
      000000E5H   SFRSYM    DATA     BYTE      MAC_MODE
      000000C8H.0 SFRSYM    DATA     BIT       TR2
      00000083H   SFRSYM    DATA     BYTE      DPH
      00000082H   SFRSYM    DATA     BYTE      DPL
      00000099H   SFRSYM    DATA     BYTE      SBUF0
      0000009CH   SFRSYM    DATA     BYTE      SBUF1
      00000098H   SFRSYM    DATA     BYTE      SCON0
      0000009BH   SFRSYM    DATA     BYTE      SCON1
      000000D8H   SFRSYM    DATA     BYTE      ADCON
      000000C8H   SFRSYM    DATA     BYTE      T2CON
      000000E6H   SFRSYM    DATA     BYTE      DIV_MODE
      000000F8H.5 SFRSYM    DATA     BIT       APP_RW
      000000CBH   SFRSYM    DATA     BYTE      TRL2H
      0000009FH   SFRSYM    DATA     BYTE      SBUF2_RX
      000000ADH   SFRSYM    DATA     BYTE      SBUF3_RX
      0000008EH   SFRSYM    DATA     BYTE      CKCON
      0000009EH   SFRSYM    DATA     BYTE      SBUF2_TX
      000000ACH   SFRSYM    DATA     BYTE      SBUF3_TX
      000000CAH   SFRSYM    DATA     BYTE      TRL2L
LX51 LINKER/LOCATER V4.66.93.0                                                        07/09/2019  19:31:38  PAGE 34


      000000FEH   SFRSYM    DATA     BYTE      EXADR
      000000D0H.5 SFRSYM    DATA     BIT       F0
      000000D0H.1 SFRSYM    DATA     BIT       F1
      000000D0H   SFRSYM    DATA     BYTE      PSW
      000000C0H   SFRSYM    DATA     BYTE      IRCON
      00000090H.0 SFRSYM    DATA     BIT       CH376_A0

      010048C3H   BLOCK     CODE     ---       LVL=0
      010048C3H   BLOCK     CODE     NEAR LAB  LVL=1
      00000007H   SYMBOL    DATA     BYTE      i
      ---         BLOCKEND  ---      ---       LVL=1
      010048C3H   LINE      CODE     ---       #40
      010048C3H   LINE      CODE     ---       #41
      010048C3H   LINE      CODE     ---       #43
      010048D3H   LINE      CODE     ---       #44
      ---         BLOCKEND  ---      ---       LVL=0

      010048D4H   BLOCK     CODE     ---       LVL=0
      010048D4H   LINE      CODE     ---       #56
      010048D4H   LINE      CODE     ---       #57
      010048D4H   LINE      CODE     ---       #58
      010048D4H   LINE      CODE     ---       #59
      010048D7H   LINE      CODE     ---       #60
      010048D9H   LINE      CODE     ---       #61
      010048DBH   LINE      CODE     ---       #62
      010048DDH   LINE      CODE     ---       #63
      010048DFH   LINE      CODE     ---       #64
      010048E2H   LINE      CODE     ---       #65
      ---         BLOCKEND  ---      ---       LVL=0
      00000007H   SYMBOL    DATA     BYTE      mData

      010047CDH   BLOCK     CODE     ---       LVL=0
      00000007H   SYMBOL    DATA     BYTE      mCmd
      010047CDH   LINE      CODE     ---       #103
      010047CDH   LINE      CODE     ---       #104
      010047CDH   LINE      CODE     ---       #105
      010047CFH   LINE      CODE     ---       #106
      010047D2H   LINE      CODE     ---       #107
      010047D4H   LINE      CODE     ---       #108
      010047D6H   LINE      CODE     ---       #109
      010047D8H   LINE      CODE     ---       #110
      010047DAH   LINE      CODE     ---       #111
      010047DCH   LINE      CODE     ---       #112
      010047DEH   LINE      CODE     ---       #113
      010047E0H   LINE      CODE     ---       #114
      010047E3H   LINE      CODE     ---       #115
      ---         BLOCKEND  ---      ---       LVL=0

      01004841H   BLOCK     CODE     ---       LVL=0
      00000007H   SYMBOL    DATA     BYTE      mData
      01004841H   LINE      CODE     ---       #128
      01004841H   LINE      CODE     ---       #129
      01004841H   LINE      CODE     ---       #130
      01004843H   LINE      CODE     ---       #131
      01004846H   LINE      CODE     ---       #132
      01004848H   LINE      CODE     ---       #133
      0100484AH   LINE      CODE     ---       #134
      0100484CH   LINE      CODE     ---       #135
      0100484EH   LINE      CODE     ---       #136
      01004850H   LINE      CODE     ---       #137
      01004852H   LINE      CODE     ---       #138
      01004855H   LINE      CODE     ---       #139
      ---         BLOCKEND  ---      ---       LVL=0

      01004826H   BLOCK     CODE     ---       LVL=0
LX51 LINKER/LOCATER V4.66.93.0                                                        07/09/2019  19:31:38  PAGE 35


      01004826H   BLOCK     CODE     NEAR LAB  LVL=1
      00000007H   SYMBOL    DATA     BYTE      mData
      ---         BLOCKEND  ---      ---       LVL=1
      01004826H   LINE      CODE     ---       #152
      01004826H   LINE      CODE     ---       #153
      01004826H   LINE      CODE     ---       #155
      01004829H   LINE      CODE     ---       #156
      0100482CH   LINE      CODE     ---       #157
      0100482EH   LINE      CODE     ---       #158
      01004830H   LINE      CODE     ---       #159
      01004832H   LINE      CODE     ---       #160
      01004834H   LINE      CODE     ---       #161
      01004836H   LINE      CODE     ---       #162
      01004838H   LINE      CODE     ---       #163
      0100483AH   LINE      CODE     ---       #164
      0100483CH   LINE      CODE     ---       #165
      0100483EH   LINE      CODE     ---       #166
      01004840H   LINE      CODE     ---       #167
      01004840H   LINE      CODE     ---       #168
      ---         BLOCKEND  ---      ---       LVL=0

      ---         MODULE    ---      ---       USB_DGUS
      0100259DH   PUBLIC    CODE     ---       _?SystemUpDriver
      010041EAH   PUBLIC    CODE     ---       AckDiskInit
      01004068H   PUBLIC    CODE     ---       AckSystemUp
      01002F38H   PUBLIC    CODE     ---       AckGetOrSetPath
      01001F73H   PUBLIC    CODE     ---       AckReadOrWriteFile
      0100239EH   PUBLIC    CODE     ---       AckSearchFile
      0100000EH   PUBLIC    CODE     ---       AckCreateOrDelPath
      0200909DH   PUBLIC    XDATA    BYTE      ?_WriteDgusClientString?BYTE
      010042C9H   PUBLIC    CODE     ---       _WriteDgusClientString
      0200909DH   PUBLIC    XDATA    BYTE      ?_ReadDgusClientString?BYTE
      010039E2H   PUBLIC    CODE     ---       _ReadDgusClientString
      02008001H   PUBLIC    XDATA    BYTE      ?_CompareDgusRegValue?BYTE
      010046DFH   PUBLIC    CODE     ---       _CompareDgusRegValue
      010036C2H   PUBLIC    CODE     ---       USBModule

      010036C2H   BLOCK     CODE     ---       LVL=0
      010036C2H   BLOCK     CODE     NEAR LAB  LVL=1
      02008000H   SYMBOL    XDATA    BYTE      ACK
      ---         BLOCKEND  ---      ---       LVL=1
      010036C2H   LINE      CODE     ---       #83
      010036C2H   LINE      CODE     ---       #84
      010036C2H   LINE      CODE     ---       #85
      010036C7H   LINE      CODE     ---       #86
      010036CAH   LINE      CODE     ---       #88
      010036E6H   LINE      CODE     ---       #90
      010036ECH   LINE      CODE     ---       #91
      01003708H   LINE      CODE     ---       #93
      0100370EH   LINE      CODE     ---       #94
      0100372AH   LINE      CODE     ---       #96
      01003730H   LINE      CODE     ---       #97
      0100373EH   LINE      CODE     ---       #98
      01003744H   LINE      CODE     ---       #99
      01003784H   LINE      CODE     ---       #105
      0100378AH   LINE      CODE     ---       #106
      010037ACH   LINE      CODE     ---       #108
      010037B2H   LINE      CODE     ---       #110
      010037C8H   LINE      CODE     ---       #111
      010037C8H   LINE      CODE     ---       #112
      010037C8H   LINE      CODE     ---       #113
      010037C8H   LINE      CODE     ---       #114
      010037CBH   LINE      CODE     ---       #115
      010037CBH   LINE      CODE     ---       #116
      010037CBH   LINE      CODE     ---       #117
LX51 LINKER/LOCATER V4.66.93.0                                                        07/09/2019  19:31:38  PAGE 36


      010037CBH   LINE      CODE     ---       #118
      010037CBH   LINE      CODE     ---       #119
      010037CEH   LINE      CODE     ---       #120
      010037CEH   LINE      CODE     ---       #121
      010037CEH   LINE      CODE     ---       #122
      010037CEH   LINE      CODE     ---       #123
      010037CEH   LINE      CODE     ---       #124
      010037D1H   LINE      CODE     ---       #125
      010037D1H   LINE      CODE     ---       #126
      010037D1H   LINE      CODE     ---       #127
      010037D1H   LINE      CODE     ---       #128
      010037D1H   LINE      CODE     ---       #129
      010037D4H   LINE      CODE     ---       #130
      010037D4H   LINE      CODE     ---       #131
      010037D4H   LINE      CODE     ---       #132
      010037D4H   LINE      CODE     ---       #133
      010037D4H   LINE      CODE     ---       #134
      010037D7H   LINE      CODE     ---       #135
      010037D7H   LINE      CODE     ---       #136
      010037D7H   LINE      CODE     ---       #137
      010037D7H   LINE      CODE     ---       #138
      010037D7H   LINE      CODE     ---       #139
      010037DAH   LINE      CODE     ---       #140
      010037DAH   LINE      CODE     ---       #141
      010037DAH   LINE      CODE     ---       #142
      010037DAH   LINE      CODE     ---       #143
      010037DAH   LINE      CODE     ---       #144
      010037DAH   LINE      CODE     ---       #145
      ---         BLOCKEND  ---      ---       LVL=0

      010046D3H   BLOCK     CODE     VOID      LVL=0
      ---         BLOCKEND  ---      ---       LVL=0

      010046DFH   BLOCK     CODE     ---       LVL=0
      00000004H   SYMBOL    DATA     DWORD     AddrDgus
      02008005H   SYMBOL    XDATA    BYTE      Value
      02008006H   SYMBOL    XDATA    BYTE      DgusValue
      010046DFH   BLOCK     CODE     NEAR LAB  LVL=1
      02008006H   SYMBOL    XDATA    BYTE      DgusValue
      ---         BLOCKEND  ---      ---       LVL=1
      010046DFH   LINE      CODE     ---       #159
      010046DFH   LINE      CODE     ---       #160
      010046DFH   LINE      CODE     ---       #161
      010046E4H   LINE      CODE     ---       #162
      010046F4H   LINE      CODE     ---       #163
      01004701H   LINE      CODE     ---       #164
      01004703H   LINE      CODE     ---       #165
      ---         BLOCKEND  ---      ---       LVL=0

      010039E2H   BLOCK     CODE     ---       LVL=0
      0200909DH   SYMBOL    XDATA    DWORD     AddrDgus
      020090A1H   SYMBOL    XDATA    ---       pData
      020090A4H   SYMBOL    XDATA    ---       pDataLen
      010039F3H   BLOCK     CODE     NEAR LAB  LVL=1
      020090A7H   SYMBOL    XDATA    BYTE      i
      020090A8H   SYMBOL    XDATA    BYTE      Data1
      020090A9H   SYMBOL    XDATA    BYTE      Data2
      020090AAH   SYMBOL    XDATA    WORD      Len
      ---         BLOCKEND  ---      ---       LVL=1
      010039E2H   LINE      CODE     ---       #179
      010039F3H   LINE      CODE     ---       #180
      010039F3H   LINE      CODE     ---       #181
      010039FCH   LINE      CODE     ---       #182
      01003A00H   LINE      CODE     ---       #183
      01003A18H   LINE      CODE     ---       #184
LX51 LINKER/LOCATER V4.66.93.0                                                        07/09/2019  19:31:38  PAGE 37


      01003A41H   LINE      CODE     ---       #185
      01003A60H   LINE      CODE     ---       #186
      01003A60H   LINE      CODE     ---       #187
      01003A8DH   LINE      CODE     ---       #188
      01003A8DH   LINE      CODE     ---       #189
      01003A9EH   LINE      CODE     ---       #190
      01003A9EH   LINE      CODE     ---       #191
      01003AA6H   LINE      CODE     ---       #192
      01003AE0H   LINE      CODE     ---       #193
      ---         BLOCKEND  ---      ---       LVL=0

      010042C9H   BLOCK     CODE     ---       LVL=0
      0200909DH   SYMBOL    XDATA    DWORD     AddrDgus
      020090A1H   SYMBOL    XDATA    ---       pData
      020090A4H   SYMBOL    XDATA    WORD      DataLen
      010042C9H   LINE      CODE     ---       #207
      010042DAH   LINE      CODE     ---       #208
      010042DAH   LINE      CODE     ---       #210
      010042F6H   LINE      CODE     ---       #211
      01004309H   LINE      CODE     ---       #212
      ---         BLOCKEND  ---      ---       LVL=0

      0100000EH   BLOCK     CODE     ---       LVL=0
      0100000EH   BLOCK     CODE     NEAR LAB  LVL=1
      02008001H   SYMBOL    XDATA    ---       Cmd
      02008009H   SYMBOL    XDATA    ---       Path
      02008089H   SYMBOL    XDATA    BYTE      Mod
      0200808AH   SYMBOL    XDATA    BYTE      FileType
      0200808BH   SYMBOL    XDATA    WORD      PathLength
      00000006H   SYMBOL    DATA     WORD      AddrDgusPath
      ---         BLOCKEND  ---      ---       LVL=1
      0100000EH   LINE      CODE     ---       #226
      0100000EH   LINE      CODE     ---       #227
      0100000EH   LINE      CODE     ---       #230
      01000015H   LINE      CODE     ---       #231
      0100001AH   LINE      CODE     ---       #232
      01000026H   LINE      CODE     ---       #233
      01000035H   LINE      CODE     ---       #235
      0100004FH   LINE      CODE     ---       #236
      01000057H   LINE      CODE     ---       #237
      0100005FH   LINE      CODE     ---       #238
      01000069H   LINE      CODE     ---       #239
      01000072H   LINE      CODE     ---       #241
      0100008BH   LINE      CODE     ---       #242
      0100009EH   LINE      CODE     ---       #243
      010000AAH   LINE      CODE     ---       #245
      010000B6H   LINE      CODE     ---       #246
      010000B6H   LINE      CODE     ---       #247
      010000B6H   LINE      CODE     ---       #248
      010000B6H   LINE      CODE     ---       #249
      010000C4H   LINE      CODE     ---       #250
      010000C6H   LINE      CODE     ---       #251
      010000C6H   LINE      CODE     ---       #252
      010000C6H   LINE      CODE     ---       #253
      010000C6H   LINE      CODE     ---       #254
      010000D4H   LINE      CODE     ---       #255
      010000D4H   LINE      CODE     ---       #256
      010000D4H   LINE      CODE     ---       #257
      010000D4H   LINE      CODE     ---       #258
      010000D4H   LINE      CODE     ---       #259
      010000D4H   LINE      CODE     ---       #261
      010000D9H   LINE      CODE     ---       #262
      ---         BLOCKEND  ---      ---       LVL=0

      0100239EH   BLOCK     CODE     ---       LVL=0
LX51 LINKER/LOCATER V4.66.93.0                                                        07/09/2019  19:31:38  PAGE 38


      0100239EH   BLOCK     CODE     NEAR LAB  LVL=1
      02008695H   SYMBOL    XDATA    ---       Cmd
      0200869DH   SYMBOL    XDATA    ---       Path
      0200871DH   SYMBOL    XDATA    ---       AimString
      0200872DH   SYMBOL    XDATA    ---       MatchLish
      00000001H   SYMBOL    DATA     ---       pMatch
      02008A4DH   SYMBOL    XDATA    BYTE      Mod
      02008A4EH   SYMBOL    XDATA    BYTE      Status
      02008A4FH   SYMBOL    XDATA    BYTE      MatchNumber
      00000007H   SYMBOL    DATA     BYTE      i
      02008A50H   SYMBOL    XDATA    WORD      PathLength
      02008A52H   SYMBOL    XDATA    WORD      AimStringLen
      02008A54H   SYMBOL    XDATA    WORD      AddrDgusPath
      02008A56H   SYMBOL    XDATA    WORD      AddrDgusAimString
      02008A58H   SYMBOL    XDATA    WORD      AddrDgusMatchResult
      ---         BLOCKEND  ---      ---       LVL=1
      0100239EH   LINE      CODE     ---       #275
      0100239EH   LINE      CODE     ---       #276
      0100239EH   LINE      CODE     ---       #281
      010023A0H   LINE      CODE     ---       #282
      010023A9H   LINE      CODE     ---       #283
      010023B1H   LINE      CODE     ---       #284
      010023BDH   LINE      CODE     ---       #286
      010023C9H   LINE      CODE     ---       #287
      010023D8H   LINE      CODE     ---       #288
      010023E7H   LINE      CODE     ---       #289
      010023F6H   LINE      CODE     ---       #290
      010023FFH   LINE      CODE     ---       #291
      01002406H   LINE      CODE     ---       #293
      01002420H   LINE      CODE     ---       #294
      01002428H   LINE      CODE     ---       #295
      0100243AH   LINE      CODE     ---       #296
      0100244CH   LINE      CODE     ---       #297
      0100245EH   LINE      CODE     ---       #298
      0100247CH   LINE      CODE     ---       #300
      0100249DH   LINE      CODE     ---       #301
      010024B0H   LINE      CODE     ---       #302
      010024BCH   LINE      CODE     ---       #304
      010024DDH   LINE      CODE     ---       #305
      010024EFH   LINE      CODE     ---       #307
      01002515H   LINE      CODE     ---       #309
      0100251BH   LINE      CODE     ---       #310
      01002527H   LINE      CODE     ---       #311
      01002527H   LINE      CODE     ---       #312
      0100252CH   LINE      CODE     ---       #313
      01002533H   LINE      CODE     ---       #314
      01002539H   LINE      CODE     ---       #315
      0100253CH   LINE      CODE     ---       #317
      01002541H   LINE      CODE     ---       #318
      01002549H   LINE      CODE     ---       #319
      01002563H   LINE      CODE     ---       #321
      ---         BLOCKEND  ---      ---       LVL=0

      01001F73H   BLOCK     CODE     ---       LVL=0
      01001F73H   BLOCK     CODE     NEAR LAB  LVL=1
      02008001H   SYMBOL    XDATA    ---       Cmd
      02008011H   SYMBOL    XDATA    ---       Path
      02008091H   SYMBOL    XDATA    ---       Buf
      02009091H   SYMBOL    XDATA    BYTE      Mod
      02009092H   SYMBOL    XDATA    BYTE      Status
      02009093H   SYMBOL    XDATA    WORD      PathLength
      02009095H   SYMBOL    XDATA    WORD      ByteSize
      02009097H   SYMBOL    XDATA    WORD      AddrDgusPath
      02009099H   SYMBOL    XDATA    WORD      AddrDgusFileMsg
      0200909BH   SYMBOL    XDATA    WORD      SectorOffset
LX51 LINKER/LOCATER V4.66.93.0                                                        07/09/2019  19:31:38  PAGE 39


      ---         BLOCKEND  ---      ---       LVL=1
      01001F73H   LINE      CODE     ---       #334
      01001F73H   LINE      CODE     ---       #335
      01001F73H   LINE      CODE     ---       #339
      01001F7AH   LINE      CODE     ---       #340
      01001F82H   LINE      CODE     ---       #341
      01001F8EH   LINE      CODE     ---       #342
      01001F9BH   LINE      CODE     ---       #343
      01001FAAH   LINE      CODE     ---       #344
      01001FB9H   LINE      CODE     ---       #345
      01001FC2H   LINE      CODE     ---       #347
      01001FDCH   LINE      CODE     ---       #348
      01001FE4H   LINE      CODE     ---       #349
      01001FF6H   LINE      CODE     ---       #350
      01002008H   LINE      CODE     ---       #351
      01002030H   LINE      CODE     ---       #352
      01002042H   LINE      CODE     ---       #354
      01002061H   LINE      CODE     ---       #355
      01002074H   LINE      CODE     ---       #356
      01002080H   LINE      CODE     ---       #358
      01002092H   LINE      CODE     ---       #359
      01002092H   LINE      CODE     ---       #360
      01002092H   LINE      CODE     ---       #361
      01002092H   LINE      CODE     ---       #362
      010020CEH   LINE      CODE     ---       #363
      010020D7H   LINE      CODE     ---       #364
      010020FEH   LINE      CODE     ---       #365
      0100210AH   LINE      CODE     ---       #368
      0100210AH   LINE      CODE     ---       #369
      0100210AH   LINE      CODE     ---       #370
      0100210AH   LINE      CODE     ---       #371
      0100212BH   LINE      CODE     ---       #372
      01002167H   LINE      CODE     ---       #373
      0100216FH   LINE      CODE     ---       #374
      0100216FH   LINE      CODE     ---       #375
      01002171H   LINE      CODE     ---       #376
      01002171H   LINE      CODE     ---       #377
      01002171H   LINE      CODE     ---       #378
      01002171H   LINE      CODE     ---       #379
      01002177H   LINE      CODE     ---       #380
      01002177H   LINE      CODE     ---       #381
      01002177H   LINE      CODE     ---       #382
      01002177H   LINE      CODE     ---       #384
      0100217CH   LINE      CODE     ---       #385
      ---         BLOCKEND  ---      ---       LVL=0

      01002F38H   BLOCK     CODE     ---       LVL=0
      01002F38H   BLOCK     CODE     NEAR LAB  LVL=1
      02008001H   SYMBOL    XDATA    ---       Cmd
      02008009H   SYMBOL    XDATA    ---       Path
      02008089H   SYMBOL    XDATA    ---       DirName
      02008096H   SYMBOL    XDATA    BYTE      Mod
      02008097H   SYMBOL    XDATA    BYTE      Status
      02008098H   SYMBOL    XDATA    WORD      PathLength
      00000004H   SYMBOL    DATA     WORD      AddrDgusPath
      0200809AH   SYMBOL    XDATA    WORD      AddrDgusDirAttr
      ---         BLOCKEND  ---      ---       LVL=1
      01002F38H   LINE      CODE     ---       #398
      01002F38H   LINE      CODE     ---       #399
      01002F38H   LINE      CODE     ---       #403
      01002F3FH   LINE      CODE     ---       #404
      01002F43H   LINE      CODE     ---       #405
      01002F49H   LINE      CODE     ---       #406
      01002F55H   LINE      CODE     ---       #407
      01002F64H   LINE      CODE     ---       #408
LX51 LINKER/LOCATER V4.66.93.0                                                        07/09/2019  19:31:38  PAGE 40


      01002F73H   LINE      CODE     ---       #409
      01002F7CH   LINE      CODE     ---       #411
      01002F96H   LINE      CODE     ---       #412
      01002F9EH   LINE      CODE     ---       #413
      01002FA8H   LINE      CODE     ---       #414
      01002FB8H   LINE      CODE     ---       #416
      01002FD5H   LINE      CODE     ---       #417
      01002FE8H   LINE      CODE     ---       #418
      01002FF4H   LINE      CODE     ---       #420
      01003000H   LINE      CODE     ---       #421
      01003000H   LINE      CODE     ---       #422
      01003000H   LINE      CODE     ---       #423
      01003000H   LINE      CODE     ---       #424
      0100301CH   LINE      CODE     ---       #425
      01003038H   LINE      CODE     ---       #426
      0100303AH   LINE      CODE     ---       #427
      0100303AH   LINE      CODE     ---       #428
      0100303AH   LINE      CODE     ---       #429
      0100303AH   LINE      CODE     ---       #430
      01003056H   LINE      CODE     ---       #431
      01003072H   LINE      CODE     ---       #432
      01003074H   LINE      CODE     ---       #433
      01003074H   LINE      CODE     ---       #434
      01003074H   LINE      CODE     ---       #435
      01003074H   LINE      CODE     ---       #436
      0100307AH   LINE      CODE     ---       #437
      0100307AH   LINE      CODE     ---       #438
      0100307AH   LINE      CODE     ---       #439
      0100307AH   LINE      CODE     ---       #441
      0100307FH   LINE      CODE     ---       #442
      01003087H   LINE      CODE     ---       #443
      ---         BLOCKEND  ---      ---       LVL=0

      01004068H   BLOCK     CODE     ---       LVL=0
      01004068H   BLOCK     CODE     NEAR LAB  LVL=1
      02008001H   SYMBOL    XDATA    ---       Cmd
      02008009H   SYMBOL    XDATA    BYTE      FileType
      00000006H   SYMBOL    DATA     WORD      FileNumber
      0200800AH   SYMBOL    XDATA    WORD      Times
      ---         BLOCKEND  ---      ---       LVL=1
      01004068H   LINE      CODE     ---       #456
      01004068H   LINE      CODE     ---       #457
      01004068H   LINE      CODE     ---       #459
      0100406DH   LINE      CODE     ---       #460
      01004072H   LINE      CODE     ---       #461
      0100407EH   LINE      CODE     ---       #462
      01004098H   LINE      CODE     ---       #463
      010040A0H   LINE      CODE     ---       #464
      010040A8H   LINE      CODE     ---       #465
      010040B8H   LINE      CODE     ---       #466
      010040BDH   LINE      CODE     ---       #467
      010040BFH   LINE      CODE     ---       #468
      010040C1H   LINE      CODE     ---       #469
      010040CEH   LINE      CODE     ---       #470
      010040D1H   LINE      CODE     ---       #471
      ---         BLOCKEND  ---      ---       LVL=0

      010041EAH   BLOCK     CODE     ---       LVL=0
      010041EAH   BLOCK     CODE     NEAR LAB  LVL=1
      02008001H   SYMBOL    XDATA    ---       Cmd
      01004245H   SYMBOL    CODE     VOID      END
      ---         BLOCKEND  ---      ---       LVL=1
      010041EAH   LINE      CODE     ---       #484
      010041EAH   LINE      CODE     ---       #485
      010041EAH   LINE      CODE     ---       #487
LX51 LINKER/LOCATER V4.66.93.0                                                        07/09/2019  19:31:38  PAGE 41


      010041F9H   LINE      CODE     ---       #489
      01004213H   LINE      CODE     ---       #491
      01004219H   LINE      CODE     ---       #492
      01004219H   LINE      CODE     ---       #493
      01004221H   LINE      CODE     ---       #494
      01004223H   LINE      CODE     ---       #495
      01004223H   LINE      CODE     ---       #496
      01004225H   LINE      CODE     ---       #497
      01004227H   LINE      CODE     ---       #498
      01004229H   LINE      CODE     ---       #499
      01004229H   LINE      CODE     ---       #500
      01004229H   LINE      CODE     ---       #501
      01004231H   LINE      CODE     ---       #502
      01004233H   LINE      CODE     ---       #503
      01004233H   LINE      CODE     ---       #504
      01004235H   LINE      CODE     ---       #505
      01004237H   LINE      CODE     ---       #506
      01004237H   LINE      CODE     ---       #507
      0100423DH   LINE      CODE     ---       #508
      01004245H   LINE      CODE     ---       #509
      01004245H   LINE      CODE     ---       #510
      ---         BLOCKEND  ---      ---       LVL=0

      01002591H   BLOCK     CODE     VOID      LVL=0
      ---         BLOCKEND  ---      ---       LVL=0

      0100259DH   BLOCK     CODE     ---       LVL=0
      00000002H   SYMBOL    XSTK     BYTE      FileType
      00000003H   SYMBOL    XSTK     WORD      FileNumber
      00000005H   SYMBOL    XSTK     ---       pTimes
      00000000H   SYMBOL    XSTK     WORD      Num
      010025D1H   SYMBOL    CODE     VOID      END
      010025C4H   BLOCK     CODE     NEAR LAB  LVL=1
      00000000H   SYMBOL    XSTK     WORD      Num
      010025D1H   SYMBOL    CODE     VOID      END
      ---         BLOCKEND  ---      ---       LVL=1
      0100259DH   LINE      CODE     ---       #525
      010025C4H   LINE      CODE     ---       #527
      010025CEH   LINE      CODE     ---       #528
      010025E1H   LINE      CODE     ---       #529
      010025E1H   LINE      CODE     ---       #530
      01002609H   LINE      CODE     ---       #531
      0100260CH   LINE      CODE     ---       #532
      0100260CH   LINE      CODE     ---       #533
      0100262CH   LINE      CODE     ---       #534
      0100262CH   LINE      CODE     ---       #535
      0100262CH   LINE      CODE     ---       #536
      0100262CH   LINE      CODE     ---       #537
      01002643H   LINE      CODE     ---       #538
      0100265AH   LINE      CODE     ---       #539
      01002665H   LINE      CODE     ---       #540
      01002670H   LINE      CODE     ---       #541
      01002687H   LINE      CODE     ---       #542
      0100268AH   LINE      CODE     ---       #543
      0100268AH   LINE      CODE     ---       #544
      0100268AH   LINE      CODE     ---       #545
      0100268AH   LINE      CODE     ---       #546
      0100268AH   LINE      CODE     ---       #547
      0100268AH   LINE      CODE     ---       #548
      0100268AH   LINE      CODE     ---       #549
      0100268AH   LINE      CODE     ---       #550
      010026AAH   LINE      CODE     ---       #551
      010026AAH   LINE      CODE     ---       #552
      010026BDH   LINE      CODE     ---       #553
      010026CCH   LINE      CODE     ---       #554
LX51 LINKER/LOCATER V4.66.93.0                                                        07/09/2019  19:31:38  PAGE 42


      010026CCH   LINE      CODE     ---       #555
      010026CCH   LINE      CODE     ---       #556
      010026CCH   LINE      CODE     ---       #557
      010026CCH   LINE      CODE     ---       #558
      010026E9H   LINE      CODE     ---       #559
      010026E9H   LINE      CODE     ---       #560
      010026FCH   LINE      CODE     ---       #561
      0100270BH   LINE      CODE     ---       #562
      0100270BH   LINE      CODE     ---       #563
      0100270BH   LINE      CODE     ---       #564
      0100270BH   LINE      CODE     ---       #565
      0100270BH   LINE      CODE     ---       #566
      0100272AH   LINE      CODE     ---       #567
      0100272AH   LINE      CODE     ---       #568
      0100273DH   LINE      CODE     ---       #569
      0100274CH   LINE      CODE     ---       #570
      0100274CH   LINE      CODE     ---       #571
      0100274CH   LINE      CODE     ---       #572
      0100274CH   LINE      CODE     ---       #573
      0100274CH   LINE      CODE     ---       #574
      ---         BLOCKEND  ---      ---       LVL=0

      ---         MODULE    ---      ---       APP_INTERFACE
      0200809CH   PUBLIC    XDATA    BYTE      ?_SetFileMessage?BYTE
      010031FFH   PUBLIC    CODE     ---       _SetFileMessage
      0200809CH   PUBLIC    XDATA    BYTE      ?_GetFileMessage?BYTE
      010030A1H   PUBLIC    CODE     ---       _GetFileMessage
      01002DCEH   PUBLIC    CODE     ---       _SystemUpdate
      0200836AH   PUBLIC    XDATA    BYTE      ?_SysUpFileSend?BYTE
      01001285H   PUBLIC    CODE     ---       _SysUpFileSend
      0200958FH   PUBLIC    XDATA    BYTE      ?_SendUpPackToDGUS?BYTE
      01003EC1H   PUBLIC    CODE     ---       _SendUpPackToDGUS
      0200958FH   PUBLIC    XDATA    BYTE      ?_SysUpPcakSet?BYTE
      01003489H   PUBLIC    CODE     ---       _SysUpPcakSet
      01004584H   PUBLIC    CODE     ---       _SysUpWaitOsFinishRead
      0200836AH   PUBLIC    XDATA    BYTE      ?_SysUpFileMatch?BYTE
      01001AE0H   PUBLIC    CODE     ---       _SysUpFileMatch
      0200837DH   PUBLIC    XDATA    BYTE      ?_NumberStringMatch?BYTE
      01003FE4H   PUBLIC    CODE     ---       _NumberStringMatch
      010044EFH   PUBLIC    CODE     ---       _SysUpGetDWINFile
      0200836AH   PUBLIC    XDATA    BYTE      ?_SysUpGetFileMesg?BYTE
      01001856H   PUBLIC    CODE     ---       _SysUpGetFileMesg
      02008A5AH   PUBLIC    XDATA    BYTE      ?_MatchFile?BYTE
      0100416BH   PUBLIC    CODE     ---       _MatchFile
      0200909DH   PUBLIC    XDATA    BYTE      ?_WriteFile?BYTE
      01000B7CH   PUBLIC    CODE     ---       _WriteFile
      0200958FH   PUBLIC    XDATA    BYTE      ?_ReadFile?BYTE
      010015A2H   PUBLIC    CODE     ---       _ReadFile
      01004704H   PUBLIC    CODE     ---       _RmFileOrDir
      01002AAFH   PUBLIC    CODE     ---       _CH376CreateFileOrDir
      0100466AH   PUBLIC    CODE     ---       _CreateFileOrDir
      010048FDH   PUBLIC    CODE     ---       CheckDiskInit
      010048F0H   PUBLIC    CODE     ---       CheckConnect
      01004533H   PUBLIC    CODE     ---       CheckIC
      00000007H   SYMBOL    DATA     BYTE      i
      00000006H   SYMBOL    DATA     BYTE      j

      01004533H   BLOCK     CODE     ---       LVL=0
      01004533H   BLOCK     CODE     NEAR LAB  LVL=1
      02008005H   SYMBOL    XDATA    BYTE      i
      ---         BLOCKEND  ---      ---       LVL=1
      01004533H   LINE      CODE     ---       #94
      01004533H   LINE      CODE     ---       #95
      01004533H   LINE      CODE     ---       #96
      01004538H   LINE      CODE     ---       #97
LX51 LINKER/LOCATER V4.66.93.0                                                        07/09/2019  19:31:38  PAGE 43


      0100453DH   LINE      CODE     ---       #98
      01004542H   LINE      CODE     ---       #100
      0100454DH   LINE      CODE     ---       #102
      0100454DH   LINE      CODE     ---       #103
      01004552H   LINE      CODE     ---       #104
      01004557H   LINE      CODE     ---       #105
      01004563H   LINE      CODE     ---       #106
      01004573H   LINE      CODE     ---       #107
      01004575H   LINE      CODE     ---       #108
      01004575H   LINE      CODE     ---       #109
      ---         BLOCKEND  ---      ---       LVL=0

      010048F0H   BLOCK     CODE     ---       LVL=0
      010048F0H   LINE      CODE     ---       #122
      010048F0H   LINE      CODE     ---       #123
      010048F0H   LINE      CODE     ---       #124
      010048FCH   LINE      CODE     ---       #125
      010048FCH   LINE      CODE     ---       #126
      ---         BLOCKEND  ---      ---       LVL=0

      010048FDH   BLOCK     CODE     ---       LVL=0
      010048FDH   LINE      CODE     ---       #139
      010048FDH   LINE      CODE     ---       #140
      010048FDH   LINE      CODE     ---       #141
      01004909H   LINE      CODE     ---       #142
      01004909H   LINE      CODE     ---       #143
      ---         BLOCKEND  ---      ---       LVL=0

      0100466AH   BLOCK     CODE     ---       LVL=0
      0200808DH   SYMBOL    XDATA    ---       pPathName
      02008090H   SYMBOL    XDATA    BYTE      TypePath
      0100466AH   LINE      CODE     ---       #157
      0100467AH   LINE      CODE     ---       #158
      0100467AH   LINE      CODE     ---       #159
      0100467DH   LINE      CODE     ---       #160
      0100468EH   LINE      CODE     ---       #161
      0100469FH   LINE      CODE     ---       #162
      ---         BLOCKEND  ---      ---       LVL=0

      01002AAFH   BLOCK     CODE     ---       LVL=0
      0200A2B9H   SYMBOL    XDATA    ---       pPathName
      0200A2BCH   SYMBOL    XDATA    BYTE      TypePath
      01002ABDH   BLOCK     CODE     NEAR LAB  LVL=1
      0200A2BDH   SYMBOL    XDATA    ---       NameBuf
      0200A5BDH   SYMBOL    XDATA    BYTE      i
      0200A5BEH   SYMBOL    XDATA    BYTE      j
      0200A5BFH   SYMBOL    XDATA    BYTE      Status
      ---         BLOCKEND  ---      ---       LVL=1
      01002AAFH   LINE      CODE     ---       #176
      01002ABDH   LINE      CODE     ---       #177
      01002ABDH   LINE      CODE     ---       #179
      01002AC2H   LINE      CODE     ---       #180
      01002AC4H   LINE      CODE     ---       #181
      01002AC6H   LINE      CODE     ---       #182
      01002AD3H   LINE      CODE     ---       #184
      01002AE8H   LINE      CODE     ---       #185
      01002AE8H   LINE      CODE     ---       #186
      01002AF9H   LINE      CODE     ---       #187
      01002AF9H   LINE      CODE     ---       #188
      01002B2BH   LINE      CODE     ---       #189
      01002B41H   LINE      CODE     ---       #190
      01002B41H   LINE      CODE     ---       #191
      01002B4BH   LINE      CODE     ---       #192
      01002B4DH   LINE      CODE     ---       #193
      01002B4DH   LINE      CODE     ---       #194
LX51 LINKER/LOCATER V4.66.93.0                                                        07/09/2019  19:31:38  PAGE 44


      01002B55H   LINE      CODE     ---       #195
      01002B65H   LINE      CODE     ---       #196
      01002B6EH   LINE      CODE     ---       #198
      01002B8EH   LINE      CODE     ---       #199
      01002B8EH   LINE      CODE     ---       #200
      01002BA5H   LINE      CODE     ---       #201
      01002BB7H   LINE      CODE     ---       #202
      01002BB7H   LINE      CODE     ---       #203
      01002BC5H   LINE      CODE     ---       #204
      01002BC5H   LINE      CODE     ---       #205
      01002BC5H   LINE      CODE     ---       #206
      01002BC5H   LINE      CODE     ---       #207
      01002BE1H   LINE      CODE     ---       #208
      01002BE1H   LINE      CODE     ---       #209
      01002BE1H   LINE      CODE     ---       #210
      01002BE1H   LINE      CODE     ---       #211
      01002BE1H   LINE      CODE     ---       #212
      01002BFEH   LINE      CODE     ---       #215
      01002BFEH   LINE      CODE     ---       #216
      01002BFEH   LINE      CODE     ---       #217
      01002BFEH   LINE      CODE     ---       #218
      01002BFEH   LINE      CODE     ---       #219
      01002BFEH   LINE      CODE     ---       #220
      01002BFEH   LINE      CODE     ---       #221
      01002C0AH   LINE      CODE     ---       #222
      01002C0AH   LINE      CODE     ---       #223
      01002C0AH   LINE      CODE     ---       #224
      01002C0AH   LINE      CODE     ---       #225
      01002C26H   LINE      CODE     ---       #226
      01002C26H   LINE      CODE     ---       #227
      01002C26H   LINE      CODE     ---       #228
      01002C26H   LINE      CODE     ---       #229
      01002C26H   LINE      CODE     ---       #230
      01002C40H   LINE      CODE     ---       #231
      01002C45H   LINE      CODE     ---       #232
      01002C45H   LINE      CODE     ---       #233
      01002C45H   LINE      CODE     ---       #234
      01002C45H   LINE      CODE     ---       #235
      01002C45H   LINE      CODE     ---       #236
      01002C45H   LINE      CODE     ---       #237
      01002C4EH   LINE      CODE     ---       #238
      01002C50H   LINE      CODE     ---       #239
      ---         BLOCKEND  ---      ---       LVL=0

      01004704H   BLOCK     CODE     ---       LVL=0
      0200808DH   SYMBOL    XDATA    ---       pPathName
      01004704H   LINE      CODE     ---       #252
      0100470FH   LINE      CODE     ---       #253
      0100470FH   LINE      CODE     ---       #254
      0100471DH   LINE      CODE     ---       #255
      01004733H   LINE      CODE     ---       #256
      01004733H   LINE      CODE     ---       #257
      ---         BLOCKEND  ---      ---       LVL=0

      01001597H   BLOCK     CODE     VOID      LVL=0
      ---         BLOCKEND  ---      ---       LVL=0

      010015A2H   BLOCK     CODE     ---       LVL=0
      0200958FH   SYMBOL    XDATA    ---       pPathName
      02009592H   SYMBOL    XDATA    ---       pData
      02009595H   SYMBOL    XDATA    WORD      DataLen
      02009597H   SYMBOL    XDATA    DWORD     SectorOffset
      0200959BH   SYMBOL    XDATA    BYTE      Status
      0200959CH   SYMBOL    XDATA    DWORD     SectorCount
      020095A0H   SYMBOL    XDATA    DWORD     Count
LX51 LINKER/LOCATER V4.66.93.0                                                        07/09/2019  19:31:38  PAGE 45


      020095A4H   SYMBOL    XDATA    DWORD     FileSize
      010015ADH   BLOCK     CODE     NEAR LAB  LVL=1
      0200959BH   SYMBOL    XDATA    BYTE      Status
      0200959CH   SYMBOL    XDATA    DWORD     SectorCount
      020095A0H   SYMBOL    XDATA    DWORD     Count
      020095A4H   SYMBOL    XDATA    DWORD     FileSize
      ---         BLOCKEND  ---      ---       LVL=1
      010015A2H   LINE      CODE     ---       #273
      010015ADH   LINE      CODE     ---       #274
      010015ADH   LINE      CODE     ---       #275
      010015B2H   LINE      CODE     ---       #276
      010015C4H   LINE      CODE     ---       #277
      010015CEH   LINE      CODE     ---       #278
      010015DFH   LINE      CODE     ---       #279
      010015EDH   LINE      CODE     ---       #280
      01001601H   LINE      CODE     ---       #282
      01001614H   LINE      CODE     ---       #283
      0100161BH   LINE      CODE     ---       #284
      01001624H   LINE      CODE     ---       #285
      01001640H   LINE      CODE     ---       #287
      010016A9H   LINE      CODE     ---       #289
      01001743H   LINE      CODE     ---       #290
      01001754H   LINE      CODE     ---       #291
      01001765H   LINE      CODE     ---       #292
      0100177CH   LINE      CODE     ---       #293
      0100177CH   LINE      CODE     ---       #296
      010017A5H   LINE      CODE     ---       #297
      010017BBH   LINE      CODE     ---       #299
      010017D5H   LINE      CODE     ---       #300
      010017D5H   LINE      CODE     ---       #301
      010017DFH   LINE      CODE     ---       #302
      01001802H   LINE      CODE     ---       #303
      01001804H   LINE      CODE     ---       #305
      01001804H   LINE      CODE     ---       #306
      01001816H   LINE      CODE     ---       #307
      01001820H   LINE      CODE     ---       #308
      01001820H   LINE      CODE     ---       #310
      01001844H   LINE      CODE     ---       #311
      0100184EH   LINE      CODE     ---       #312
      0100184EH   LINE      CODE     ---       #313
      01001853H   LINE      CODE     ---       #314
      01001855H   LINE      CODE     ---       #315
      ---         BLOCKEND  ---      ---       LVL=0

      01000B7CH   BLOCK     CODE     ---       LVL=0
      0200909DH   SYMBOL    XDATA    ---       pPathName
      020090A0H   SYMBOL    XDATA    ---       pData
      020090A3H   SYMBOL    XDATA    WORD      DataLen
      020090A5H   SYMBOL    XDATA    DWORD     SectorOffset
      01000B87H   BLOCK     CODE     NEAR LAB  LVL=1
      020090A9H   SYMBOL    XDATA    ---       Buf
      0200A0A9H   SYMBOL    XDATA    ---       EndBuf
      0200A2A9H   SYMBOL    XDATA    BYTE      Status
      0200A2AAH   SYMBOL    XDATA    BYTE      SectorCount
      0200A2ABH   SYMBOL    XDATA    BYTE      Flag
      0200A2ACH   SYMBOL    XDATA    ---       pMid
      0200A2AFH   SYMBOL    XDATA    WORD      BufFreeLen
      0200A2B1H   SYMBOL    XDATA    WORD      BufSourceLen
      0200A2B3H   SYMBOL    XDATA    WORD      EndBufSize
      0200A2B5H   SYMBOL    XDATA    DWORD     FileSize
      ---         BLOCKEND  ---      ---       LVL=1
      01000B7CH   LINE      CODE     ---       #330
      01000B87H   LINE      CODE     ---       #331
      01000B87H   LINE      CODE     ---       #334
      01000B90H   LINE      CODE     ---       #335
LX51 LINKER/LOCATER V4.66.93.0                                                        07/09/2019  19:31:38  PAGE 46


      01000B99H   LINE      CODE     ---       #336
      01000BA6H   LINE      CODE     ---       #337
      01000BAEH   LINE      CODE     ---       #339
      01000BBDH   LINE      CODE     ---       #340
      01000BCCH   LINE      CODE     ---       #341
      01000BE9H   LINE      CODE     ---       #342
      01000BF7H   LINE      CODE     ---       #343
      01000C16H   LINE      CODE     ---       #344
      01000C19H   LINE      CODE     ---       #347
      01000C2CH   LINE      CODE     ---       #348
      01000C30H   LINE      CODE     ---       #349
      01000C30H   LINE      CODE     ---       #350
      01000C40H   LINE      CODE     ---       #351
      01000C53H   LINE      CODE     ---       #352
      01000C59H   LINE      CODE     ---       #353
      01000C5EH   LINE      CODE     ---       #354
      01000C5EH   LINE      CODE     ---       #356
      01000C68H   LINE      CODE     ---       #357
      01000C68H   LINE      CODE     ---       #358
      01000C68H   LINE      CODE     ---       #359
      01000C68H   LINE      CODE     ---       #360
      01000C70H   LINE      CODE     ---       #361
      01000C72H   LINE      CODE     ---       #362
      01000C72H   LINE      CODE     ---       #363
      01000C72H   LINE      CODE     ---       #364
      01000C72H   LINE      CODE     ---       #365
      01000C7BH   LINE      CODE     ---       #366
      01000C93H   LINE      CODE     ---       #367
      01000C96H   LINE      CODE     ---       #368
      01000C96H   LINE      CODE     ---       #369
      01000CAFH   LINE      CODE     ---       #370
      01000CAFH   LINE      CODE     ---       #371
      01000CBAH   LINE      CODE     ---       #372
      01000CBCH   LINE      CODE     ---       #373
      01000CBCH   LINE      CODE     ---       #374
      01000CBCH   LINE      CODE     ---       #375
      01000CBFH   LINE      CODE     ---       #376
      01000CBFH   LINE      CODE     ---       #377
      01000CEAH   LINE      CODE     ---       #378
      01000CF8H   LINE      CODE     ---       #379
      01000CF8H   LINE      CODE     ---       #380
      01000D15H   LINE      CODE     ---       #381
      01000D2BH   LINE      CODE     ---       #382
      01000D39H   LINE      CODE     ---       #383
      01000D42H   LINE      CODE     ---       #384
      01000D57H   LINE      CODE     ---       #385
      01000D57H   LINE      CODE     ---       #386
      01000D80H   LINE      CODE     ---       #387
      01000D86H   LINE      CODE     ---       #388
      01000D9BH   LINE      CODE     ---       #389
      01000DA4H   LINE      CODE     ---       #390
      01000DA7H   LINE      CODE     ---       #392
      01000DA7H   LINE      CODE     ---       #393
      01000DD9H   LINE      CODE     ---       #394
      01000DF3H   LINE      CODE     ---       #395
      01000DFEH   LINE      CODE     ---       #396
      01000E05H   LINE      CODE     ---       #397
      01000E05H   LINE      CODE     ---       #398
      01000E05H   LINE      CODE     ---       #399
      01000E05H   LINE      CODE     ---       #400
      01000E08H   LINE      CODE     ---       #402
      01000E16H   LINE      CODE     ---       #403
      01000E16H   LINE      CODE     ---       #404
      01000E1FH   LINE      CODE     ---       #405
      01000E1FH   LINE      CODE     ---       #406
LX51 LINKER/LOCATER V4.66.93.0                                                        07/09/2019  19:31:38  PAGE 47


      01000E44H   LINE      CODE     ---       #407
      01000E4AH   LINE      CODE     ---       #408
      01000E58H   LINE      CODE     ---       #409
      01000E63H   LINE      CODE     ---       #410
      01000E65H   LINE      CODE     ---       #412
      01000E65H   LINE      CODE     ---       #413
      01000E92H   LINE      CODE     ---       #414
      01000EA1H   LINE      CODE     ---       #415
      01000EACH   LINE      CODE     ---       #416
      01000EB3H   LINE      CODE     ---       #417
      01000EB3H   LINE      CODE     ---       #418
      01000ECFH   LINE      CODE     ---       #419
      01000EDEH   LINE      CODE     ---       #420
      01000EE1H   LINE      CODE     ---       #421
      01000EFAH   LINE      CODE     ---       #422
      01000F18H   LINE      CODE     ---       #423
      01000F1DH   LINE      CODE     ---       #424
      01000F1FH   LINE      CODE     ---       #425
      ---         BLOCKEND  ---      ---       LVL=0

      0100416BH   BLOCK     CODE     ---       LVL=0
      02008A5AH   SYMBOL    XDATA    ---       pDir
      02008A5DH   SYMBOL    XDATA    ---       pMatchString
      02008A60H   SYMBOL    XDATA    ---       pBuf
      01004176H   BLOCK     CODE     NEAR LAB  LVL=1
      00000007H   SYMBOL    DATA     BYTE      Status
      02008A63H   SYMBOL    XDATA    BYTE      i
      ---         BLOCKEND  ---      ---       LVL=1
      0100416BH   LINE      CODE     ---       #440
      01004176H   LINE      CODE     ---       #441
      01004176H   LINE      CODE     ---       #442
      0100417CH   LINE      CODE     ---       #443
      0100418DH   LINE      CODE     ---       #444
      0100419BH   LINE      CODE     ---       #445
      010041A9H   LINE      CODE     ---       #446
      010041E1H   LINE      CODE     ---       #447
      010041E9H   LINE      CODE     ---       #448
      ---         BLOCKEND  ---      ---       LVL=0

      01001856H   BLOCK     CODE     ---       LVL=0
      00000007H   SYMBOL    DATA     BYTE      FileType
      0200836BH   SYMBOL    XDATA    WORD      FileNumber
      0200836DH   SYMBOL    XDATA    ---       pUpSpace
      02008370H   SYMBOL    XDATA    ---       pFileAddr
      02008373H   SYMBOL    XDATA    ---       pString
      01001856H   LINE      CODE     ---       #464
      01001867H   LINE      CODE     ---       #465
      01001867H   LINE      CODE     ---       #466
      01001885H   LINE      CODE     ---       #467
      01001885H   LINE      CODE     ---       #468
      01001885H   LINE      CODE     ---       #469
      01001885H   LINE      CODE     ---       #470
      0100189DH   LINE      CODE     ---       #471
      010018A7H   LINE      CODE     ---       #472
      010018BFH   LINE      CODE     ---       #473
      010018D1H   LINE      CODE     ---       #474
      010018D1H   LINE      CODE     ---       #475
      010018D4H   LINE      CODE     ---       #476
      010018D4H   LINE      CODE     ---       #478
      010018D4H   LINE      CODE     ---       #479
      010018D4H   LINE      CODE     ---       #480
      010018ECH   LINE      CODE     ---       #481
      010018F6H   LINE      CODE     ---       #482
      0100190EH   LINE      CODE     ---       #483
      01001920H   LINE      CODE     ---       #484
LX51 LINKER/LOCATER V4.66.93.0                                                        07/09/2019  19:31:38  PAGE 48


      01001920H   LINE      CODE     ---       #485
      01001922H   LINE      CODE     ---       #486
      01001922H   LINE      CODE     ---       #488
      01001922H   LINE      CODE     ---       #489
      01001922H   LINE      CODE     ---       #490
      0100194DH   LINE      CODE     ---       #491
      01001957H   LINE      CODE     ---       #492
      0100196FH   LINE      CODE     ---       #493
      01001997H   LINE      CODE     ---       #494
      010019A3H   LINE      CODE     ---       #495
      010019A6H   LINE      CODE     ---       #496
      010019A6H   LINE      CODE     ---       #497
      010019A6H   LINE      CODE     ---       #498
      010019A6H   LINE      CODE     ---       #499
      010019D1H   LINE      CODE     ---       #500
      010019DBH   LINE      CODE     ---       #501
      010019F3H   LINE      CODE     ---       #502
      010019FDH   LINE      CODE     ---       #503
      01001A15H   LINE      CODE     ---       #504
      01001A1FH   LINE      CODE     ---       #505
      01001A37H   LINE      CODE     ---       #506
      01001A55H   LINE      CODE     ---       #507
      01001A62H   LINE      CODE     ---       #508
      01001A64H   LINE      CODE     ---       #509
      01001A64H   LINE      CODE     ---       #510
      01001A64H   LINE      CODE     ---       #511
      01001A64H   LINE      CODE     ---       #512
      01001A8FH   LINE      CODE     ---       #513
      01001A99H   LINE      CODE     ---       #514
      01001AB1H   LINE      CODE     ---       #515
      01001ACFH   LINE      CODE     ---       #516
      01001ADFH   LINE      CODE     ---       #517
      01001ADFH   LINE      CODE     ---       #518
      01001ADFH   LINE      CODE     ---       #519
      01001ADFH   LINE      CODE     ---       #520
      01001ADFH   LINE      CODE     ---       #521
      01001ADFH   LINE      CODE     ---       #522
      ---         BLOCKEND  ---      ---       LVL=0

      010044EFH   BLOCK     CODE     ---       LVL=0
      0200836AH   SYMBOL    XDATA    ---       pMatchList
      010044FAH   BLOCK     CODE     NEAR LAB  LVL=1
      00000007H   SYMBOL    DATA     BYTE      Status
      0200836DH   SYMBOL    XDATA    BYTE      i
      ---         BLOCKEND  ---      ---       LVL=1
      010044EFH   LINE      CODE     ---       #534
      010044FAH   LINE      CODE     ---       #535
      010044FAH   LINE      CODE     ---       #536
      010044FCH   LINE      CODE     ---       #537
      010044FEH   LINE      CODE     ---       #538
      0100452AH   LINE      CODE     ---       #539
      01004532H   LINE      CODE     ---       #540
      01004532H   LINE      CODE     ---       #541
      ---         BLOCKEND  ---      ---       LVL=0

      01003FE4H   BLOCK     CODE     ---       LVL=0
      0200837DH   SYMBOL    XDATA    ---       pSource
      02008380H   SYMBOL    XDATA    ---       pDest
      02008383H   SYMBOL    XDATA    ---       pCount
      01003FE4H   LINE      CODE     ---       #555
      01003FEFH   LINE      CODE     ---       #556
      01003FEFH   LINE      CODE     ---       #557
      01004007H   LINE      CODE     ---       #558
      01004007H   LINE      CODE     ---       #559
      01004009H   LINE      CODE     ---       #561
LX51 LINKER/LOCATER V4.66.93.0                                                        07/09/2019  19:31:38  PAGE 49


      01004009H   LINE      CODE     ---       #563
      01004009H   LINE      CODE     ---       #564
      01004029H   LINE      CODE     ---       #565
      01004033H   LINE      CODE     ---       #566
      0100403DH   LINE      CODE     ---       #567
      01004057H   LINE      CODE     ---       #569
      01004067H   LINE      CODE     ---       #570
      ---         BLOCKEND  ---      ---       LVL=0

      01001AE0H   BLOCK     CODE     ---       LVL=0
      0200836AH   SYMBOL    XDATA    ---       pSource
      0200836DH   SYMBOL    XDATA    ---       pDest
      02008370H   SYMBOL    XDATA    ---       pResult
      02008373H   SYMBOL    XDATA    ---       pFileSize
      01001AEBH   BLOCK     CODE     NEAR LAB  LVL=1
      02008376H   SYMBOL    XDATA    BYTE      i
      02008377H   SYMBOL    XDATA    ---       pNow
      0200837AH   SYMBOL    XDATA    ---       pStatus
      ---         BLOCKEND  ---      ---       LVL=1
      01001AE0H   LINE      CODE     ---       #586
      01001AEBH   LINE      CODE     ---       #587
      01001AEBH   LINE      CODE     ---       #588
      01001AF0H   LINE      CODE     ---       #589
      01001B05H   LINE      CODE     ---       #590
      01001B0CH   LINE      CODE     ---       #591
      01001B1FH   LINE      CODE     ---       #592
      01001B1FH   LINE      CODE     ---       #593
      01001B24H   LINE      CODE     ---       #594
      01001B4CH   LINE      CODE     ---       #595
      01001B4CH   LINE      CODE     ---       #596
      01001B70H   LINE      CODE     ---       #597
      01001BADH   LINE      CODE     ---       #598
      01001BC7H   LINE      CODE     ---       #599
      01001BD0H   LINE      CODE     ---       #600
      01001BD0H   LINE      CODE     ---       #601
      01001C0DH   LINE      CODE     ---       #602
      01001C17H   LINE      CODE     ---       #603
      01001C54H   LINE      CODE     ---       #604
      01001C92H   LINE      CODE     ---       #605
      01001CD7H   LINE      CODE     ---       #606
      01001D17H   LINE      CODE     ---       #607
      01001D1AH   LINE      CODE     ---       #608
      01001D1AH   LINE      CODE     ---       #609
      01001D27H   LINE      CODE     ---       #610
      01001D34H   LINE      CODE     ---       #611
      01001D36H   LINE      CODE     ---       #612
      ---         BLOCKEND  ---      ---       LVL=0

      01004576H   BLOCK     CODE     VOID      LVL=0
      ---         BLOCKEND  ---      ---       LVL=0

      01004584H   BLOCK     CODE     ---       LVL=0
      0200959FH   SYMBOL    XDATA    DWORD     AddrDgus
      020095A3H   SYMBOL    XDATA    BYTE      Flag
      0100458AH   BLOCK     CODE     NEAR LAB  LVL=1
      020095A3H   SYMBOL    XDATA    BYTE      Flag
      ---         BLOCKEND  ---      ---       LVL=1
      01004584H   LINE      CODE     ---       #624
      0100458AH   LINE      CODE     ---       #625
      0100458AH   LINE      CODE     ---       #626
      0100458FH   LINE      CODE     ---       #628
      0100458FH   LINE      CODE     ---       #629
      010045AEH   LINE      CODE     ---       #630
      010045AEH   LINE      CODE     ---       #631
      010045B6H   LINE      CODE     ---       #632
LX51 LINKER/LOCATER V4.66.93.0                                                        07/09/2019  19:31:38  PAGE 50


      ---         BLOCKEND  ---      ---       LVL=0

      0100347BH   BLOCK     CODE     VOID      LVL=0
      ---         BLOCKEND  ---      ---       LVL=0

      01003489H   BLOCK     CODE     ---       LVL=0
      0200958FH   SYMBOL    XDATA    ---       pBuf
      00000005H   SYMBOL    DATA     BYTE      Flag_EN
      02009593H   SYMBOL    XDATA    BYTE      UpSpace
      02009594H   SYMBOL    XDATA    DWORD     UpAddr
      02009598H   SYMBOL    XDATA    WORD      FileSize
      01003489H   LINE      CODE     ---       #648
      01003494H   LINE      CODE     ---       #649
      01003494H   LINE      CODE     ---       #650
      010034A8H   LINE      CODE     ---       #651
      010034C1H   LINE      CODE     ---       #652
      010034E8H   LINE      CODE     ---       #653
      0100350FH   LINE      CODE     ---       #654
      01003536H   LINE      CODE     ---       #655
      01003552H   LINE      CODE     ---       #656
      0100356BH   LINE      CODE     ---       #657
      01003585H   LINE      CODE     ---       #658
      01003599H   LINE      CODE     ---       #659
      ---         BLOCKEND  ---      ---       LVL=0

      01003EC1H   BLOCK     CODE     ---       LVL=0
      0200958FH   SYMBOL    XDATA    DWORD     AddrDgusHead
      02009593H   SYMBOL    XDATA    DWORD     AddrDgusMesg
      02009597H   SYMBOL    XDATA    ---       BufHead
      0200959AH   SYMBOL    XDATA    ---       BufMesg
      0200959DH   SYMBOL    XDATA    WORD      MesgSize
      01003EC1H   LINE      CODE     ---       #676
      01003EC7H   LINE      CODE     ---       #677
      01003EC7H   LINE      CODE     ---       #678
      01003ECAH   LINE      CODE     ---       #679
      01003EEFH   LINE      CODE     ---       #680
      01003F18H   LINE      CODE     ---       #681
      01003F2AH   LINE      CODE     ---       #682
      01003F2AH   LINE      CODE     ---       #683
      01003F2FH   LINE      CODE     ---       #684
      01003F32H   LINE      CODE     ---       #685
      01003F57H   LINE      CODE     ---       #686
      01003F57H   LINE      CODE     ---       #687
      ---         BLOCKEND  ---      ---       LVL=0

      01001285H   BLOCK     CODE     ---       LVL=0
      0200836AH   SYMBOL    XDATA    ---       pPath
      0200836DH   SYMBOL    XDATA    BYTE      UpSpace
      0200836EH   SYMBOL    XDATA    DWORD     AddrDgusPck
      02008372H   SYMBOL    XDATA    DWORD     AddrFileSave
      02008376H   SYMBOL    XDATA    DWORD     FileSize
      01001293H   BLOCK     CODE     NEAR LAB  LVL=1
      0200837AH   SYMBOL    XDATA    ---       BufHead
      0200857AH   SYMBOL    XDATA    ---       BufMesg
      0200957AH   SYMBOL    XDATA    BYTE      Count
      0200957BH   SYMBOL    XDATA    WORD      PackSize
      0200957DH   SYMBOL    XDATA    WORD      FirstPackSize
      0200957FH   SYMBOL    XDATA    DWORD     SectorOffset
      02009583H   SYMBOL    XDATA    DWORD     FirstAddrFileSave
      02009587H   SYMBOL    XDATA    DWORD     AddrDgusPackHead
      0200958BH   SYMBOL    XDATA    DWORD     AddrDgusPackMesg
      ---         BLOCKEND  ---      ---       LVL=1
      01001285H   LINE      CODE     ---       #703
      01001293H   LINE      CODE     ---       #704
      01001293H   LINE      CODE     ---       #707
LX51 LINKER/LOCATER V4.66.93.0                                                        07/09/2019  19:31:38  PAGE 51


      01001298H   LINE      CODE     ---       #708
      010012A0H   LINE      CODE     ---       #709
      010012B2H   LINE      CODE     ---       #710
      010012C6H   LINE      CODE     ---       #711
      010012D5H   LINE      CODE     ---       #712
      010012E4H   LINE      CODE     ---       #713
      010012F8H   LINE      CODE     ---       #714
      01001318H   LINE      CODE     ---       #715
      0100133DH   LINE      CODE     ---       #717
      0100133DH   LINE      CODE     ---       #718
      0100134EH   LINE      CODE     ---       #719
      01001358H   LINE      CODE     ---       #720
      01001358H   LINE      CODE     ---       #721
      0100136CH   LINE      CODE     ---       #723
      01001383H   LINE      CODE     ---       #724
      01001383H   LINE      CODE     ---       #725
      0100139DH   LINE      CODE     ---       #726
      0100139DH   LINE      CODE     ---       #727
      010013A6H   LINE      CODE     ---       #728
      010013C8H   LINE      CODE     ---       #729
      010013CAH   LINE      CODE     ---       #731
      010013CAH   LINE      CODE     ---       #732
      010013DBH   LINE      CODE     ---       #733
      010013E5H   LINE      CODE     ---       #734
      010013E5H   LINE      CODE     ---       #735
      0100140DH   LINE      CODE     ---       #736
      01001441H   LINE      CODE     ---       #737
      01001447H   LINE      CODE     ---       #738
      01001447H   LINE      CODE     ---       #739
      01001454H   LINE      CODE     ---       #740
      0100145AH   LINE      CODE     ---       #741
      0100145AH   LINE      CODE     ---       #742
      010014A8H   LINE      CODE     ---       #743
      010014B7H   LINE      CODE     ---       #744
      010014D7H   LINE      CODE     ---       #745
      010014F6H   LINE      CODE     ---       #746
      010014F9H   LINE      CODE     ---       #747
      01001521H   LINE      CODE     ---       #748
      01001549H   LINE      CODE     ---       #749
      ---         BLOCKEND  ---      ---       LVL=0

      01002DCEH   BLOCK     CODE     ---       LVL=0
      0200800CH   SYMBOL    XDATA    BYTE      FileType
      0200800DH   SYMBOL    XDATA    WORD      FileNumber
      01002DD9H   BLOCK     CODE     NEAR LAB  LVL=1
      0200800FH   SYMBOL    XDATA    ---       String
      02008027H   SYMBOL    XDATA    ---       FilePath
      0200803DH   SYMBOL    XDATA    ---       FileList
      0200835DH   SYMBOL    XDATA    BYTE      UpSpace
      00000007H   SYMBOL    DATA     BYTE      Status
      0200835EH   SYMBOL    XDATA    DWORD     AddrFile
      02008362H   SYMBOL    XDATA    DWORD     FileSize
      02008366H   SYMBOL    XDATA    DWORD     AddrDgusPack
      ---         BLOCKEND  ---      ---       LVL=1
      01002DCEH   LINE      CODE     ---       #764
      01002DD9H   LINE      CODE     ---       #765
      01002DD9H   LINE      CODE     ---       #769
      01002DDFH   LINE      CODE     ---       #770
      01002DFBH   LINE      CODE     ---       #771
      01002E0AH   LINE      CODE     ---       #772
      01002E19H   LINE      CODE     ---       #773
      01002E28H   LINE      CODE     ---       #775
      01002E41H   LINE      CODE     ---       #776
      01002E51H   LINE      CODE     ---       #778
      01002E7FH   LINE      CODE     ---       #780
LX51 LINKER/LOCATER V4.66.93.0                                                        07/09/2019  19:31:38  PAGE 52


      01002E88H   LINE      CODE     ---       #782
      01002EB7H   LINE      CODE     ---       #783
      01002EBDH   LINE      CODE     ---       #784
      01002ED9H   LINE      CODE     ---       #786
      01002EE2H   LINE      CODE     ---       #787
      01002EEBH   LINE      CODE     ---       #790
      01002F35H   LINE      CODE     ---       #791
      01002F37H   LINE      CODE     ---       #792
      ---         BLOCKEND  ---      ---       LVL=0

      010030A1H   BLOCK     CODE     ---       LVL=0
      0200809CH   SYMBOL    XDATA    ---       pFilePath
      0200809FH   SYMBOL    XDATA    ---       pBuf
      010030ACH   BLOCK     CODE     NEAR LAB  LVL=1
      020080A2H   SYMBOL    XDATA    BYTE      Status
      020080A3H   SYMBOL    XDATA    ---       pDir
      020080A6H   SYMBOL    XDATA    ---       FatDir
      020080C6H   SYMBOL    XDATA    ---       pFatDir
      ---         BLOCKEND  ---      ---       LVL=1
      010030A1H   LINE      CODE     ---       #806
      010030ACH   LINE      CODE     ---       #807
      010030ACH   LINE      CODE     ---       #808
      010030B1H   LINE      CODE     ---       #809
      010030BAH   LINE      CODE     ---       #811
      010030C8H   LINE      CODE     ---       #813
      010030D6H   LINE      CODE     ---       #814
      010030E4H   LINE      CODE     ---       #815
      01003105H   LINE      CODE     ---       #816
      0100311AH   LINE      CODE     ---       #818
      0100313BH   LINE      CODE     ---       #819
      01003162H   LINE      CODE     ---       #820
      01003189H   LINE      CODE     ---       #821
      010031B0H   LINE      CODE     ---       #822
      010031D7H   LINE      CODE     ---       #823
      010031F9H   LINE      CODE     ---       #824
      010031FEH   LINE      CODE     ---       #825
      ---         BLOCKEND  ---      ---       LVL=0

      010031FFH   BLOCK     CODE     ---       LVL=0
      0200809CH   SYMBOL    XDATA    ---       pFilePath
      0200809FH   SYMBOL    XDATA    ---       pBuf
      0100320AH   BLOCK     CODE     NEAR LAB  LVL=1
      00000007H   SYMBOL    DATA     BYTE      Status
      020080A2H   SYMBOL    XDATA    ---       pDir
      020080A5H   SYMBOL    XDATA    ---       FatDir
      020080C5H   SYMBOL    XDATA    ---       pFatDir
      ---         BLOCKEND  ---      ---       LVL=1
      010031FFH   LINE      CODE     ---       #839
      0100320AH   LINE      CODE     ---       #840
      0100320AH   LINE      CODE     ---       #841
      0100320BH   LINE      CODE     ---       #842
      01003216H   LINE      CODE     ---       #844
      01003224H   LINE      CODE     ---       #846
      01003232H   LINE      CODE     ---       #847
      01003240H   LINE      CODE     ---       #848
      01003254H   LINE      CODE     ---       #849
      0100326AH   LINE      CODE     ---       #850
      01003291H   LINE      CODE     ---       #851
      010032B8H   LINE      CODE     ---       #852
      010032DFH   LINE      CODE     ---       #853
      01003306H   LINE      CODE     ---       #854
      01003328H   LINE      CODE     ---       #855
      ---         BLOCKEND  ---      ---       LVL=0

      ---         MODULE    ---      ---       FILE_SYS
LX51 LINKER/LOCATER V4.66.93.0                                                        07/09/2019  19:31:38  PAGE 53


      0200A5C7H   PUBLIC    XDATA    ---       GlobalBuf
      020080C8H   PUBLIC    XDATA    BYTE      ?_CH376SetFileMessage?BYTE
      01001D37H   PUBLIC    CODE     ---       _CH376SetFileMessage
      020080C9H   PUBLIC    XDATA    BYTE      ?_CH376GetFileMessage?BYTE
      01002195H   PUBLIC    CODE     ---       _CH376GetFileMessage
      02008A64H   PUBLIC    XDATA    BYTE      ?_CH376MatchFile?BYTE
      01002C51H   PUBLIC    CODE     ---       _CH376MatchFile
      01004461H   PUBLIC    CODE     ---       _CH376ReadBlock
      010044A9H   PUBLIC    CODE     ---       _CH376WriteHostBlock
      0200A2C6H   PUBLIC    XDATA    BYTE      ?_CH376DiskReadSec?BYTE
      010038DFH   PUBLIC    CODE     ---       _CH376DiskReadSec
      0200A2C6H   PUBLIC    XDATA    BYTE      ?_CH376DiskWriteSec?BYTE
      010037DBH   PUBLIC    CODE     ---       _CH376DiskWriteSec
      010045B7H   PUBLIC    CODE     ---       _CH376SecLocate
      0200A2B9H   PUBLIC    XDATA    BYTE      ?_CH376SectorRead?BYTE
      01003BB3H   PUBLIC    CODE     ---       _CH376SectorRead
      0200A2B9H   PUBLIC    XDATA    BYTE      ?_CH376SectorWrite?BYTE
      01003AE1H   PUBLIC    CODE     ---       _CH376SectorWrite
      01004953H   PUBLIC    CODE     ---       CH376GetFileSize
      0100494EH   PUBLIC    CODE     ---       CH376DiskMount
      01004949H   PUBLIC    CODE     ---       CH376DiskReqSense
      01004944H   PUBLIC    CODE     ---       CH376DiskConnect
      01004734H   PUBLIC    CODE     ---       CH376GetIntStatus
      0100493EH   PUBLIC    CODE     ---       _CH376SendCmdWaitInt
      01004937H   PUBLIC    CODE     ---       CH376EndDirInfo
      010040EBH   PUBLIC    CODE     ---       CH376Read32bitDat
      01004899H   PUBLIC    CODE     ---       _CH376ReadVar32
      0200A5C0H   PUBLIC    XDATA    BYTE      ?_CH376WriteVar32?BYTE
      01004403H   PUBLIC    CODE     ---       _CH376WriteVar32
      01004809H   PUBLIC    CODE     ---       _CH376WriteVar8
      01004884H   PUBLIC    CODE     ---       _CH376CloseFile
      0100492FH   PUBLIC    CODE     ---       _CH376FileCreate
      01004912H   PUBLIC    CODE     ---       _CH376FileOpenPath
      0100425FH   PUBLIC    CODE     ---       _CH376FileDeletePath
      01004858H   PUBLIC    CODE     ---       _CH376DirCreate
      01003E19H   PUBLIC    CODE     ---       _CH376FileOpenDir
      01004927H   PUBLIC    CODE     ---       _CH376FileOpen
      0100491FH   PUBLIC    CODE     ---       _CH376DeleteFile
      01004917H   PUBLIC    CODE     ---       CH376Error
      0100433AH   PUBLIC    CODE     ---       _CH376SetFileName
      01000003H   PUBLIC    CODE     ---       Query376Interrupt
      0100475EH   PUBLIC    CODE     ---       Wait376Interrupt
      010047ACH   PUBLIC    CODE     ---       _AlphabetTransfrom
      000000F1H   SFRSYM    DATA     BYTE      ADR_H
      00000080H   SFRSYM    DATA     BYTE      P0
      00000090H   SFRSYM    DATA     BYTE      P1
      000000A0H   SFRSYM    DATA     BYTE      P2
      000000B0H   SFRSYM    DATA     BYTE      P3
      000000F3H   SFRSYM    DATA     BYTE      ADR_L
      000000D0H.6 SFRSYM    DATA     BIT       AC
      00000094H   SFRSYM    DATA     BYTE      PAGESEL
      000000F2H   SFRSYM    DATA     BYTE      ADR_M
      000000A8H.7 SFRSYM    DATA     BIT       EA
      000000F8H   SFRSYM    DATA     BYTE      RAMMODE
      000000B7H   SFRSYM    DATA     BYTE      P0MDOUT
      000000BCH   SFRSYM    DATA     BYTE      P1MDOUT
      000000A8H   SFRSYM    DATA     BYTE      IEN0
      000000BDH   SFRSYM    DATA     BYTE      P2MDOUT
      000000B8H   SFRSYM    DATA     BYTE      IEN1
      000000BEH   SFRSYM    DATA     BYTE      P3MDOUT
      0000009AH   SFRSYM    DATA     BYTE      IEN2
      000000D1H   SFRSYM    DATA     BYTE      IEN3
      00000090H.4 SFRSYM    DATA     BIT       CH376_INT_WIRE
      000000F8H.4 SFRSYM    DATA     BIT       APP_ACK
      000000F4H   SFRSYM    DATA     BYTE      ADR_INC
LX51 LINKER/LOCATER V4.66.93.0                                                        07/09/2019  19:31:38  PAGE 54


      000000B8H.1 SFRSYM    DATA     BIT       ECAN
      000000D0H.7 SFRSYM    DATA     BIT       CY
      000000B8H.3 SFRSYM    DATA     BIT       ES2R
      000000B8H.5 SFRSYM    DATA     BIT       ES3R
      000000B8H.2 SFRSYM    DATA     BIT       ES2T
      000000B8H.4 SFRSYM    DATA     BIT       ES3T
      00000090H.3 SFRSYM    DATA     BIT       CH376_RD
      00000090H.1 SFRSYM    DATA     BIT       CH376_CS
      00000081H   SFRSYM    DATA     BYTE      SP
      000000D0H.2 SFRSYM    DATA     BIT       OV
      00000095H   SFRSYM    DATA     BYTE      D_PAGESEL
      000000F8H.7 SFRSYM    DATA     BIT       APP_REQ
      000000BFH   SFRSYM    DATA     BYTE      IRCON2
      000000BAH   SFRSYM    DATA     BYTE      SREL0H
      000000BBH   SFRSYM    DATA     BYTE      SREL1H
      00000087H   SFRSYM    DATA     BYTE      PCON
      000000F9H   SFRSYM    DATA     BYTE      PORTDRV
      000000AAH   SFRSYM    DATA     BYTE      SREL0L
      0000009DH   SFRSYM    DATA     BYTE      SREL1L
      00000089H   SFRSYM    DATA     BYTE      TMOD
      00000088H   SFRSYM    DATA     BYTE      TCON
      00000090H.2 SFRSYM    DATA     BIT       CH376_WR
      000000FFH   SFRSYM    DATA     BYTE      EXDATA
      00000097H   SFRSYM    DATA     BYTE      SCON2R
      000000ABH   SFRSYM    DATA     BYTE      SCON3R
      000000D9H   SFRSYM    DATA     BYTE      BODE2_DIV_H
      000000AEH   SFRSYM    DATA     BYTE      BODE3_DIV_H
      00000096H   SFRSYM    DATA     BYTE      SCON2T
      000000A7H   SFRSYM    DATA     BYTE      SCON3T
      000000E7H   SFRSYM    DATA     BYTE      BODE2_DIV_L
      00000088H.1 SFRSYM    DATA     BIT       IE0
      000000AFH   SFRSYM    DATA     BYTE      BODE3_DIV_L
      00000088H.3 SFRSYM    DATA     BIT       IE1
      000000C9H   SFRSYM    DATA     BYTE      MUX_SEL
      000000F0H   SFRSYM    DATA     BYTE      B
      000000E0H   SFRSYM    DATA     BYTE      ACC
      0000008FH   SFRSYM    DATA     BYTE      CAN_CR
      000000A8H.4 SFRSYM    DATA     BIT       ES0
      000000A9H   SFRSYM    DATA     BYTE      IP0
      000000A8H.1 SFRSYM    DATA     BIT       ET0
      000000B9H   SFRSYM    DATA     BYTE      IP1
      000000A8H.3 SFRSYM    DATA     BIT       ET1
      00000088H.5 SFRSYM    DATA     BIT       TF0
      000000FDH   SFRSYM    DATA     BYTE      DATA0
      000000A8H.5 SFRSYM    DATA     BIT       ET2
      00000098H.0 SFRSYM    DATA     BIT       RI0
      00000088H.7 SFRSYM    DATA     BIT       TF1
      000000E8H   SFRSYM    DATA     BYTE      CAN_ET
      000000FCH   SFRSYM    DATA     BYTE      DATA1
      000000C0H.6 SFRSYM    DATA     BIT       TF2
      0000008CH   SFRSYM    DATA     BYTE      TH0
      000000FBH   SFRSYM    DATA     BYTE      DATA2
      000000A8H.0 SFRSYM    DATA     BIT       EX0
      00000098H.1 SFRSYM    DATA     BIT       TI0
      0000008DH   SFRSYM    DATA     BYTE      TH1
      00000088H.0 SFRSYM    DATA     BIT       IT0
      00000091H   SFRSYM    DATA     BYTE      CAN_IR
      000000FAH   SFRSYM    DATA     BYTE      DATA3
      000000CDH   SFRSYM    DATA     BYTE      TH2
      000000A8H.2 SFRSYM    DATA     BIT       EX1
      00000088H.2 SFRSYM    DATA     BIT       IT1
      000000D0H.0 SFRSYM    DATA     BIT       P
      0000008AH   SFRSYM    DATA     BYTE      TL0
      0000008BH   SFRSYM    DATA     BYTE      TL1
      000000CCH   SFRSYM    DATA     BYTE      TL2
LX51 LINKER/LOCATER V4.66.93.0                                                        07/09/2019  19:31:38  PAGE 55


      000000F8H.6 SFRSYM    DATA     BIT       APP_EN
      000000D0H.3 SFRSYM    DATA     BIT       RS0
      000000D0H.4 SFRSYM    DATA     BIT       RS1
      00000088H.4 SFRSYM    DATA     BIT       TR0
      00000093H   SFRSYM    DATA     BYTE      DPC
      00000088H.6 SFRSYM    DATA     BIT       TR1
      000000E5H   SFRSYM    DATA     BYTE      MAC_MODE
      000000C8H.0 SFRSYM    DATA     BIT       TR2
      00000083H   SFRSYM    DATA     BYTE      DPH
      00000082H   SFRSYM    DATA     BYTE      DPL
      00000099H   SFRSYM    DATA     BYTE      SBUF0
      0000009CH   SFRSYM    DATA     BYTE      SBUF1
      00000098H   SFRSYM    DATA     BYTE      SCON0
      0000009BH   SFRSYM    DATA     BYTE      SCON1
      000000D8H   SFRSYM    DATA     BYTE      ADCON
      000000C8H   SFRSYM    DATA     BYTE      T2CON
      000000E6H   SFRSYM    DATA     BYTE      DIV_MODE
      000000F8H.5 SFRSYM    DATA     BIT       APP_RW
      000000CBH   SFRSYM    DATA     BYTE      TRL2H
      0000009FH   SFRSYM    DATA     BYTE      SBUF2_RX
      000000ADH   SFRSYM    DATA     BYTE      SBUF3_RX
      0000008EH   SFRSYM    DATA     BYTE      CKCON
      0000009EH   SFRSYM    DATA     BYTE      SBUF2_TX
      000000ACH   SFRSYM    DATA     BYTE      SBUF3_TX
      000000CAH   SFRSYM    DATA     BYTE      TRL2L
      000000FEH   SFRSYM    DATA     BYTE      EXADR
      000000D0H.5 SFRSYM    DATA     BIT       F0
      000000D0H.1 SFRSYM    DATA     BIT       F1
      000000D0H   SFRSYM    DATA     BYTE      PSW
      000000C0H   SFRSYM    DATA     BYTE      IRCON
      00000090H.0 SFRSYM    DATA     BIT       CH376_A0

      010047ACH   BLOCK     CODE     ---       LVL=0
      00000001H   SYMBOL    DATA     ---       name
      010047ACH   BLOCK     CODE     NEAR LAB  LVL=1
      00000001H   SYMBOL    DATA     ---       c
      ---         BLOCKEND  ---      ---       LVL=1
      010047ACH   LINE      CODE     ---       #52
      010047ACH   LINE      CODE     ---       #53
      010047ACH   LINE      CODE     ---       #55
      010047B1H   LINE      CODE     ---       #56
      010047B1H   LINE      CODE     ---       #57
      010047C3H   LINE      CODE     ---       #58
      010047CCH   LINE      CODE     ---       #59
      ---         BLOCKEND  ---      ---       LVL=0

      0100475EH   BLOCK     CODE     ---       LVL=0
      0100475EH   BLOCK     CODE     NEAR LAB  LVL=1
      0200A5C1H   SYMBOL    XDATA    DWORD     i
      ---         BLOCKEND  ---      ---       LVL=1
      0100475EH   LINE      CODE     ---       #61
      0100475EH   LINE      CODE     ---       #62
      0100475EH   LINE      CODE     ---       #63
      01004768H   LINE      CODE     ---       #64
      0100476EH   LINE      CODE     ---       #65
      0100476EH   LINE      CODE     ---       #66
      01004782H   LINE      CODE     ---       #67
      01004782H   LINE      CODE     ---       #68
      ---         BLOCKEND  ---      ---       LVL=0

      01000003H   BLOCK     CODE     ---       LVL=0
      01000003H   LINE      CODE     ---       #71
      01000003H   LINE      CODE     ---       #72
      01000003H   LINE      CODE     ---       #73
      0100000AH   LINE      CODE     ---       #74
LX51 LINKER/LOCATER V4.66.93.0                                                        07/09/2019  19:31:38  PAGE 56


      ---         BLOCKEND  ---      ---       LVL=0

      01004332H   BLOCK     CODE     VOID      LVL=0
      ---         BLOCKEND  ---      ---       LVL=0

      0100433AH   BLOCK     CODE     ---       LVL=0
      0200A5C0H   SYMBOL    XDATA    ---       name
      0200A5C3H   SYMBOL    XDATA    BYTE      c
      01004345H   BLOCK     CODE     NEAR LAB  LVL=1
      0200A5C3H   SYMBOL    XDATA    BYTE      c
      ---         BLOCKEND  ---      ---       LVL=1
      0100433AH   LINE      CODE     ---       #76
      01004345H   LINE      CODE     ---       #77
      01004345H   LINE      CODE     ---       #79
      0100434AH   LINE      CODE     ---       #80
      0100435DH   LINE      CODE     ---       #81
      0100435FH   LINE      CODE     ---       #82
      01004365H   LINE      CODE     ---       #83
      01004365H   LINE      CODE     ---       #84
      0100436FH   LINE      CODE     ---       #85
      01004382H   LINE      CODE     ---       #86
      01004390H   LINE      CODE     ---       #87
      01004398H   LINE      CODE     ---       #88
      0100439AH   LINE      CODE     ---       #89
      ---         BLOCKEND  ---      ---       LVL=0

      01004917H   BLOCK     CODE     ---       LVL=0
      01004917H   LINE      CODE     ---       #91
      01004917H   LINE      CODE     ---       #92
      01004917H   LINE      CODE     ---       #93
      0100491CH   LINE      CODE     ---       #94
      0100491EH   LINE      CODE     ---       #95
      ---         BLOCKEND  ---      ---       LVL=0

      0100491FH   BLOCK     CODE     ---       LVL=0
      00000001H   SYMBOL    DATA     ---       pName
      0100491FH   LINE      CODE     ---       #97
      0100491FH   LINE      CODE     ---       #98
      0100491FH   LINE      CODE     ---       #99
      01004922H   LINE      CODE     ---       #100
      ---         BLOCKEND  ---      ---       LVL=0

      01004927H   BLOCK     CODE     ---       LVL=0
      00000001H   SYMBOL    DATA     ---       name
      01004927H   LINE      CODE     ---       #103
      01004927H   LINE      CODE     ---       #104
      01004927H   LINE      CODE     ---       #105
      0100492AH   LINE      CODE     ---       #106
      ---         BLOCKEND  ---      ---       LVL=0

      01003E0EH   BLOCK     CODE     VOID      LVL=0
      ---         BLOCKEND  ---      ---       LVL=0

      01003E19H   BLOCK     CODE     ---       LVL=0
      0200A2B9H   SYMBOL    XDATA    ---       PathName
      0200A2BCH   SYMBOL    XDATA    BYTE      StopName
      0200A2BDH   SYMBOL    XDATA    BYTE      i
      00000007H   SYMBOL    DATA     BYTE      s
      01003E27H   BLOCK     CODE     NEAR LAB  LVL=1
      0200A2BDH   SYMBOL    XDATA    BYTE      i
      00000007H   SYMBOL    DATA     BYTE      s
      ---         BLOCKEND  ---      ---       LVL=1
      01003E19H   LINE      CODE     ---       #119
      01003E27H   LINE      CODE     ---       #121
      01003E27H   LINE      CODE     ---       #123
LX51 LINKER/LOCATER V4.66.93.0                                                        07/09/2019  19:31:38  PAGE 57


      01003E29H   LINE      CODE     ---       #124
      01003E2CH   LINE      CODE     ---       #125
      01003E2CH   LINE      CODE     ---       #126
      01003E2CH   LINE      CODE     ---       #127
      01003E58H   LINE      CODE     ---       #128
      01003E79H   LINE      CODE     ---       #129
      01003E7EH   LINE      CODE     ---       #130
      01003E92H   LINE      CODE     ---       #131
      01003EA2H   LINE      CODE     ---       #132
      01003EA2H   LINE      CODE     ---       #133
      01003EA8H   LINE      CODE     ---       #134
      01003EA8H   LINE      CODE     ---       #135
      01003EB0H   LINE      CODE     ---       #136
      01003EB8H   LINE      CODE     ---       #138
      01003EB8H   LINE      CODE     ---       #139
      01003EBDH   LINE      CODE     ---       #140
      01003EC0H   LINE      CODE     ---       #141
      01003EC0H   LINE      CODE     ---       #142
      01003EC0H   LINE      CODE     ---       #143
      ---         BLOCKEND  ---      ---       LVL=0

      01004858H   BLOCK     CODE     ---       LVL=0
      00000001H   SYMBOL    DATA     ---       PathName
      01004858H   LINE      CODE     ---       #145
      01004858H   LINE      CODE     ---       #146
      01004858H   LINE      CODE     ---       #147
      0100485BH   LINE      CODE     ---       #148
      0100486AH   LINE      CODE     ---       #149
      ---         BLOCKEND  ---      ---       LVL=0

      0100425FH   BLOCK     CODE     ---       LVL=0
      02008090H   SYMBOL    XDATA    ---       PathName
      0100426AH   BLOCK     CODE     NEAR LAB  LVL=1
      00000007H   SYMBOL    DATA     BYTE      s
      ---         BLOCKEND  ---      ---       LVL=1
      0100425FH   LINE      CODE     ---       #152
      0100426AH   LINE      CODE     ---       #153
      0100426AH   LINE      CODE     ---       #155
      0100426EH   LINE      CODE     ---       #156
      0100426EH   LINE      CODE     ---       #157
      01004293H   LINE      CODE     ---       #158
      010042A8H   LINE      CODE     ---       #159
      010042A8H   LINE      CODE     ---       #160
      010042B1H   LINE      CODE     ---       #161
      010042BDH   LINE      CODE     ---       #162
      010042BDH   LINE      CODE     ---       #163
      010042C3H   LINE      CODE     ---       #164
      010042C3H   LINE      CODE     ---       #165
      010042C8H   LINE      CODE     ---       #166
      ---         BLOCKEND  ---      ---       LVL=0

      0100490AH   BLOCK     CODE     VOID      LVL=0
      ---         BLOCKEND  ---      ---       LVL=0

      01004912H   BLOCK     CODE     ---       LVL=0
      00000001H   SYMBOL    DATA     ---       PathName
      01004912H   LINE      CODE     ---       #168
      01004912H   LINE      CODE     ---       #169
      01004912H   LINE      CODE     ---       #170
      ---         BLOCKEND  ---      ---       LVL=0

      0100492FH   BLOCK     CODE     ---       LVL=0
      00000001H   SYMBOL    DATA     ---       PathName
      0100492FH   LINE      CODE     ---       #173
      0100492FH   LINE      CODE     ---       #174
LX51 LINKER/LOCATER V4.66.93.0                                                        07/09/2019  19:31:38  PAGE 58


      0100492FH   LINE      CODE     ---       #175
      01004932H   LINE      CODE     ---       #176
      ---         BLOCKEND  ---      ---       LVL=0
      00000007H   SYMBOL    DATA     BYTE      s

      01004884H   BLOCK     CODE     ---       LVL=0
      0200A5C0H   SYMBOL    XDATA    BYTE      param
      01004884H   LINE      CODE     ---       #197
      01004889H   LINE      CODE     ---       #198
      01004889H   LINE      CODE     ---       #199
      0100488EH   LINE      CODE     ---       #200
      01004896H   LINE      CODE     ---       #201
      ---         BLOCKEND  ---      ---       LVL=0

      01004809H   BLOCK     CODE     ---       LVL=0
      02008AB5H   SYMBOL    XDATA    BYTE      var
      02008AB6H   SYMBOL    XDATA    BYTE      dat
      01004809H   LINE      CODE     ---       #204
      01004811H   LINE      CODE     ---       #205
      01004811H   LINE      CODE     ---       #206
      01004816H   LINE      CODE     ---       #207
      0100481EH   LINE      CODE     ---       #208
      ---         BLOCKEND  ---      ---       LVL=0
      00000007H   SYMBOL    DATA     BYTE      c0

      01004403H   BLOCK     CODE     ---       LVL=0
      0200A5C0H   SYMBOL    XDATA    BYTE      var
      0200A5C1H   SYMBOL    XDATA    DWORD     dat
      01004403H   LINE      CODE     ---       #220
      01004408H   LINE      CODE     ---       #221
      01004408H   LINE      CODE     ---       #222
      0100440DH   LINE      CODE     ---       #223
      01004415H   LINE      CODE     ---       #224
      01004420H   LINE      CODE     ---       #225
      0100442DH   LINE      CODE     ---       #226
      01004443H   LINE      CODE     ---       #227
      ---         BLOCKEND  ---      ---       LVL=0

      01004899H   BLOCK     CODE     ---       LVL=0
      0200A2B9H   SYMBOL    XDATA    BYTE      var
      01004899H   LINE      CODE     ---       #230
      0100489EH   LINE      CODE     ---       #231
      0100489EH   LINE      CODE     ---       #232
      010048A3H   LINE      CODE     ---       #233
      010048ABH   LINE      CODE     ---       #234
      ---         BLOCKEND  ---      ---       LVL=0

      010040EBH   BLOCK     CODE     ---       LVL=0
      010040EBH   BLOCK     CODE     NEAR LAB  LVL=1
      0200A2C6H   SYMBOL    XDATA    BYTE      c0
      0200A2C7H   SYMBOL    XDATA    BYTE      c1
      0200A2C8H   SYMBOL    XDATA    BYTE      c2
      0200A2C9H   SYMBOL    XDATA    BYTE      c3
      ---         BLOCKEND  ---      ---       LVL=1
      010040EBH   LINE      CODE     ---       #237
      010040EBH   LINE      CODE     ---       #238
      010040EBH   LINE      CODE     ---       #240
      010040F3H   LINE      CODE     ---       #241
      010040FBH   LINE      CODE     ---       #242
      01004103H   LINE      CODE     ---       #243
      0100410BH   LINE      CODE     ---       #244
      0100416AH   LINE      CODE     ---       #245
      ---         BLOCKEND  ---      ---       LVL=0

      01004937H   BLOCK     CODE     ---       LVL=0
LX51 LINKER/LOCATER V4.66.93.0                                                        07/09/2019  19:31:38  PAGE 59


      01004937H   LINE      CODE     ---       #255
      01004937H   LINE      CODE     ---       #256
      01004937H   LINE      CODE     ---       #257
      ---         BLOCKEND  ---      ---       LVL=0

      0100493EH   BLOCK     CODE     ---       LVL=0
      00000007H   SYMBOL    DATA     BYTE      mCmd
      0100493EH   LINE      CODE     ---       #260
      0100493EH   LINE      CODE     ---       #261
      0100493EH   LINE      CODE     ---       #262
      01004941H   LINE      CODE     ---       #263
      ---         BLOCKEND  ---      ---       LVL=0

      01004734H   BLOCK     CODE     ---       LVL=0
      01004734H   BLOCK     CODE     NEAR LAB  LVL=1
      0200A5C5H   SYMBOL    XDATA    BYTE      i
      0200A5C6H   SYMBOL    XDATA    BYTE      Data
      ---         BLOCKEND  ---      ---       LVL=1
      01004734H   LINE      CODE     ---       #266
      01004734H   LINE      CODE     ---       #267
      01004734H   LINE      CODE     ---       #269
      01004739H   LINE      CODE     ---       #270
      01004745H   LINE      CODE     ---       #271
      01004745H   LINE      CODE     ---       #272
      0100474DH   LINE      CODE     ---       #273
      01004750H   LINE      CODE     ---       #274
      01004758H   LINE      CODE     ---       #275
      0100475DH   LINE      CODE     ---       #276
      ---         BLOCKEND  ---      ---       LVL=0

      01004944H   BLOCK     CODE     ---       LVL=0
      01004944H   LINE      CODE     ---       #278
      01004944H   LINE      CODE     ---       #279
      01004944H   LINE      CODE     ---       #280
      ---         BLOCKEND  ---      ---       LVL=0

      01004949H   BLOCK     CODE     ---       LVL=0
      01004949H   BLOCK     CODE     NEAR LAB  LVL=1
      00000007H   SYMBOL    DATA     BYTE      s
      ---         BLOCKEND  ---      ---       LVL=1
      01004949H   LINE      CODE     ---       #283
      01004949H   LINE      CODE     ---       #284
      01004949H   LINE      CODE     ---       #286
      ---         BLOCKEND  ---      ---       LVL=0

      0100494EH   BLOCK     CODE     ---       LVL=0
      0100494EH   LINE      CODE     ---       #290
      0100494EH   LINE      CODE     ---       #291
      0100494EH   LINE      CODE     ---       #292
      ---         BLOCKEND  ---      ---       LVL=0

      01004953H   BLOCK     CODE     ---       LVL=0
      01004953H   LINE      CODE     ---       #300
      01004953H   LINE      CODE     ---       #301
      01004953H   LINE      CODE     ---       #302
      ---         BLOCKEND  ---      ---       LVL=0

      01003AE1H   BLOCK     CODE     ---       LVL=0
      0200A2B9H   SYMBOL    XDATA    ---       buf
      0200A2BCH   SYMBOL    XDATA    BYTE      ReqCount
      0200A2BDH   SYMBOL    XDATA    ---       RealCount
      01003AEFH   BLOCK     CODE     NEAR LAB  LVL=1
      0200A2C0H   SYMBOL    XDATA    BYTE      s
      0200A2C1H   SYMBOL    XDATA    BYTE      cnt
      0200A2C2H   SYMBOL    XDATA    DWORD     StaSec
LX51 LINKER/LOCATER V4.66.93.0                                                        07/09/2019  19:31:38  PAGE 60


      ---         BLOCKEND  ---      ---       LVL=1
      01003AE1H   LINE      CODE     ---       #305
      01003AEFH   LINE      CODE     ---       #307
      01003AEFH   LINE      CODE     ---       #311
      01003B01H   LINE      CODE     ---       #313
      01003B01H   LINE      CODE     ---       #314
      01003B06H   LINE      CODE     ---       #315
      01003B0EH   LINE      CODE     ---       #316
      01003B16H   LINE      CODE     ---       #317
      01003B1DH   LINE      CODE     ---       #318
      01003B22H   LINE      CODE     ---       #319
      01003B25H   LINE      CODE     ---       #320
      01003B2DH   LINE      CODE     ---       #321
      01003B30H   LINE      CODE     ---       #322
      01003B33H   LINE      CODE     ---       #323
      01003B36H   LINE      CODE     ---       #324
      01003B3FH   LINE      CODE     ---       #325
      01003B45H   LINE      CODE     ---       #326
      01003B6CH   LINE      CODE     ---       #327
      01003B73H   LINE      CODE     ---       #328
      01003B83H   LINE      CODE     ---       #329
      01003B97H   LINE      CODE     ---       #330
      01003BA8H   LINE      CODE     ---       #331
      01003BA8H   LINE      CODE     ---       #332
      01003BADH   LINE      CODE     ---       #334
      01003BB2H   LINE      CODE     ---       #335
      ---         BLOCKEND  ---      ---       LVL=0

      01003BB3H   BLOCK     CODE     ---       LVL=0
      0200A2B9H   SYMBOL    XDATA    ---       buf
      0200A2BCH   SYMBOL    XDATA    BYTE      ReqCount
      0200A2BDH   SYMBOL    XDATA    ---       RealCount
      01003BC1H   BLOCK     CODE     NEAR LAB  LVL=1
      0200A2C0H   SYMBOL    XDATA    BYTE      s
      0200A2C1H   SYMBOL    XDATA    BYTE      cnt
      0200A2C2H   SYMBOL    XDATA    DWORD     StaSec
      ---         BLOCKEND  ---      ---       LVL=1
      01003BB3H   LINE      CODE     ---       #337
      01003BC1H   LINE      CODE     ---       #338
      01003BC1H   LINE      CODE     ---       #341
      01003BD3H   LINE      CODE     ---       #343
      01003BD3H   LINE      CODE     ---       #344
      01003BD8H   LINE      CODE     ---       #345
      01003BE0H   LINE      CODE     ---       #346
      01003BE8H   LINE      CODE     ---       #347
      01003BEFH   LINE      CODE     ---       #348
      01003BF4H   LINE      CODE     ---       #349
      01003BF7H   LINE      CODE     ---       #350
      01003BFFH   LINE      CODE     ---       #351
      01003C02H   LINE      CODE     ---       #352
      01003C05H   LINE      CODE     ---       #353
      01003C08H   LINE      CODE     ---       #354
      01003C11H   LINE      CODE     ---       #355
      01003C17H   LINE      CODE     ---       #356
      01003C3EH   LINE      CODE     ---       #357
      01003C45H   LINE      CODE     ---       #358
      01003C55H   LINE      CODE     ---       #359
      01003C69H   LINE      CODE     ---       #360
      01003C7AH   LINE      CODE     ---       #361
      01003C7AH   LINE      CODE     ---       #362
      01003C7FH   LINE      CODE     ---       #363
      01003C84H   LINE      CODE     ---       #364
      ---         BLOCKEND  ---      ---       LVL=0

      010045B7H   BLOCK     CODE     ---       LVL=0
LX51 LINKER/LOCATER V4.66.93.0                                                        07/09/2019  19:31:38  PAGE 61


      0200A2B9H   SYMBOL    XDATA    DWORD     offset
      010045B7H   LINE      CODE     ---       #366
      010045BDH   LINE      CODE     ---       #369
      010045BDH   LINE      CODE     ---       #370
      010045C2H   LINE      CODE     ---       #371
      010045CDH   LINE      CODE     ---       #372
      010045DAH   LINE      CODE     ---       #373
      010045F0H   LINE      CODE     ---       #374
      010045F5H   LINE      CODE     ---       #375
      ---         BLOCKEND  ---      ---       LVL=0

      010037DBH   BLOCK     CODE     ---       LVL=0
      0200A2C6H   SYMBOL    XDATA    ---       buf
      0200A2C9H   SYMBOL    XDATA    DWORD     iLbaStart
      0200A2CDH   SYMBOL    XDATA    BYTE      iSectorCount
      010037EAH   BLOCK     CODE     NEAR LAB  LVL=1
      0200A2CEH   SYMBOL    XDATA    BYTE      s
      0200A2CFH   SYMBOL    XDATA    BYTE      err
      0200A2D0H   SYMBOL    XDATA    WORD      mBlockCount
      ---         BLOCKEND  ---      ---       LVL=1
      010037DBH   LINE      CODE     ---       #378
      010037EAH   LINE      CODE     ---       #381
      010037EAH   LINE      CODE     ---       #384
      010037FAH   LINE      CODE     ---       #385
      010037FAH   LINE      CODE     ---       #386
      010037FFH   LINE      CODE     ---       #387
      0100380AH   LINE      CODE     ---       #388
      01003817H   LINE      CODE     ---       #389
      0100382DH   LINE      CODE     ---       #390
      01003843H   LINE      CODE     ---       #391
      0100384BH   LINE      CODE     ---       #392
      0100386FH   LINE      CODE     ---       #393
      0100386FH   LINE      CODE     ---       #394
      01003877H   LINE      CODE     ---       #395
      0100387BH   LINE      CODE     ---       #396
      0100387BH   LINE      CODE     ---       #397
      0100388BH   LINE      CODE     ---       #398
      01003890H   LINE      CODE     ---       #399
      0100389AH   LINE      CODE     ---       #400
      0100389AH   LINE      CODE     ---       #401
      0100389AH   LINE      CODE     ---       #402
      010038AAH   LINE      CODE     ---       #403
      010038B4H   LINE      CODE     ---       #404
      010038B4H   LINE      CODE     ---       #405
      010038BCH   LINE      CODE     ---       #406
      010038C3H   LINE      CODE     ---       #407
      010038C3H   LINE      CODE     ---       #408
      010038CDH   LINE      CODE     ---       #409
      010038D0H   LINE      CODE     ---       #410
      010038D9H   LINE      CODE     ---       #411
      010038DEH   LINE      CODE     ---       #412
      ---         BLOCKEND  ---      ---       LVL=0

      010038DFH   BLOCK     CODE     ---       LVL=0
      0200A2C6H   SYMBOL    XDATA    ---       buf
      0200A2C9H   SYMBOL    XDATA    DWORD     iLbaStart
      0200A2CDH   SYMBOL    XDATA    BYTE      iSectorCount
      010038EEH   BLOCK     CODE     NEAR LAB  LVL=1
      0200A2CEH   SYMBOL    XDATA    BYTE      s
      0200A2CFH   SYMBOL    XDATA    BYTE      err
      0200A2D0H   SYMBOL    XDATA    WORD      mBlockCount
      ---         BLOCKEND  ---      ---       LVL=1
      010038DFH   LINE      CODE     ---       #414
      010038EEH   LINE      CODE     ---       #416
      010038EEH   LINE      CODE     ---       #419
LX51 LINKER/LOCATER V4.66.93.0                                                        07/09/2019  19:31:38  PAGE 62


      010038FEH   LINE      CODE     ---       #420
      010038FEH   LINE      CODE     ---       #421
      01003903H   LINE      CODE     ---       #422
      0100390EH   LINE      CODE     ---       #423
      0100391BH   LINE      CODE     ---       #424
      01003931H   LINE      CODE     ---       #425
      01003947H   LINE      CODE     ---       #426
      0100394FH   LINE      CODE     ---       #427
      01003973H   LINE      CODE     ---       #428
      01003973H   LINE      CODE     ---       #429
      0100397BH   LINE      CODE     ---       #430
      0100397FH   LINE      CODE     ---       #431
      0100397FH   LINE      CODE     ---       #432
      0100398AH   LINE      CODE     ---       #433
      0100398FH   LINE      CODE     ---       #434
      0100399DH   LINE      CODE     ---       #435
      0100399DH   LINE      CODE     ---       #436
      0100399DH   LINE      CODE     ---       #437
      010039ADH   LINE      CODE     ---       #438
      010039B7H   LINE      CODE     ---       #439
      010039B7H   LINE      CODE     ---       #440
      010039BFH   LINE      CODE     ---       #441
      010039C6H   LINE      CODE     ---       #442
      010039C6H   LINE      CODE     ---       #443
      010039D0H   LINE      CODE     ---       #444
      010039D3H   LINE      CODE     ---       #445
      010039DCH   LINE      CODE     ---       #446
      010039E1H   LINE      CODE     ---       #447
      ---         BLOCKEND  ---      ---       LVL=0

      010044A9H   BLOCK     CODE     ---       LVL=0
      0200A2D2H   SYMBOL    XDATA    ---       buf
      0200A2D5H   SYMBOL    XDATA    BYTE      len
      010044A9H   LINE      CODE     ---       #449
      010044B7H   LINE      CODE     ---       #450
      010044B7H   LINE      CODE     ---       #451
      010044BCH   LINE      CODE     ---       #452
      010044C4H   LINE      CODE     ---       #453
      010044CAH   LINE      CODE     ---       #454
      010044CAH   LINE      CODE     ---       #456
      010044CAH   LINE      CODE     ---       #457
      010044DCH   LINE      CODE     ---       #458
      010044E6H   LINE      CODE     ---       #459
      010044E6H   LINE      CODE     ---       #460
      010044EEH   LINE      CODE     ---       #461
      010044EEH   LINE      CODE     ---       #462
      ---         BLOCKEND  ---      ---       LVL=0

      01004459H   BLOCK     CODE     VOID      LVL=0
      ---         BLOCKEND  ---      ---       LVL=0

      01004461H   BLOCK     CODE     ---       LVL=0
      0200A2D2H   SYMBOL    XDATA    ---       buf
      0200A2D5H   SYMBOL    XDATA    BYTE      s
      0200A2D6H   SYMBOL    XDATA    BYTE      l
      0100446CH   BLOCK     CODE     NEAR LAB  LVL=1
      0200A2D5H   SYMBOL    XDATA    BYTE      s
      0200A2D6H   SYMBOL    XDATA    BYTE      l
      ---         BLOCKEND  ---      ---       LVL=1
      01004461H   LINE      CODE     ---       #464
      0100446CH   LINE      CODE     ---       #465
      0100446CH   LINE      CODE     ---       #467
      01004471H   LINE      CODE     ---       #468
      0100447DH   LINE      CODE     ---       #469
      0100447FH   LINE      CODE     ---       #470
LX51 LINKER/LOCATER V4.66.93.0                                                        07/09/2019  19:31:38  PAGE 63


      0100447FH   LINE      CODE     ---       #472
      0100447FH   LINE      CODE     ---       #473
      01004491H   LINE      CODE     ---       #474
      0100449BH   LINE      CODE     ---       #475
      0100449BH   LINE      CODE     ---       #476
      010044A3H   LINE      CODE     ---       #477
      010044A3H   LINE      CODE     ---       #478
      010044A8H   LINE      CODE     ---       #479
      ---         BLOCKEND  ---      ---       LVL=0

      01002C51H   BLOCK     CODE     ---       LVL=0
      02008A64H   SYMBOL    XDATA    ---       String
      02008A67H   SYMBOL    XDATA    ---       PathName
      02008A6AH   SYMBOL    XDATA    ---       MatchLish
      01002C5CH   BLOCK     CODE     NEAR LAB  LVL=1
      02008A6DH   SYMBOL    XDATA    BYTE      s
      02008A6EH   SYMBOL    XDATA    BYTE      FileCount
      00000007H   SYMBOL    DATA     BYTE      i
      02008A6FH   SYMBOL    XDATA    ---       pBuf
      02008AAFH   SYMBOL    XDATA    ---       pNameBuf
      02008AB2H   SYMBOL    XDATA    ---       pDir
      ---         BLOCKEND  ---      ---       LVL=1
      01002C51H   LINE      CODE     ---       #518
      01002C5CH   LINE      CODE     ---       #519
      01002C5CH   LINE      CODE     ---       #524
      01002C6DH   LINE      CODE     ---       #525
      01002C78H   LINE      CODE     ---       #526
      01002C7FH   LINE      CODE     ---       #527
      01002C85H   LINE      CODE     ---       #528
      01002C8AH   LINE      CODE     ---       #529
      01002C9FH   LINE      CODE     ---       #530
      01002C9FH   LINE      CODE     ---       #531
      01002CA7H   LINE      CODE     ---       #532
      01002CAEH   LINE      CODE     ---       #533
      01002CAEH   LINE      CODE     ---       #534
      01002CB7H   LINE      CODE     ---       #535
      01002CBCH   LINE      CODE     ---       #536
      01002CCDH   LINE      CODE     ---       #537
      01002CD8H   LINE      CODE     ---       #538
      01002CEDH   LINE      CODE     ---       #539
      01002D02H   LINE      CODE     ---       #540
      01002D0EH   LINE      CODE     ---       #541
      01002D0EH   LINE      CODE     ---       #542
      01002D25H   LINE      CODE     ---       #543
      01002D25H   LINE      CODE     ---       #544
      01002D2AH   LINE      CODE     ---       #545
      01002D2AH   LINE      CODE     ---       #546
      01002D3FH   LINE      CODE     ---       #547
      01002D3FH   LINE      CODE     ---       #548
      01002D62H   LINE      CODE     ---       #549
      01002D6CH   LINE      CODE     ---       #550
      01002D6CH   LINE      CODE     ---       #551
      01002D6FH   LINE      CODE     ---       #552
      01002D7EH   LINE      CODE     ---       #553
      01002DA0H   LINE      CODE     ---       #554
      01002DAAH   LINE      CODE     ---       #555
      01002DACH   LINE      CODE     ---       #556
      01002DB4H   LINE      CODE     ---       #557
      01002DBDH   LINE      CODE     ---       #558
      01002DC8H   LINE      CODE     ---       #559
      01002DCDH   LINE      CODE     ---       #560
      ---         BLOCKEND  ---      ---       LVL=0

      01002195H   BLOCK     CODE     ---       LVL=0
      020080C9H   SYMBOL    XDATA    ---       pFilePath
LX51 LINKER/LOCATER V4.66.93.0                                                        07/09/2019  19:31:38  PAGE 64


      020080CCH   SYMBOL    XDATA    ---       pDir
      010021A0H   BLOCK     CODE     NEAR LAB  LVL=1
      020080CFH   SYMBOL    XDATA    ---       Buf
      0200810FH   SYMBOL    XDATA    BYTE      Status
      02008110H   SYMBOL    XDATA    ---       pFile
      ---         BLOCKEND  ---      ---       LVL=1
      01002195H   LINE      CODE     ---       #562
      010021A0H   LINE      CODE     ---       #563
      010021A0H   LINE      CODE     ---       #565
      010021A5H   LINE      CODE     ---       #567
      010021B2H   LINE      CODE     ---       #568
      010021BDH   LINE      CODE     ---       #569
      010021C6H   LINE      CODE     ---       #570
      010021C6H   LINE      CODE     ---       #571
      010021C6H   LINE      CODE     ---       #572
      010021C8H   LINE      CODE     ---       #573
      010021C8H   LINE      CODE     ---       #574
      010021CDH   LINE      CODE     ---       #575
      010021D2H   LINE      CODE     ---       #576
      010021DAH   LINE      CODE     ---       #577
      010021DEH   LINE      CODE     ---       #578
      010021DEH   LINE      CODE     ---       #579
      010021E3H   LINE      CODE     ---       #580
      010021E6H   LINE      CODE     ---       #581
      010021E6H   LINE      CODE     ---       #582
      010021EFH   LINE      CODE     ---       #583
      010021FDH   LINE      CODE     ---       #585
      01002221H   LINE      CODE     ---       #586
      01002247H   LINE      CODE     ---       #587
      0100226DH   LINE      CODE     ---       #588
      01002293H   LINE      CODE     ---       #589
      010022B9H   LINE      CODE     ---       #590
      010022E2H   LINE      CODE     ---       #591
      01002396H   LINE      CODE     ---       #593
      0100239BH   LINE      CODE     ---       #594
      0100239DH   LINE      CODE     ---       #595
      ---         BLOCKEND  ---      ---       LVL=0

      01001D37H   BLOCK     CODE     ---       LVL=0
      020080C8H   SYMBOL    XDATA    ---       pFilePath
      020080CBH   SYMBOL    XDATA    ---       pDir
      01001D42H   BLOCK     CODE     NEAR LAB  LVL=1
      020080CEH   SYMBOL    XDATA    ---       Buf
      0200810EH   SYMBOL    XDATA    BYTE      Status
      0200810FH   SYMBOL    XDATA    ---       pFile
      ---         BLOCKEND  ---      ---       LVL=1
      01001D37H   LINE      CODE     ---       #597
      01001D42H   LINE      CODE     ---       #598
      01001D42H   LINE      CODE     ---       #600
      01001D47H   LINE      CODE     ---       #602
      01001D54H   LINE      CODE     ---       #603
      01001D62H   LINE      CODE     ---       #604
      01001D6DH   LINE      CODE     ---       #605
      01001D74H   LINE      CODE     ---       #606
      01001D79H   LINE      CODE     ---       #607
      01001D7EH   LINE      CODE     ---       #608
      01001D86H   LINE      CODE     ---       #609
      01001D8BH   LINE      CODE     ---       #614
      01001D9FH   LINE      CODE     ---       #615
      01001D9FH   LINE      CODE     ---       #616
      01001DB1H   LINE      CODE     ---       #617
      01001DB6H   LINE      CODE     ---       #618
      01001DBBH   LINE      CODE     ---       #619
      01001DD0H   LINE      CODE     ---       #620
      01001DD0H   LINE      CODE     ---       #621
LX51 LINKER/LOCATER V4.66.93.0                                                        07/09/2019  19:31:38  PAGE 65


      01001DE7H   LINE      CODE     ---       #622
      01001DE7H   LINE      CODE     ---       #623
      01001DFBH   LINE      CODE     ---       #624
      01001E00H   LINE      CODE     ---       #625
      01001E05H   LINE      CODE     ---       #626
      01001E1AH   LINE      CODE     ---       #627
      01001E31H   LINE      CODE     ---       #628
      01001E31H   LINE      CODE     ---       #629
      01001E48H   LINE      CODE     ---       #630
      01001E48H   LINE      CODE     ---       #631
      01001E5CH   LINE      CODE     ---       #632
      01001E61H   LINE      CODE     ---       #633
      01001E66H   LINE      CODE     ---       #634
      01001E7BH   LINE      CODE     ---       #635
      01001E92H   LINE      CODE     ---       #636
      01001E92H   LINE      CODE     ---       #637
      01001EA9H   LINE      CODE     ---       #638
      01001EA9H   LINE      CODE     ---       #639
      01001EBDH   LINE      CODE     ---       #640
      01001EC2H   LINE      CODE     ---       #641
      01001EC7H   LINE      CODE     ---       #642
      01001EDCH   LINE      CODE     ---       #643
      01001EF3H   LINE      CODE     ---       #644
      01001EF3H   LINE      CODE     ---       #645
      01001F0AH   LINE      CODE     ---       #646
      01001F0AH   LINE      CODE     ---       #647
      01001F1EH   LINE      CODE     ---       #648
      01001F23H   LINE      CODE     ---       #649
      01001F28H   LINE      CODE     ---       #650
      01001F3DH   LINE      CODE     ---       #651
      01001F54H   LINE      CODE     ---       #652
      01001F54H   LINE      CODE     ---       #653
      01001F59H   LINE      CODE     ---       #654
      01001F61H   LINE      CODE     ---       #655
      01001F66H   LINE      CODE     ---       #656
      01001F72H   LINE      CODE     ---       #657
      01001F72H   LINE      CODE     ---       #658
      ---         BLOCKEND  ---      ---       LVL=0
      00000006H   SYMBOL    DATA     BYTE      NameLen
      00000007H   SYMBOL    DATA     BYTE      CheckSum
      00000006H   SYMBOL    DATA     WORD      NameCount

      ---         MODULE    ---      ---       ?C_INIT
      01003F9FH   PUBLIC    CODE     ---       ?C_START

      ---         MODULE    ---      ---       ?C?COPY
      010001D0H   PUBLIC    CODE     ---       ?C?COPY

      ---         MODULE    ---      ---       ?C?CLDPTR
      010001F6H   PUBLIC    CODE     ---       ?C?CLDPTR

      ---         MODULE    ---      ---       ?C?CLDOPTR
      0100020FH   PUBLIC    CODE     ---       ?C?CLDOPTR

      ---         MODULE    ---      ---       ?C?CILDPTR
      0100023CH   PUBLIC    CODE     ---       ?C?CILDPTR

      ---         MODULE    ---      ---       ?C?CSTPTR
      0100025EH   PUBLIC    CODE     ---       ?C?CSTPTR

      ---         MODULE    ---      ---       ?C?CSTOPTR
      01000270H   PUBLIC    CODE     ---       ?C?CSTOPTR

      ---         MODULE    ---      ---       ?C?UIDIV
      01000292H   PUBLIC    CODE     ---       ?C?UIDIV
LX51 LINKER/LOCATER V4.66.93.0                                                        07/09/2019  19:31:38  PAGE 66



      ---         MODULE    ---      ---       ?C?IILDX
      010002E7H   PUBLIC    CODE     ---       ?C?IILDX

      ---         MODULE    ---      ---       ?C?ILDIX
      010002FDH   PUBLIC    CODE     ---       ?C?ILDIX

      ---         MODULE    ---      ---       ?C?ILDPTR
      01000313H   PUBLIC    CODE     ---       ?C?ILDPTR

      ---         MODULE    ---      ---       ?C?ILDOPTR
      0100033EH   PUBLIC    CODE     ---       ?C?ILDOPTR

      ---         MODULE    ---      ---       ?C?IILDPTR
      01000376H   PUBLIC    CODE     ---       ?C?IILDPTR

      ---         MODULE    ---      ---       ?C?ISTPTR
      010003AEH   PUBLIC    CODE     ---       ?C?ISTPTR

      ---         MODULE    ---      ---       ?C?ISTOPTR
      010003CDH   PUBLIC    CODE     ---       ?C?ISTOPTR

      ---         MODULE    ---      ---       ?C?ULCMP
      010003FAH   PUBLIC    CODE     ---       ?C?ULCMP

      ---         MODULE    ---      ---       ?C?ULSHR
      0100040BH   PUBLIC    CODE     ---       ?C?ULSHR

      ---         MODULE    ---      ---       ?C?LSHL
      0100041EH   PUBLIC    CODE     ---       ?C?LSHL

      ---         MODULE    ---      ---       ?C?LLDOPTR
      01000431H   PUBLIC    CODE     ---       ?C?LLDOPTR

      ---         MODULE    ---      ---       ?C?LSTPTR
      01000461H   PUBLIC    CODE     ---       ?C?LSTPTR

      ---         MODULE    ---      ---       ?C?LSTOPTR
      0100047BH   PUBLIC    CODE     ---       ?C?LSTOPTR

      ---         MODULE    ---      ---       ?C?LLDPTR0
      0100049FH   PUBLIC    CODE     ---       ?C?LLDPTR0

      ---         MODULE    ---      ---       ?C?LLDIXDATA
      010004C8H   PUBLIC    CODE     ---       ?C?LLDIXDATA
      010004BFH   PUBLIC    CODE     ---       ?C?LLDIXDATA1
      010004C1H   PUBLIC    CODE     ---       ?C?LLDIXDATA8

      ---         MODULE    ---      ---       ?C?LSTXDATA
      010004F4H   PUBLIC    CODE     ---       ?C?LSTXDATA

      ---         MODULE    ---      ---       ?C?LSTKXDATA
      01000500H   PUBLIC    CODE     ---       ?C?LSTKXDATA

      ---         MODULE    ---      ---       ?C?LSTKPTR
      01000531H   PUBLIC    CODE     ---       ?C?LSTKPTR

      ---         MODULE    ---      ---       ?C_XBP
      0000000DH   PUBLIC    DATA     ---       ?C_XBP

      ---         MODULE    ---      ---       ?C?ADDXBP
      0100054BH   PUBLIC    CODE     ---       ?C?ADDXBP

      ---         MODULE    ---      ---       ?C?XBPOFF
      0100056FH   PUBLIC    CODE     ---       ?C?XBPOFF
LX51 LINKER/LOCATER V4.66.93.0                                                        07/09/2019  19:31:38  PAGE 67



      ---         MODULE    ---      ---       PRINTF
      0200837DH   PUBLIC    XDATA    ---       ?_PRINTF517?BYTE
      0200837DH   PUBLIC    XDATA    ---       ?_PRINTF?BYTE
      0200837DH   PUBLIC    XDATA    ---       ?_SPRINTF517?BYTE
      0200837DH   PUBLIC    XDATA    ---       ?_SPRINTF?BYTE
      01000F8BH   PUBLIC    CODE     ---       _PRINTF
      01000F8BH   PUBLIC    CODE     ---       _PRINTF517
      01000F85H   PUBLIC    CODE     ---       _SPRINTF
      01000F85H   PUBLIC    CODE     ---       _SPRINTF517

      ---         MODULE    ---      ---       ?C?STRCPY
      01000648H   PUBLIC    CODE     ---       ?C?STRCPY

      ---         MODULE    ---      ---       STRNCPY
      0200A2B9H   PUBLIC    XDATA    ---       ?_STRNCPY?BYTE
      0100439BH   PUBLIC    CODE     ---       _STRNCPY

      ---         MODULE    ---      ---       STRLEN
      010048AEH   PUBLIC    CODE     ---       _STRLEN

      ---         MODULE    ---      ---       STRSTR
      0200837DH   PUBLIC    XDATA    ---       ?_STRSTR?BYTE
      01003D4FH   PUBLIC    CODE     ---       _STRSTR

      ---         MODULE    ---      ---       ?C?MEMSET
      01000665H   PUBLIC    CODE     ---       ?C?MEMSET

      ---         MODULE    ---      ---       ?C?LLDIDATA
      01000691H   PUBLIC    CODE     ---       ?C?LLDIDATA

      ---         MODULE    ---      ---       ?C?LLDXDATA
      0100069DH   PUBLIC    CODE     ---       ?C?LLDXDATA

      ---         MODULE    ---      ---       ?C?LLDPDATA
      010006A9H   PUBLIC    CODE     ---       ?C?LLDPDATA

      ---         MODULE    ---      ---       ?C?LLDCODE
      010006B5H   PUBLIC    CODE     ---       ?C?LLDCODE

      ---         MODULE    ---      ---       ?C?LLDIDATA0
      010006C5H   PUBLIC    CODE     ---       ?C?LLDIDATA0

      ---         MODULE    ---      ---       ?C?LLDXDATA0
      010006D2H   PUBLIC    CODE     ---       ?C?LLDXDATA0

      ---         MODULE    ---      ---       ?C?LLDPDATA0
      010006DEH   PUBLIC    CODE     ---       ?C?LLDPDATA0

      ---         MODULE    ---      ---       ?C?LLDCODE0
      010006EBH   PUBLIC    CODE     ---       ?C?LLDCODE0

      ---         MODULE    ---      ---       ?C?LSTIDATA
      010006FBH   PUBLIC    CODE     ---       ?C?LSTIDATA

      ---         MODULE    ---      ---       ?C?LSTPDATA
      01000707H   PUBLIC    CODE     ---       ?C?LSTPDATA

      ---         MODULE    ---      ---       ?C?LSTKIDATA
      01000713H   PUBLIC    CODE     ---       ?C?LSTKIDATA

      ---         MODULE    ---      ---       ?C?LSTKPDATA
      0100072CH   PUBLIC    CODE     ---       ?C?LSTKPDATA

      ---         MODULE    ---      ---       ?C?PLDIXDATA
LX51 LINKER/LOCATER V4.66.93.0                                                        07/09/2019  19:31:38  PAGE 68


      01000745H   PUBLIC    CODE     ---       ?C?PLDIXDATA

      ---         MODULE    ---      ---       ?C?PSTXDATA
      0100075CH   PUBLIC    CODE     ---       ?C?PSTXDATA

      ---         MODULE    ---      ---       ?C?CCASE
      01000765H   PUBLIC    CODE     ---       ?C?CCASE

      ---         MODULE    ---      ---       PUTCHAR
      01004785H   PUBLIC    CODE     ---       _PUTCHAR

Program Size: data=17.1 xdata=9737 const=102 code=18776
LX51 RUN COMPLETE.  0 WARNING(S),  0 ERROR(S)
