LX51 LINKER/LOCATER V4.66.93.0                                                          07/08/2019  20:09:53  PAGE 1


LX51 LINKER/LOCATER V4.66.93.0, INVOKED BY:
D:\SOFT\KEIL5\C51\BIN\LX51.EXE .\obj\main.obj, ..\..\lib\lib_dwin\usb.LIB, ..\..\lib\lib_dwin\uart.LIB, ..\..\lib\lib_dw
>> in\dwin_51.LIB, ..\..\lib\lib_dwin\dgus_api.LIB TO .\obj\T5L51 PRINT (.\list\T5L51.map) REMOVEUNUSED CLASSES (XDATA (
>> X:0X8000-X:0XFFFF), HDATA (X:0X8000-X:0XFFFF))


CPU MODE:     8051 MODE
MEMORY MODEL: LARGE


INPUT MODULES INCLUDED:
  .\obj\main.obj (MAIN)
         COMMENT TYPE 0: C51 V9.59.0.0
  ..\..\lib\lib_dwin\usb.LIB (PARA_PORT)
         COMMENT TYPE 0: C51 V9.59.0.0
  ..\..\lib\lib_dwin\usb.LIB (USB_DGUS)
         COMMENT TYPE 0: C51 V9.59.0.0
  ..\..\lib\lib_dwin\usb.LIB (APP_INTERFACE)
         COMMENT TYPE 0: C51 V9.59.0.0
  ..\..\lib\lib_dwin\usb.LIB (FILE_SYS)
         COMMENT TYPE 0: C51 V9.59.0.0
  ..\..\lib\lib_dwin\uart.LIB (UART)
         COMMENT TYPE 0: C51 V9.59.0.0
  ..\..\lib\lib_dwin\dwin_51.LIB (SYS)
         COMMENT TYPE 0: C51 V9.59.0.0
  ..\..\lib\lib_dwin\dgus_api.LIB (DGUS)
         COMMENT TYPE 0: C51 V9.59.0.0
  D:\SOFT\KEIL5\C51\LIB\C51L.LIB (?C_STARTUP)
         COMMENT TYPE 1: A51 / ASM51 Assembler
  D:\SOFT\KEIL5\C51\LIB\C51L.LIB (?C?CLDPTR)
         COMMENT TYPE 1: A51 / ASM51 Assembler
  D:\SOFT\KEIL5\C51\LIB\C51L.LIB (?C?CLDOPTR)
         COMMENT TYPE 1: A51 / ASM51 Assembler
  D:\SOFT\KEIL5\C51\LIB\C51L.LIB (?C?CILDPTR)
         COMMENT TYPE 1: A51 / ASM51 Assembler
  D:\SOFT\KEIL5\C51\LIB\C51L.LIB (?C?CSTPTR)
         COMMENT TYPE 1: A51 / ASM51 Assembler
  D:\SOFT\KEIL5\C51\LIB\C51L.LIB (?C?CSTOPTR)
         COMMENT TYPE 1: A51 / ASM51 Assembler
  D:\SOFT\KEIL5\C51\LIB\C51L.LIB (?C?UIDIV)
         COMMENT TYPE 1: A51 / ASM51 Assembler
  D:\SOFT\KEIL5\C51\LIB\C51L.LIB (?C?IILDX)
         COMMENT TYPE 1: A51 / ASM51 Assembler
  D:\SOFT\KEIL5\C51\LIB\C51L.LIB (?C?ILDIX)
         COMMENT TYPE 1: A51 / ASM51 Assembler
  D:\SOFT\KEIL5\C51\LIB\C51L.LIB (?C?ILDPTR)
         COMMENT TYPE 1: A51 / ASM51 Assembler
  D:\SOFT\KEIL5\C51\LIB\C51L.LIB (?C?ILDOPTR)
         COMMENT TYPE 1: A51 / ASM51 Assembler
  D:\SOFT\KEIL5\C51\LIB\C51L.LIB (?C?IILDPTR)
         COMMENT TYPE 1: A51 / ASM51 Assembler
  D:\SOFT\KEIL5\C51\LIB\C51L.LIB (?C?ISTPTR)
         COMMENT TYPE 1: A51 / ASM51 Assembler
  D:\SOFT\KEIL5\C51\LIB\C51L.LIB (?C?ISTOPTR)
         COMMENT TYPE 1: A51 / ASM51 Assembler
  D:\SOFT\KEIL5\C51\LIB\C51L.LIB (?C?ULCMP)
         COMMENT TYPE 1: A51 / ASM51 Assembler
  D:\SOFT\KEIL5\C51\LIB\C51L.LIB (?C?ULSHR)
         COMMENT TYPE 1: A51 / ASM51 Assembler
  D:\SOFT\KEIL5\C51\LIB\C51L.LIB (?C?LSHL)
         COMMENT TYPE 1: A51 / ASM51 Assembler
  D:\SOFT\KEIL5\C51\LIB\C51L.LIB (?C?LLDOPTR)
         COMMENT TYPE 1: A51 / ASM51 Assembler
  D:\SOFT\KEIL5\C51\LIB\C51L.LIB (?C?LSTPTR)
         COMMENT TYPE 1: A51 / ASM51 Assembler
  D:\SOFT\KEIL5\C51\LIB\C51L.LIB (?C?LSTOPTR)
LX51 LINKER/LOCATER V4.66.93.0                                                        07/08/2019  20:09:53  PAGE 2


         COMMENT TYPE 1: A51 / ASM51 Assembler
  D:\SOFT\KEIL5\C51\LIB\C51L.LIB (?C?LLDPTR0)
         COMMENT TYPE 1: A51 / ASM51 Assembler
  D:\SOFT\KEIL5\C51\LIB\C51L.LIB (?C?LLDIXDATA)
         COMMENT TYPE 1: A51 / ASM51 Assembler
  D:\SOFT\KEIL5\C51\LIB\C51L.LIB (?C?LSTXDATA)
         COMMENT TYPE 1: A51 / ASM51 Assembler
  D:\SOFT\KEIL5\C51\LIB\C51L.LIB (?C?LSTKXDATA)
         COMMENT TYPE 1: A51 / ASM51 Assembler
  D:\SOFT\KEIL5\C51\LIB\C51L.LIB (?C?LSTKPTR)
         COMMENT TYPE 1: A51 / ASM51 Assembler
  D:\SOFT\KEIL5\C51\LIB\C51L.LIB (?C_XBP)
         COMMENT TYPE 1: A51 / ASM51 Assembler
  D:\SOFT\KEIL5\C51\LIB\C51L.LIB (?C?ADDXBP)
         COMMENT TYPE 1: A51 / ASM51 Assembler
  D:\SOFT\KEIL5\C51\LIB\C51L.LIB (?C?XBPOFF)
         COMMENT TYPE 1: A51 / ASM51 Assembler
  D:\SOFT\KEIL5\C51\LIB\C51L.LIB (PRINTF)
         COMMENT TYPE 1: A51 / ASM51 Assembler
  D:\SOFT\KEIL5\C51\LIB\C51L.LIB (?C?STRCPY)
         COMMENT TYPE 1: A51 / ASM51 Assembler
  D:\SOFT\KEIL5\C51\LIB\C51L.LIB (STRNCPY)
         COMMENT TYPE 1: C51 Compiler
  D:\SOFT\KEIL5\C51\LIB\C51L.LIB (STRLEN)
         COMMENT TYPE 1: A51 / ASM51 Assembler
  D:\SOFT\KEIL5\C51\LIB\C51L.LIB (STRSTR)
         COMMENT TYPE 1: C51 Compiler
  D:\SOFT\KEIL5\C51\LIB\C51L.LIB (?C?MEMSET)
         COMMENT TYPE 1: A51 / ASM51 Assembler
  D:\SOFT\KEIL5\C51\LIB\C51L.LIB (?C_INIT)
         COMMENT TYPE 1: A51 / ASM51 Assembler
  D:\SOFT\KEIL5\C51\LIB\C51L.LIB (?C?LLDIDATA)
         COMMENT TYPE 1: A51 / ASM51 Assembler
  D:\SOFT\KEIL5\C51\LIB\C51L.LIB (?C?LLDXDATA)
         COMMENT TYPE 1: A51 / ASM51 Assembler
  D:\SOFT\KEIL5\C51\LIB\C51L.LIB (?C?LLDPDATA)
         COMMENT TYPE 1: A51 / ASM51 Assembler
  D:\SOFT\KEIL5\C51\LIB\C51L.LIB (?C?LLDCODE)
         COMMENT TYPE 1: A51 / ASM51 Assembler
  D:\SOFT\KEIL5\C51\LIB\C51L.LIB (?C?LLDIDATA0)
         COMMENT TYPE 1: A51 / ASM51 Assembler
  D:\SOFT\KEIL5\C51\LIB\C51L.LIB (?C?LLDXDATA0)
         COMMENT TYPE 1: A51 / ASM51 Assembler
  D:\SOFT\KEIL5\C51\LIB\C51L.LIB (?C?LLDPDATA0)
         COMMENT TYPE 1: A51 / ASM51 Assembler
  D:\SOFT\KEIL5\C51\LIB\C51L.LIB (?C?LLDCODE0)
         COMMENT TYPE 1: A51 / ASM51 Assembler
  D:\SOFT\KEIL5\C51\LIB\C51L.LIB (?C?LSTIDATA)
         COMMENT TYPE 1: A51 / ASM51 Assembler
  D:\SOFT\KEIL5\C51\LIB\C51L.LIB (?C?LSTPDATA)
         COMMENT TYPE 1: A51 / ASM51 Assembler
  D:\SOFT\KEIL5\C51\LIB\C51L.LIB (?C?LSTKIDATA)
         COMMENT TYPE 1: A51 / ASM51 Assembler
  D:\SOFT\KEIL5\C51\LIB\C51L.LIB (?C?LSTKPDATA)
         COMMENT TYPE 1: A51 / ASM51 Assembler
  D:\SOFT\KEIL5\C51\LIB\C51L.LIB (?C?PLDIXDATA)
         COMMENT TYPE 1: A51 / ASM51 Assembler
  D:\SOFT\KEIL5\C51\LIB\C51L.LIB (?C?PSTXDATA)
         COMMENT TYPE 1: A51 / ASM51 Assembler
  D:\SOFT\KEIL5\C51\LIB\C51L.LIB (?C?CCASE)
         COMMENT TYPE 1: A51 / ASM51 Assembler
  D:\SOFT\KEIL5\C51\LIB\C51L.LIB (PUTCHAR)
         COMMENT TYPE 1: A51 / ASM51 Assembler


LX51 LINKER/LOCATER V4.66.93.0                                                        07/08/2019  20:09:53  PAGE 3


ACTIVE MEMORY CLASSES OF MODULE:  .\obj\T5L51 (MAIN)

BASE        START       END         USED      MEMORY CLASS
==========================================================
X:000000H   X:008000H   X:00FFFFH   00362BH   XDATA
X:000000H   X:008000H   X:00FFFFH             HDATA
C:000000H   C:000000H   C:00FFFFH   004680H   CODE
C:000000H   C:000000H   C:00FFFFH   000066H   CONST
I:000000H   I:000000H   I:0000FFH   000001H   IDATA
I:000000H   I:000000H   I:00007FH   00000FH   DATA
I:000020H.0 I:000020H.0 I:00002FH.7 000001H.1 BIT


MEMORY MAP OF MODULE:  .\obj\T5L51 (MAIN)


START     STOP      LENGTH    ALIGN  RELOC    MEMORY CLASS   SEGMENT NAME
=========================================================================

* * * * * * * * * * *   D A T A   M E M O R Y   * * * * * * * * * * * * *
000000H   000007H   000008H   ---    AT..     DATA           "REG BANK 0"
000008H   00000CH   000005H   BYTE   UNIT     DATA           _DATA_GROUP_
00000DH   00000EH   000002H   BYTE   UNIT     DATA           ?C?LIB_DATA
00000FH.0 00001FH.7 000011H.0 ---    ---      **GAP**
000020H.0 000021H.0 000001H.1 BIT    UNIT     BIT            _BIT_GROUP_
000021H.1 000021H   000000H.7 ---    ---      **GAP**
000022H   000022H   000001H   BYTE   UNIT     IDATA          ?STACK

* * * * * * * * * * *   C O D E   M E M O R Y   * * * * * * * * * * * * *
000000H   000002H   000003H   ---    OFFS..   CODE           ?CO??C_STARTUP?0
000003H   00000AH   000008H   BYTE   UNIT     CODE           ?PR?QUERY376INTERRUPT?FILE_SYS
00000BH   00000DH   000003H   BYTE   OFFS..   CODE           ?MAIN?0000B
00000EH   0005A2H   000595H   BYTE   UNIT     CODE           ?C?LIB_CODE
0005A3H   000993H   0003F1H   BYTE   UNIT     CODE           ?PR?MESSEAGESHOW?USB_DGUS
000994H   000D37H   0003A4H   BYTE   UNIT     CODE           ?PR?_WRITEFILE?APP_INTERFACE
000D38H   00109CH   000365H   BYTE   UNIT     CODE           ?PR?PRINTF?PRINTF
00109DH   0013AEH   000312H   BYTE   UNIT     CODE           ?PR?_SYSUPFILESEND?APP_INTERFACE
0013AFH   00166DH   0002BFH   BYTE   UNIT     CODE           ?PR?_READFILE?APP_INTERFACE
00166EH   0018F7H   00028AH   BYTE   UNIT     CODE           ?PR?_SYSUPGETFILEMESG?APP_INTERFACE
0018F8H   001B4EH   000257H   BYTE   UNIT     CODE           ?PR?_SYSUPFILEMATCH?APP_INTERFACE
001B4FH   001D8AH   00023CH   BYTE   UNIT     CODE           ?PR?_CH376SETFILEMESSAGE?FILE_SYS
001D8BH   001FACH   000222H   BYTE   UNIT     CODE           ?PR?ACKREADORWRITEFILE?USB_DGUS
001FADH   0021B5H   000209H   BYTE   UNIT     CODE           ?PR?_CH376GETFILEMESSAGE?FILE_SYS
0021B6H   0023A8H   0001F3H   BYTE   UNIT     CODE           ?PR?ACKSEARCHFILE?USB_DGUS
0023A9H   002569H   0001C1H   BYTE   UNIT     CODE           ?PR?_?SYSTEMUPDRIVER?USB_DGUS
00256AH   002718H   0001AFH   BYTE   UNIT     CODE           ?PR?_READDGUS?DGUS
002719H   0028C6H   0001AEH   BYTE   UNIT     CODE           ?PR?_WRITEDGUS?DGUS
0028C7H   002A68H   0001A2H   BYTE   UNIT     CODE           ?PR?_CH376CREATEFILEORDIR?APP_INTERFACE
002A69H   002BE5H   00017DH   BYTE   UNIT     CODE           ?PR?_CH376MATCHFILE?FILE_SYS
002BE6H   002D4FH   00016AH   BYTE   UNIT     CODE           ?PR?_SYSTEMUPDATE?APP_INTERFACE
002D50H   002EB8H   000169H   BYTE   UNIT     CODE           ?PR?ACKGETORSETPATH?USB_DGUS
002EB9H   003016H   00015EH   BYTE   UNIT     CODE           ?PR?_GETFILEMESSAGE?APP_INTERFACE
003017H   00316CH   000156H   BYTE   UNIT     CODE           ?PR?MAIN?MAIN
00316DH   0032B1H   000145H   BYTE   UNIT     CODE           ?PR?_SETFILEMESSAGE?APP_INTERFACE
0032B2H   0033DEH   00012DH   BYTE   UNIT     CODE           ?PR?_SYSUPPCAKSET?APP_INTERFACE
0033DFH   0034F7H   000119H   BYTE   UNIT     CODE           ?PR?USBMODULE?USB_DGUS
0034F8H   0035FBH   000104H   BYTE   UNIT     CODE           ?PR?_CH376DISKWRITESEC?FILE_SYS
0035FCH   0036FEH   000103H   BYTE   UNIT     CODE           ?PR?_CH376DISKREADSEC?FILE_SYS
0036FFH   0037FDH   0000FFH   BYTE   UNIT     CODE           ?PR?_READDGUSCLIENTSTRING?USB_DGUS
0037FEH   0038E1H   0000E4H   BYTE   UNIT     CODE           ?PR?ACKCREATEORDELPATH?USB_DGUS
0038E2H   0039B3H   0000D2H   BYTE   UNIT     CODE           ?PR?_CH376SECTORWRITE?FILE_SYS
0039B4H   003A85H   0000D2H   BYTE   UNIT     CODE           ?PR?_CH376SECTORREAD?FILE_SYS
003A86H   003B44H   0000BFH   BYTE   UNIT     CODE           ?PR?_STRSTR?STRSTR
003B45H   003BF7H   0000B3H   BYTE   UNIT     CODE           ?PR?_CH376FILEOPENDIR?FILE_SYS
003BF8H   003C8EH   000097H   BYTE   UNIT     CODE           ?PR?_SENDUPPACKTODGUS?APP_INTERFACE
LX51 LINKER/LOCATER V4.66.93.0                                                        07/08/2019  20:09:53  PAGE 4


003C8FH   003D1AH   00008CH   BYTE   UNIT     CODE           ?C_C51STARTUP
003D1BH   003D9EH   000084H   BYTE   UNIT     CODE           ?PR?_NUMBERSTRINGMATCH?APP_INTERFACE
003D9FH   003E21H   000083H   BYTE   UNIT     CODE           ?PR?ACKSYSTEMUP?USB_DGUS
003E22H   003EA1H   000080H   BYTE   UNIT     CODE           ?PR?CH376READ32BITDAT?FILE_SYS
003EA2H   003F20H   00007FH   BYTE   UNIT     CODE           ?PR?_MATCHFILE?APP_INTERFACE
003F21H   003F95H   000075H   BYTE   UNIT     CODE           ?PR?ACKDISKINIT?USB_DGUS
003F96H   003FFFH   00006AH   BYTE   UNIT     CODE           ?PR?_CH376FILEDELETEPATH?FILE_SYS
004000H   004068H   000069H   BYTE   UNIT     CODE           ?PR?_WRITEDGUSCLIENTSTRING?USB_DGUS
004069H   0040D1H   000069H   BYTE   UNIT     CODE           ?PR?_CH376SETFILENAME?FILE_SYS
0040D2H   004139H   000068H   BYTE   UNIT     CODE           ?PR?_STRNCPY?STRNCPY
00413AH   00418FH   000056H   BYTE   UNIT     CODE           ?PR?_CH376WRITEVAR32?FILE_SYS
004190H   0041DFH   000050H   BYTE   UNIT     CODE           ?PR?_CH376READBLOCK?FILE_SYS
0041E0H   004225H   000046H   BYTE   UNIT     CODE           ?PR?_CH376WRITEHOSTBLOCK?FILE_SYS
004226H   004269H   000044H   BYTE   UNIT     CODE           ?PR?_SYSUPGETDWINFILE?APP_INTERFACE
00426AH   0042ACH   000043H   BYTE   UNIT     CODE           ?PR?CHECKIC?APP_INTERFACE
0042ADH   0042EDH   000041H   BYTE   UNIT     CODE           ?PR?_SYSUPWAITOSFINISHREAD?APP_INTERFACE
0042EEH   00432EH   000041H   BYTE   UNIT     CODE           ?PR?_CH376SECLOCATE?FILE_SYS
00432FH   004369H   00003BH   BYTE   UNIT     CODE           ?PR?INIT_CPU?SYS
00436AH   0043A0H   000037H   BYTE   UNIT     CODE           ?PR?T0_ISR_PC?MAIN
0043A1H   0043D6H   000036H   BYTE   UNIT     CODE           ?PR?_CREATEFILEORDIR?APP_INTERFACE
0043D7H   004409H   000033H   BYTE   UNIT     CODE           ?PR?_UART5_SENDSTRING?UART
00440AH   00443AH   000031H   BYTE   UNIT     CODE           ?PR?_COMPAREDGUSREGVALUE?USB_DGUS
00443BH   00446AH   000030H   BYTE   UNIT     CODE           ?PR?_RMFILEORDIR?APP_INTERFACE
00446BH   004494H   00002AH   BYTE   UNIT     CODE           ?PR?CH376GETINTSTATUS?FILE_SYS
004495H   0044BBH   000027H   BYTE   UNIT     CODE           ?PR?WAIT376INTERRUPT?FILE_SYS
0044BCH   0044E2H   000027H   BYTE   UNIT     CODE           ?PR?PUTCHAR?PUTCHAR
0044E3H   004503H   000021H   BYTE   UNIT     CODE           ?PR?_ALPHABETTRANSFROM?FILE_SYS
004504H   004522H   00001FH   BYTE   UNIT     CODE           ?PR?_XWRITECH376CMD?PARA_PORT
004523H   00453FH   00001DH   BYTE   UNIT     CODE           ?PR?_CH376WRITEVAR8?FILE_SYS
004540H   00455CH   00001DH   BYTE   UNIT     CODE           ?PR?_UART5_SENDBYTE?UART
00455DH   004577H   00001BH   BYTE   UNIT     CODE           ?PR?XREADCH376DATA?PARA_PORT
004578H   00458EH   000017H   BYTE   UNIT     CODE           ?PR?_XWRITECH376DATA?PARA_PORT
00458FH   0045A5H   000017H   BYTE   UNIT     CODE           ?PR?_CH376DIRCREATE?FILE_SYS
0045A6H   0045BAH   000015H   BYTE   UNIT     CODE           ?PR?_CH376CLOSEFILE?FILE_SYS
0045BBH   0045CFH   000015H   BYTE   UNIT     CODE           ?PR?_CH376READVAR32?FILE_SYS
0045D0H   0045E4H   000015H   BYTE   UNIT     CODE           ?PR?_STRLEN?STRLEN
0045E5H   0045F5H   000011H   BYTE   UNIT     CODE           ?PR?MDELAY0_5US?PARA_PORT
0045F6H   004604H   00000FH   BYTE   UNIT     CODE           ?PR?CH376_PORT_INIT?PARA_PORT
004605H   004611H   00000DH   BYTE   UNIT     CODE           ?PR?CHECKCONNECT?APP_INTERFACE
004612H   00461EH   00000DH   BYTE   UNIT     CODE           ?PR?CHECKDISKINIT?APP_INTERFACE
00461FH   00462BH   00000DH   BYTE   UNIT     CODE           ?PR?_CH376FILEOPENPATH?FILE_SYS
00462CH   004638H   00000DH   BYTE   UNIT     CODE           ?PR?UART5_INIT?UART
004639H   004640H   000008H   BYTE   UNIT     CODE           ?PR?CH376ERROR?FILE_SYS
004641H   004648H   000008H   BYTE   UNIT     CODE           ?PR?_CH376DELETEFILE?FILE_SYS
004649H   004650H   000008H   BYTE   UNIT     CODE           ?PR?_CH376FILEOPEN?FILE_SYS
004651H   004658H   000008H   BYTE   UNIT     CODE           ?PR?_CH376FILECREATE?FILE_SYS
004659H   00465FH   000007H   BYTE   UNIT     CODE           ?PR?CH376ENDDIRINFO?FILE_SYS
004660H   004665H   000006H   BYTE   UNIT     CODE           ?C_INITSEG
004666H   00466BH   000006H   BYTE   UNIT     CODE           ?PR?_CH376SENDCMDWAITINT?FILE_SYS
00466CH   004670H   000005H   BYTE   UNIT     CODE           ?PR?CH376DISKCONNECT?FILE_SYS
004671H   004675H   000005H   BYTE   UNIT     CODE           ?PR?CH376DISKREQSENSE?FILE_SYS
004676H   00467AH   000005H   BYTE   UNIT     CODE           ?PR?CH376DISKMOUNT?FILE_SYS
00467BH   00467FH   000005H   BYTE   UNIT     CODE           ?PR?CH376GETFILESIZE?FILE_SYS
004680H   0046BCH   00003DH   BYTE   UNIT     CONST          ?CO?APP_INTERFACE
0046BDH   0046E5H   000029H   BYTE   UNIT     CONST          ?CO?USB_DGUS

* * * * * * * * * * *  X D A T A   M E M O R Y  * * * * * * * * * * * * *
008000H   00B5E8H   0035E9H   BYTE   UNIT     XDATA          _XDATA_GROUP_
00B5E9H   00B628H   000040H   BYTE   UNIT     XDATA          ?XD?FILE_SYS
00B629H   00B62AH   000002H   BYTE   UNIT     XDATA          ?XD?MAIN

* * * * * * * * *   R E M O V E D     S E G M E N T S   * * * * * * * *
   *DEL*:           000016H   BYTE   UNIT     CODE           ?PR?XREADCH376STATUS?PARA_PORT
   *DEL*:           00001FH   BYTE   UNIT     CODE           ?PR?DELAY?APP_INTERFACE
   *DEL*:           000095H   BYTE   UNIT     CODE           ?PR?USBINIT?APP_INTERFACE
LX51 LINKER/LOCATER V4.66.93.0                                                        07/08/2019  20:09:53  PAGE 5


   *DEL*:           000002H   BYTE   UNIT     XDATA          ?XD?USBINIT?APP_INTERFACE
   *DEL*:           0000C7H   BYTE   UNIT     CODE           ?PR?_CH376SEPARATEPATH?FILE_SYS
   *DEL*:           000006H   BYTE   UNIT     XDATA          ?XD?_CH376SEPARATEPATH?FILE_SYS
   *DEL*:           00004BH   BYTE   UNIT     CODE           ?PR?_CH376FILECREATEPATH?FILE_SYS
   *DEL*:           000004H   BYTE   UNIT     XDATA          ?XD?_CH376FILECREATEPATH?FILE_SYS
   *DEL*:           000015H   BYTE   UNIT     CODE           ?PR?_CH376READVAR8?FILE_SYS
   *DEL*:           000001H   BYTE   UNIT     XDATA          ?XD?_CH376READVAR8?FILE_SYS
   *DEL*:           000053H   BYTE   UNIT     CODE           ?PR?_CH376WRITE32BITDAT?FILE_SYS
   *DEL*:           000004H   BYTE   UNIT     XDATA          ?XD?_CH376WRITE32BITDAT?FILE_SYS
   *DEL*:           000005H   BYTE   UNIT     CODE           ?PR?CH376GETDISKSTATUS?FILE_SYS
   *DEL*:           0000DAH   BYTE   UNIT     CODE           ?PR?_CH376DISKQUERY?FILE_SYS
   *DEL*:           000008H   BYTE   UNIT     XDATA          ?XD?_CH376DISKQUERY?FILE_SYS
   *DEL*:           00004CH   BYTE   UNIT     CODE           ?PR?_CH376DISKCAPACITY?FILE_SYS
   *DEL*:           000004H   BYTE   UNIT     XDATA          ?XD?_CH376DISKCAPACITY?FILE_SYS
   *DEL*:           000048H   BYTE   UNIT     CODE           ?PR?_CH376WRITEREQBLOCK?FILE_SYS
   *DEL*:           000005H   BYTE   UNIT     XDATA          ?XD?_CH376WRITEREQBLOCK?FILE_SYS
   *DEL*:           00003BH   BYTE   UNIT     CODE           ?PR?_CH376CHECKNAMESUM?FILE_SYS
   *DEL*:           000003H   BYTE   UNIT     XDATA          ?XD?_CH376CHECKNAMESUM?FILE_SYS
   *DEL*:           000060H   BYTE   UNIT     CODE           ?PR?_CH376BYTELOCATE?FILE_SYS
   *DEL*:           000004H   BYTE   UNIT     XDATA          ?XD?_CH376BYTELOCATE?FILE_SYS
   *DEL*:           00009FH   BYTE   UNIT     CODE           ?PR?_CH376BYTEREAD?FILE_SYS
   *DEL*:           000009H   BYTE   UNIT     XDATA          ?XD?_CH376BYTEREAD?FILE_SYS
   *DEL*:           000117H   BYTE   UNIT     CODE           ?PR?_CH376LOCATEINUPDIR?FILE_SYS
   *DEL*:           000004H   BYTE   UNIT     XDATA          ?XD?_CH376LOCATEINUPDIR?FILE_SYS
   *DEL*:           000086H   BYTE   UNIT     CODE           ?PR?_CH376LONGNAMEWRITE?FILE_SYS
   *DEL*:           000006H   BYTE   UNIT     XDATA          ?XD?_CH376LONGNAMEWRITE?FILE_SYS
   *DEL*:           00040FH   BYTE   UNIT     CODE           ?PR?_CH376CREATELONGNAME?FILE_SYS
   *DEL*:           00000FH   BYTE   UNIT     XDATA          ?XD?_CH376CREATELONGNAME?FILE_SYS
   *DEL*:           000002H   BYTE   UNIT     CONST          ?CO?FILE_SYS
   *DEL*:           00007CH   BYTE   UNIT     CODE           ?PR?_SENDSTRING?UART
   *DEL*:           00000BH   BYTE   UNIT     XDATA          ?XD?_SENDSTRING?UART
   *DEL*:           000031H   BYTE   UNIT     CODE           ?PR?_SEND32BYTE?UART
   *DEL*:           000004H   BYTE   UNIT     XDATA          ?XD?_SEND32BYTE?UART



OVERLAY MAP OF MODULE:   .\obj\T5L51 (MAIN)


FUNCTION/MODULE                            BIT_GROUP   DATA_GROUP   XDATA_GROUP
--> CALLED FUNCTION/MODULE                START  STOP  START  STOP  START  STOP
===============================================================================
T0_ISR_PC/MAIN                            ----- -----  ----- -----  ----- -----

*** NEW ROOT ****************************

?C_C51STARTUP                             ----- -----  ----- -----  ----- -----
  +--> MAIN/MAIN
  +--> ?C_INITSEG

MAIN/MAIN                                 ----- -----  ----- -----  8000H 9021H
  +--> INIT_CPU/SYS
  +--> CH376_PORT_INIT/PARA_PORT
  +--> UART5_INIT/UART
  +--> _WRITEDGUS/DGUS
  +--> USBMODULE/USB_DGUS
  +--> MESSEAGESHOW/USB_DGUS

INIT_CPU/SYS                              ----- -----  ----- -----  ----- -----

CH376_PORT_INIT/PARA_PORT                 ----- -----  ----- -----  ----- -----

UART5_INIT/UART                           ----- -----  ----- -----  ----- -----

_WRITEDGUS/DGUS                           ----- -----  ----- -----  A5C1H A5C9H
LX51 LINKER/LOCATER V4.66.93.0                                                        07/08/2019  20:09:53  PAGE 6



USBMODULE/USB_DGUS                        ----- -----  ----- -----  9022H 9022H
  +--> ACKDISKINIT/USB_DGUS
  +--> _COMPAREDGUSREGVALUE/USB_DGUS
  +--> ACKSYSTEMUP/USB_DGUS
  +--> ACKSEARCHFILE/USB_DGUS
  +--> ACKREADORWRITEFILE/USB_DGUS
  +--> ACKCREATEORDELPATH/USB_DGUS
  +--> ACKGETORSETPATH/USB_DGUS

ACKDISKINIT/USB_DGUS                      ----- -----  ----- -----  9023H 9026H
  +--> _READDGUS/DGUS
  +--> CHECKIC/APP_INTERFACE
  +--> CHECKCONNECT/APP_INTERFACE
  +--> CHECKDISKINIT/APP_INTERFACE
  +--> _WRITEDGUS/DGUS

_READDGUS/DGUS                            ----- -----  ----- -----  A5C6H A5CFH

CHECKIC/APP_INTERFACE                     ----- -----  ----- -----  9027H 9027H
  +--> _XWRITECH376CMD/PARA_PORT
  +--> _XWRITECH376DATA/PARA_PORT
  +--> XREADCH376DATA/PARA_PORT

_XWRITECH376CMD/PARA_PORT                 ----- -----  ----- -----  ----- -----
  +--> MDELAY0_5US/PARA_PORT

MDELAY0_5US/PARA_PORT                     ----- -----  ----- -----  ----- -----

_XWRITECH376DATA/PARA_PORT                ----- -----  ----- -----  ----- -----
  +--> MDELAY0_5US/PARA_PORT

XREADCH376DATA/PARA_PORT                  ----- -----  ----- -----  ----- -----
  +--> MDELAY0_5US/PARA_PORT

CHECKCONNECT/APP_INTERFACE                ----- -----  ----- -----  ----- -----
  +--> CH376DISKCONNECT/FILE_SYS

CH376DISKCONNECT/FILE_SYS                 ----- -----  ----- -----  ----- -----
  +--> _CH376SENDCMDWAITINT/FILE_SYS

_CH376SENDCMDWAITINT/FILE_SYS             ----- -----  ----- -----  ----- -----
  +--> _XWRITECH376CMD/PARA_PORT
  +--> WAIT376INTERRUPT/FILE_SYS

WAIT376INTERRUPT/FILE_SYS                 ----- -----  ----- -----  B5E3H B5E6H
  +--> QUERY376INTERRUPT/FILE_SYS
  +--> CH376GETINTSTATUS/FILE_SYS

QUERY376INTERRUPT/FILE_SYS                ----- -----  ----- -----  ----- -----

CH376GETINTSTATUS/FILE_SYS                ----- -----  ----- -----  B5E7H B5E8H
  +--> _XWRITECH376CMD/PARA_PORT
  +--> XREADCH376DATA/PARA_PORT

CHECKDISKINIT/APP_INTERFACE               ----- -----  ----- -----  ----- -----
  +--> CH376DISKMOUNT/FILE_SYS

CH376DISKMOUNT/FILE_SYS                   ----- -----  ----- -----  ----- -----
  +--> _CH376SENDCMDWAITINT/FILE_SYS

_COMPAREDGUSREGVALUE/USB_DGUS             ----- -----  ----- -----  9023H 9028H
  +--> _READDGUS/DGUS

ACKSYSTEMUP/USB_DGUS                      ----- -----  ----- -----  9023H 902DH
LX51 LINKER/LOCATER V4.66.93.0                                                        07/08/2019  20:09:53  PAGE 7


  +--> _READDGUS/DGUS
  +--> _?SYSTEMUPDRIVER/USB_DGUS
  +--> _WRITEDGUS/DGUS

_?SYSTEMUPDRIVER/USB_DGUS                 ----- -----  ----- -----  ----- -----
  +--> _SYSTEMUPDATE/APP_INTERFACE

_SYSTEMUPDATE/APP_INTERFACE               ----- -----  ----- -----  902EH 938BH
  +--> _READDGUS/DGUS
  +--> _SYSUPGETFILEMESG/APP_INTERFACE
  +--> _SYSUPGETDWINFILE/APP_INTERFACE
  +--> _SYSUPFILEMATCH/APP_INTERFACE
  +--> _UART5_SENDSTRING/UART
  +--> _SYSUPFILESEND/APP_INTERFACE

_SYSUPGETFILEMESG/APP_INTERFACE           ----- -----  ----- -----  938CH 9397H
  +--> PRINTF/PRINTF

PRINTF/PRINTF                             20H.0 21H.0  0008H 000CH  939FH 93C6H
  +--> PUTCHAR/PUTCHAR

PUTCHAR/PUTCHAR                           ----- -----  ----- -----  ----- -----

_SYSUPGETDWINFILE/APP_INTERFACE           ----- -----  ----- -----  938CH 938FH
  +--> _CH376MATCHFILE/FILE_SYS

_CH376MATCHFILE/FILE_SYS                  ----- -----  ----- -----  93F2H 9442H
  +--> _CH376FILEOPENPATH/FILE_SYS
  +--> _CH376SETFILENAME/FILE_SYS
  +--> _XWRITECH376CMD/PARA_PORT
  +--> WAIT376INTERRUPT/FILE_SYS
  +--> _CH376READBLOCK/FILE_SYS
  +--> CH376ENDDIRINFO/FILE_SYS

_CH376FILEOPENPATH/FILE_SYS               ----- -----  ----- -----  ----- -----
  +--> _CH376FILEOPENDIR/FILE_SYS

_CH376FILEOPENDIR/FILE_SYS                ----- -----  ----- -----  B2DBH B2DFH
  +--> _CH376FILEOPEN/FILE_SYS

_CH376FILEOPEN/FILE_SYS                   ----- -----  ----- -----  ----- -----
  +--> _CH376SETFILENAME/FILE_SYS
  +--> _CH376SENDCMDWAITINT/FILE_SYS

_CH376SETFILENAME/FILE_SYS                ----- -----  ----- -----  B5E2H B5E5H
  +--> _XWRITECH376CMD/PARA_PORT
  +--> _XWRITECH376DATA/PARA_PORT

_CH376READBLOCK/FILE_SYS                  ----- -----  ----- -----  B2F4H B2F8H
  +--> _XWRITECH376CMD/PARA_PORT
  +--> XREADCH376DATA/PARA_PORT

CH376ENDDIRINFO/FILE_SYS                  ----- -----  ----- -----  ----- -----
  +--> _CH376WRITEVAR8/FILE_SYS

_CH376WRITEVAR8/FILE_SYS                  ----- -----  ----- -----  9443H 9444H
  +--> _XWRITECH376CMD/PARA_PORT
  +--> _XWRITECH376DATA/PARA_PORT

_SYSUPFILEMATCH/APP_INTERFACE             ----- -----  ----- -----  938CH 939EH
  +--> _STRSTR/STRSTR
  +--> _NUMBERSTRINGMATCH/APP_INTERFACE
  +--> PRINTF/PRINTF

_STRSTR/STRSTR                            ----- -----  ----- -----  939FH 93AAH
LX51 LINKER/LOCATER V4.66.93.0                                                        07/08/2019  20:09:53  PAGE 8



_NUMBERSTRINGMATCH/APP_INTERFACE          ----- -----  ----- -----  939FH 93A7H

_UART5_SENDSTRING/UART                    ----- -----  ----- -----  A0BFH A0C1H
  +--> _UART5_SENDBYTE/UART

_UART5_SENDBYTE/UART                      ----- -----  ----- -----  ----- -----

_SYSUPFILESEND/APP_INTERFACE              ----- -----  ----- -----  938CH A5B0H
  +--> _SYSUPPCAKSET/APP_INTERFACE
  +--> _READFILE/APP_INTERFACE
  +--> _SENDUPPACKTODGUS/APP_INTERFACE

_SYSUPPCAKSET/APP_INTERFACE               ----- -----  ----- -----  A5B1H A5BBH

_READFILE/APP_INTERFACE                   ----- -----  ----- -----  A5B1H A5C9H
  +--> _ALPHABETTRANSFROM/FILE_SYS
  +--> _CH376FILEOPENPATH/FILE_SYS
  +--> CH376GETFILESIZE/FILE_SYS
  +--> _CH376SECLOCATE/FILE_SYS
  +--> _CH376SECTORREAD/FILE_SYS
  +--> CH376ERROR/FILE_SYS
  +--> _CH376CLOSEFILE/FILE_SYS

_ALPHABETTRANSFROM/FILE_SYS               ----- -----  ----- -----  ----- -----

CH376GETFILESIZE/FILE_SYS                 ----- -----  ----- -----  ----- -----
  +--> _CH376READVAR32/FILE_SYS

_CH376READVAR32/FILE_SYS                  ----- -----  ----- -----  B2DBH B2DBH
  +--> _XWRITECH376CMD/PARA_PORT
  +--> _XWRITECH376DATA/PARA_PORT
  +--> CH376READ32BITDAT/FILE_SYS

CH376READ32BITDAT/FILE_SYS                ----- -----  ----- -----  B2E8H B2EBH
  +--> XREADCH376DATA/PARA_PORT

_CH376SECLOCATE/FILE_SYS                  ----- -----  ----- -----  B2DBH B2DEH
  +--> _XWRITECH376CMD/PARA_PORT
  +--> _XWRITECH376DATA/PARA_PORT
  +--> WAIT376INTERRUPT/FILE_SYS

_CH376SECTORREAD/FILE_SYS                 ----- -----  ----- -----  B2DBH B2E7H
  +--> _XWRITECH376CMD/PARA_PORT
  +--> _XWRITECH376DATA/PARA_PORT
  +--> WAIT376INTERRUPT/FILE_SYS
  +--> XREADCH376DATA/PARA_PORT
  +--> CH376READ32BITDAT/FILE_SYS
  +--> _CH376DISKREADSEC/FILE_SYS

_CH376DISKREADSEC/FILE_SYS                ----- -----  ----- -----  B2E8H B2F3H
  +--> _XWRITECH376CMD/PARA_PORT
  +--> _XWRITECH376DATA/PARA_PORT
  +--> WAIT376INTERRUPT/FILE_SYS
  +--> _CH376READBLOCK/FILE_SYS
  +--> CH376DISKREQSENSE/FILE_SYS

CH376DISKREQSENSE/FILE_SYS                ----- -----  ----- -----  ----- -----
  +--> _CH376SENDCMDWAITINT/FILE_SYS

CH376ERROR/FILE_SYS                       ----- -----  ----- -----  ----- -----
  +--> _CH376CLOSEFILE/FILE_SYS

_CH376CLOSEFILE/FILE_SYS                  ----- -----  ----- -----  B5E2H B5E2H
  +--> _XWRITECH376CMD/PARA_PORT
LX51 LINKER/LOCATER V4.66.93.0                                                        07/08/2019  20:09:53  PAGE 9


  +--> _XWRITECH376DATA/PARA_PORT
  +--> WAIT376INTERRUPT/FILE_SYS

_SENDUPPACKTODGUS/APP_INTERFACE           ----- -----  ----- -----  A5B1H A5C0H
  +--> _SYSUPWAITOSFINISHREAD/APP_INTERFACE
  +--> _WRITEDGUS/DGUS

_SYSUPWAITOSFINISHREAD/APP_INTERFACE      ----- -----  ----- -----  A5C1H A5C5H
  +--> _READDGUS/DGUS

ACKSEARCHFILE/USB_DGUS                    ----- -----  ----- -----  9023H 93E7H
  +--> _READDGUS/DGUS
  +--> _WRITEDGUS/DGUS
  +--> _READDGUSCLIENTSTRING/USB_DGUS
  +--> _MATCHFILE/APP_INTERFACE

_READDGUSCLIENTSTRING/USB_DGUS            ----- -----  ----- -----  A0BFH A0CDH
  +--> _READDGUS/DGUS
  +--> _STRLEN/STRLEN

_STRLEN/STRLEN                            ----- -----  ----- -----  ----- -----

_MATCHFILE/APP_INTERFACE                  ----- -----  ----- -----  93E8H 93F1H
  +--> _ALPHABETTRANSFROM/FILE_SYS
  +--> _CH376MATCHFILE/FILE_SYS

ACKREADORWRITEFILE/USB_DGUS               ----- -----  ----- -----  9023H A0BEH
  +--> _READDGUS/DGUS
  +--> _READDGUSCLIENTSTRING/USB_DGUS
  +--> _READFILE/APP_INTERFACE
  +--> _UART5_SENDSTRING/UART
  +--> _WRITEDGUSCLIENTSTRING/USB_DGUS
  +--> _WRITEFILE/APP_INTERFACE
  +--> _WRITEDGUS/DGUS

_WRITEDGUSCLIENTSTRING/USB_DGUS           ----- -----  ----- -----  A0BFH A0C7H
  +--> _WRITEDGUS/DGUS

_WRITEFILE/APP_INTERFACE                  ----- -----  ----- -----  A0BFH B2DAH
  +--> _ALPHABETTRANSFROM/FILE_SYS
  +--> _CH376FILEOPENPATH/FILE_SYS
  +--> _CH376CREATEFILEORDIR/APP_INTERFACE
  +--> CH376GETFILESIZE/FILE_SYS
  +--> _CH376SECTORREAD/FILE_SYS
  +--> _CH376SECLOCATE/FILE_SYS
  +--> CH376ERROR/FILE_SYS
  +--> _STRNCPY/STRNCPY
  +--> _CH376SECTORWRITE/FILE_SYS
  +--> _CH376WRITEVAR32/FILE_SYS
  +--> _CH376CLOSEFILE/FILE_SYS

_CH376CREATEFILEORDIR/APP_INTERFACE       ----- -----  ----- -----  B2DBH B5E1H
  +--> _CH376FILEOPEN/FILE_SYS
  +--> _CH376FILECREATE/FILE_SYS
  +--> _CH376DELETEFILE/FILE_SYS
  +--> CH376ERROR/FILE_SYS
  +--> _CH376DIRCREATE/FILE_SYS

_CH376FILECREATE/FILE_SYS                 ----- -----  ----- -----  ----- -----
  +--> _CH376SETFILENAME/FILE_SYS
  +--> _CH376SENDCMDWAITINT/FILE_SYS

_CH376DELETEFILE/FILE_SYS                 ----- -----  ----- -----  ----- -----
  +--> _CH376SETFILENAME/FILE_SYS
  +--> _CH376SENDCMDWAITINT/FILE_SYS
LX51 LINKER/LOCATER V4.66.93.0                                                        07/08/2019  20:09:53  PAGE 10



_CH376DIRCREATE/FILE_SYS                  ----- -----  ----- -----  ----- -----
  +--> _CH376SETFILENAME/FILE_SYS
  +--> _CH376WRITEVAR32/FILE_SYS
  +--> _CH376SENDCMDWAITINT/FILE_SYS

_CH376WRITEVAR32/FILE_SYS                 ----- -----  ----- -----  B5E2H B5E6H
  +--> _XWRITECH376CMD/PARA_PORT
  +--> _XWRITECH376DATA/PARA_PORT

_STRNCPY/STRNCPY                          ----- -----  ----- -----  B2DBH B2E4H

_CH376SECTORWRITE/FILE_SYS                ----- -----  ----- -----  B2DBH B2E7H
  +--> _XWRITECH376CMD/PARA_PORT
  +--> _XWRITECH376DATA/PARA_PORT
  +--> WAIT376INTERRUPT/FILE_SYS
  +--> XREADCH376DATA/PARA_PORT
  +--> CH376READ32BITDAT/FILE_SYS
  +--> _CH376DISKWRITESEC/FILE_SYS

_CH376DISKWRITESEC/FILE_SYS               ----- -----  ----- -----  B2E8H B2F3H
  +--> _XWRITECH376CMD/PARA_PORT
  +--> _XWRITECH376DATA/PARA_PORT
  +--> WAIT376INTERRUPT/FILE_SYS
  +--> _CH376WRITEHOSTBLOCK/FILE_SYS
  +--> CH376DISKREQSENSE/FILE_SYS

_CH376WRITEHOSTBLOCK/FILE_SYS             ----- -----  ----- -----  B2F4H B2F7H
  +--> _XWRITECH376CMD/PARA_PORT
  +--> _XWRITECH376DATA/PARA_PORT

ACKCREATEORDELPATH/USB_DGUS               ----- -----  ----- -----  9023H 90AEH
  +--> _READDGUS/DGUS
  +--> _READDGUSCLIENTSTRING/USB_DGUS
  +--> _CREATEFILEORDIR/APP_INTERFACE
  +--> _RMFILEORDIR/APP_INTERFACE
  +--> _WRITEDGUS/DGUS

_CREATEFILEORDIR/APP_INTERFACE            ----- -----  ----- -----  90AFH 90B2H
  +--> _ALPHABETTRANSFROM/FILE_SYS
  +--> _CH376CREATEFILEORDIR/APP_INTERFACE

_RMFILEORDIR/APP_INTERFACE                ----- -----  ----- -----  90AFH 90B1H
  +--> _ALPHABETTRANSFROM/FILE_SYS
  +--> _CH376FILEDELETEPATH/FILE_SYS

_CH376FILEDELETEPATH/FILE_SYS             ----- -----  ----- -----  90B2H 90B4H
  +--> _CH376FILEOPENPATH/FILE_SYS
  +--> _CH376SETFILENAME/FILE_SYS
  +--> _CH376SENDCMDWAITINT/FILE_SYS

ACKGETORSETPATH/USB_DGUS                  ----- -----  ----- -----  9023H 90BDH
  +--> _READDGUS/DGUS
  +--> _READDGUSCLIENTSTRING/USB_DGUS
  +--> _GETFILEMESSAGE/APP_INTERFACE
  +--> _WRITEDGUS/DGUS
  +--> _SETFILEMESSAGE/APP_INTERFACE

_GETFILEMESSAGE/APP_INTERFACE             ----- -----  ----- -----  90BEH 90EAH
  +--> _ALPHABETTRANSFROM/FILE_SYS
  +--> _CH376GETFILEMESSAGE/FILE_SYS

_CH376GETFILEMESSAGE/FILE_SYS             ----- -----  ----- -----  90EBH 9134H
  +--> _CH376FILEOPENPATH/FILE_SYS
  +--> _XWRITECH376CMD/PARA_PORT
LX51 LINKER/LOCATER V4.66.93.0                                                        07/08/2019  20:09:53  PAGE 11


  +--> _XWRITECH376DATA/PARA_PORT
  +--> WAIT376INTERRUPT/FILE_SYS
  +--> _CH376CLOSEFILE/FILE_SYS
  +--> _CH376READBLOCK/FILE_SYS

_SETFILEMESSAGE/APP_INTERFACE             ----- -----  ----- -----  90BEH 90E9H
  +--> _ALPHABETTRANSFROM/FILE_SYS
  +--> _CH376SETFILEMESSAGE/FILE_SYS

_CH376SETFILEMESSAGE/FILE_SYS             ----- -----  ----- -----  90EAH 9133H
  +--> _CH376FILEOPENPATH/FILE_SYS
  +--> _XWRITECH376CMD/PARA_PORT
  +--> _XWRITECH376DATA/PARA_PORT
  +--> WAIT376INTERRUPT/FILE_SYS
  +--> _CH376CLOSEFILE/FILE_SYS

MESSEAGESHOW/USB_DGUS                     ----- -----  ----- -----  9022H 9056H
  +--> _READDGUS/DGUS
  +--> PRINTF/PRINTF
  +--> _WRITEDGUS/DGUS

?C_INITSEG                                ----- -----  ----- -----  ----- -----



PUBLIC SYMBOLS OF MODULE:  .\obj\T5L51 (MAIN)


      VALUE       CLASS    TYPE      PUBLIC SYMBOL NAME
      =================================================
*DEL*:00000000H   XDATA    BYTE      ?_CH376ByteRead?BYTE
*DEL*:00000000H   XDATA    BYTE      ?_CH376CreateLongName?BYTE
      0200B2E8H   XDATA    BYTE      ?_CH376DiskReadSec?BYTE
      0200B2E8H   XDATA    BYTE      ?_CH376DiskWriteSec?BYTE
      020090EBH   XDATA    BYTE      ?_CH376GetFileMessage?BYTE
      020093F2H   XDATA    BYTE      ?_CH376MatchFile?BYTE
      0200B2DBH   XDATA    BYTE      ?_CH376SectorRead?BYTE
      0200B2DBH   XDATA    BYTE      ?_CH376SectorWrite?BYTE
      020090EAH   XDATA    BYTE      ?_CH376SetFileMessage?BYTE
      0200B5E2H   XDATA    BYTE      ?_CH376WriteVar32?BYTE
      02009023H   XDATA    BYTE      ?_CompareDgusRegValue?BYTE
      020090BEH   XDATA    BYTE      ?_GetFileMessage?BYTE
      020093E8H   XDATA    BYTE      ?_MatchFile?BYTE
      0200939FH   XDATA    BYTE      ?_NumberStringMatch?BYTE
      0200939FH   XDATA    ---       ?_PRINTF517?BYTE
      0200939FH   XDATA    ---       ?_PRINTF?BYTE
      0200A5C6H   XDATA    BYTE      ?_ReadDGUS?BYTE
      0200A0BFH   XDATA    BYTE      ?_ReadDgusClientString?BYTE
      0200A5B1H   XDATA    BYTE      ?_ReadFile?BYTE
      0200A5B1H   XDATA    BYTE      ?_SendUpPackToDGUS?BYTE
      020090BEH   XDATA    BYTE      ?_SetFileMessage?BYTE
      0200939FH   XDATA    ---       ?_SPRINTF517?BYTE
      0200939FH   XDATA    ---       ?_SPRINTF?BYTE
      0200B2DBH   XDATA    ---       ?_strncpy?BYTE
      0200939FH   XDATA    ---       ?_strstr?BYTE
      0200938CH   XDATA    BYTE      ?_SysUpFileMatch?BYTE
      0200938CH   XDATA    BYTE      ?_SysUpFileSend?BYTE
      0200938CH   XDATA    BYTE      ?_SysUpGetFileMesg?BYTE
      0200A5B1H   XDATA    BYTE      ?_SysUpPcakSet?BYTE
      0200A5C1H   XDATA    BYTE      ?_WriteDGUS?BYTE
      0200A0BFH   XDATA    BYTE      ?_WriteDgusClientString?BYTE
      0200A0BFH   XDATA    BYTE      ?_WriteFile?BYTE
      01000363H   CODE     ---       ?C?ADDXBP
      0100057DH   CODE     ---       ?C?CCASE
      01000054H   CODE     ---       ?C?CILDPTR
LX51 LINKER/LOCATER V4.66.93.0                                                        07/08/2019  20:09:53  PAGE 12


      01000027H   CODE     ---       ?C?CLDOPTR
      0100000EH   CODE     ---       ?C?CLDPTR
      00000000H   NUMBER   ---       ?C?CODESEG
      01000088H   CODE     ---       ?C?CSTOPTR
      01000076H   CODE     ---       ?C?CSTPTR
      0100018EH   CODE     ---       ?C?IILDPTR
      010000FFH   CODE     ---       ?C?IILDX
      01000115H   CODE     ---       ?C?ILDIX
      01000156H   CODE     ---       ?C?ILDOPTR
      0100012BH   CODE     ---       ?C?ILDPTR
      010001E5H   CODE     ---       ?C?ISTOPTR
      010001C6H   CODE     ---       ?C?ISTPTR
      010004CDH   CODE     ---       ?C?LLDCODE
      01000503H   CODE     ---       ?C?LLDCODE0
      010004A9H   CODE     ---       ?C?LLDIDATA
      010004DDH   CODE     ---       ?C?LLDIDATA0
      010002E0H   CODE     ---       ?C?LLDIXDATA
      010002D7H   CODE     ---       ?C?LLDIXDATA1
      010002D9H   CODE     ---       ?C?LLDIXDATA8
      01000249H   CODE     ---       ?C?LLDOPTR
      010004C1H   CODE     ---       ?C?LLDPDATA
      010004F6H   CODE     ---       ?C?LLDPDATA0
      010002B7H   CODE     ---       ?C?LLDPTR0
      010004B5H   CODE     ---       ?C?LLDXDATA
      010004EAH   CODE     ---       ?C?LLDXDATA0
      01000236H   CODE     ---       ?C?LSHL
      01000513H   CODE     ---       ?C?LSTIDATA
      0100052BH   CODE     ---       ?C?LSTKIDATA
      01000544H   CODE     ---       ?C?LSTKPDATA
      01000349H   CODE     ---       ?C?LSTKPTR
      01000318H   CODE     ---       ?C?LSTKXDATA
      01000293H   CODE     ---       ?C?LSTOPTR
      0100051FH   CODE     ---       ?C?LSTPDATA
      01000279H   CODE     ---       ?C?LSTPTR
      0100030CH   CODE     ---       ?C?LSTXDATA
      0100047DH   CODE     ---       ?C?MEMSET
      0100055DH   CODE     ---       ?C?PLDIXDATA
      01000574H   CODE     ---       ?C?PSTXDATA
      01000460H   CODE     ---       ?C?STRCPY
      010000AAH   CODE     ---       ?C?UIDIV
      01000212H   CODE     ---       ?C?ULCMP
      01000223H   CODE     ---       ?C?ULSHR
      01000387H   CODE     ---       ?C?XBPOFF
      00000000H   NUMBER   ---       ?C?XDATASEG
      01003CD6H   CODE     ---       ?C_START
      01000000H   CODE     ---       ?C_STARTUP
      0000000DH   DATA     ---       ?C_XBP
      010023B5H   CODE     ---       _?SystemUpDriver
      010044E3H   CODE     ---       _AlphabetTransfrom
*DEL*:0000000EH   CODE     ---       _CH376ByteLocate
*DEL*:00000018H   CODE     ---       _CH376ByteRead
*DEL*:00000000H   CODE     ---       _CH376CheckNameSum
      010045A6H   CODE     ---       _CH376CloseFile
      010028C7H   CODE     ---       _CH376CreateFileOrDir
*DEL*:00000000H   CODE     ---       _CH376CreateLongName
      01004641H   CODE     ---       _CH376DeleteFile
      0100458FH   CODE     ---       _CH376DirCreate
*DEL*:00000000H   CODE     ---       _CH376DiskCapacity
*DEL*:00000000H   CODE     ---       _CH376DiskQuery
      010035FCH   CODE     ---       _CH376DiskReadSec
      010034F8H   CODE     ---       _CH376DiskWriteSec
      01004651H   CODE     ---       _CH376FileCreate
*DEL*:00000000H   CODE     ---       _CH376FileCreatePath
      01003F96H   CODE     ---       _CH376FileDeletePath
      01004649H   CODE     ---       _CH376FileOpen
LX51 LINKER/LOCATER V4.66.93.0                                                        07/08/2019  20:09:53  PAGE 13


      01003B50H   CODE     ---       _CH376FileOpenDir
      01004627H   CODE     ---       _CH376FileOpenPath
      01001FADH   CODE     ---       _CH376GetFileMessage
*DEL*:00000000H   CODE     ---       _CH376LocateInUpDir
*DEL*:0000000AH   CODE     ---       _CH376LongNameWrite
      01002A69H   CODE     ---       _CH376MatchFile
      01004198H   CODE     ---       _CH376ReadBlock
      010045BBH   CODE     ---       _CH376ReadVar32
*DEL*:00000000H   CODE     ---       _CH376ReadVar8
      010042EEH   CODE     ---       _CH376SecLocate
      010039B4H   CODE     ---       _CH376SectorRead
      010038E2H   CODE     ---       _CH376SectorWrite
      01004666H   CODE     ---       _CH376SendCmdWaitInt
*DEL*:00000000H   CODE     ---       _CH376SeparatePath
      01001B4FH   CODE     ---       _CH376SetFileMessage
      01004071H   CODE     ---       _CH376SetFileName
*DEL*:00000000H   CODE     ---       _CH376Write32bitDat
      010041E0H   CODE     ---       _CH376WriteHostBlock
*DEL*:00000000H   CODE     ---       _CH376WriteReqBlock
      0100413AH   CODE     ---       _CH376WriteVar32
      01004523H   CODE     ---       _CH376WriteVar8
      01004416H   CODE     ---       _CompareDgusRegValue
      010043A1H   CODE     ---       _CreateFileOrDir
      01002EB9H   CODE     ---       _GetFileMessage
      01003EA2H   CODE     ---       _MatchFile
      01003D1BH   CODE     ---       _NumberStringMatch
      01000DA3H   CODE     ---       _PRINTF
      01000DA3H   CODE     ---       _PRINTF517
      010044BCH   CODE     ---       _PUTCHAR
      0100256AH   CODE     ---       _ReadDGUS
      010036FFH   CODE     ---       _ReadDgusClientString
      010013BAH   CODE     ---       _ReadFile
      0100443BH   CODE     ---       _RmFileOrDir
*DEL*:00000000H   CODE     ---       _Send32Byte
*DEL*:00000000H   CODE     ---       _SendString
      01003BF8H   CODE     ---       _SendUpPackToDGUS
      0100316DH   CODE     ---       _SetFileMessage
      01000D9DH   CODE     ---       _SPRINTF
      01000D9DH   CODE     ---       _SPRINTF517
      010045D0H   CODE     ---       _STRLEN
      010040D2H   CODE     ---       _strncpy
      01003A86H   CODE     ---       _strstr
      01002BE6H   CODE     ---       _SystemUpdate
      010018F8H   CODE     ---       _SysUpFileMatch
      0100109DH   CODE     ---       _SysUpFileSend
      01004226H   CODE     ---       _SysUpGetDWINFile
      0100166EH   CODE     ---       _SysUpGetFileMesg
      010032C0H   CODE     ---       _SysUpPcakSet
      010042BBH   CODE     ---       _SysUpWaitOsFinishRead
      01004551H   CODE     ---       _UART5_Sendbyte
      010043D7H   CODE     ---       _UART5_SendString
      01002719H   CODE     ---       _WriteDGUS
      01004000H   CODE     ---       _WriteDgusClientString
      01000994H   CODE     ---       _WriteFile
      01004504H   CODE     ---       _xWriteCH376Cmd
      01004578H   CODE     ---       _xWriteCH376Data
*SFR* 000000D0H.6 DATA     BIT       AC
*SFR* 000000E0H   DATA     BYTE      ACC
      010037FEH   CODE     ---       AckCreateOrDelPath
      01003F21H   CODE     ---       AckDiskInit
      01002D50H   CODE     ---       AckGetOrSetPath
      01001D8BH   CODE     ---       AckReadOrWriteFile
      010021B6H   CODE     ---       AckSearchFile
      01003D9FH   CODE     ---       AckSystemUp
*SFR* 000000D8H   DATA     BYTE      ADCON
LX51 LINKER/LOCATER V4.66.93.0                                                        07/08/2019  20:09:53  PAGE 14


*SFR* 000000F1H   DATA     BYTE      ADR_H
*SFR* 000000F4H   DATA     BYTE      ADR_INC
*SFR* 000000F3H   DATA     BYTE      ADR_L
*SFR* 000000F2H   DATA     BYTE      ADR_M
*SFR* 000000F8H.4 DATA     BIT       APP_ACK
*SFR* 000000F8H.6 DATA     BIT       APP_EN
*SFR* 000000F8H.7 DATA     BIT       APP_REQ
*SFR* 000000F8H.5 DATA     BIT       APP_RW
*SFR* 000000F0H   DATA     BYTE      B
*SFR* 000000D9H   DATA     BYTE      BODE2_DIV_H
*SFR* 000000E7H   DATA     BYTE      BODE2_DIV_L
*SFR* 000000AEH   DATA     BYTE      BODE3_DIV_H
*SFR* 000000AFH   DATA     BYTE      BODE3_DIV_L
*SFR* 0000008FH   DATA     BYTE      CAN_CR
*SFR* 000000E8H   DATA     BYTE      CAN_ET
*SFR* 00000091H   DATA     BYTE      CAN_IR
*SFR* 00000090H.0 DATA     BIT       CH376_A0
*SFR* 00000090H.1 DATA     BIT       CH376_CS
*SFR* 00000090H.4 DATA     BIT       CH376_INT_WIRE
      010045F6H   CODE     ---       CH376_PORT_INIT
*SFR* 00000090H.3 DATA     BIT       CH376_RD
*SFR* 00000090H.2 DATA     BIT       CH376_WR
      0100466CH   CODE     ---       CH376DiskConnect
      01004676H   CODE     ---       CH376DiskMount
      01004671H   CODE     ---       CH376DiskReqSense
      01004659H   CODE     ---       CH376EndDirInfo
      01004639H   CODE     ---       CH376Error
*DEL*:00000000H   CODE     ---       CH376GetDiskStatus
      0100467BH   CODE     ---       CH376GetFileSize
      0100446BH   CODE     ---       CH376GetIntStatus
      01003E22H   CODE     ---       CH376Read32bitDat
      01004605H   CODE     ---       CheckConnect
      01004612H   CODE     ---       CheckDiskInit
      0100426AH   CODE     ---       CheckIC
*SFR* 0000008EH   DATA     BYTE      CKCON
*SFR* 000000D0H.7 DATA     BIT       CY
*SFR* 00000095H   DATA     BYTE      D_PAGESEL
*SFR* 000000FDH   DATA     BYTE      DATA0
*SFR* 000000FCH   DATA     BYTE      DATA1
*SFR* 000000FBH   DATA     BYTE      DATA2
*SFR* 000000FAH   DATA     BYTE      DATA3
*DEL*:00000000H   CODE     ---       Delay
*SFR* 000000E6H   DATA     BYTE      DIV_MODE
*SFR* 00000093H   DATA     BYTE      DPC
*SFR* 00000083H   DATA     BYTE      DPH
*SFR* 00000082H   DATA     BYTE      DPL
*SFR* 000000A8H.7 DATA     BIT       EA
*SFR* 000000B8H.1 DATA     BIT       ECAN
*SFR* 000000A8H.4 DATA     BIT       ES0
*SFR* 000000B8H.3 DATA     BIT       ES2R
*SFR* 000000B8H.2 DATA     BIT       ES2T
*SFR* 000000B8H.5 DATA     BIT       ES3R
*SFR* 000000B8H.4 DATA     BIT       ES3T
*SFR* 000000A8H.1 DATA     BIT       ET0
*SFR* 000000A8H.3 DATA     BIT       ET1
*SFR* 000000A8H.5 DATA     BIT       ET2
*SFR* 000000A8H.0 DATA     BIT       EX0
*SFR* 000000A8H.2 DATA     BIT       EX1
*SFR* 000000FEH   DATA     BYTE      EXADR
*SFR* 000000FFH   DATA     BYTE      EXDATA
*SFR* 000000D0H.5 DATA     BIT       F0
*SFR* 000000D0H.1 DATA     BIT       F1
      0200B5E9H   XDATA    ---       GlobalBuf
*SFR* 00000088H.1 DATA     BIT       IE0
*SFR* 00000088H.3 DATA     BIT       IE1
LX51 LINKER/LOCATER V4.66.93.0                                                        07/08/2019  20:09:53  PAGE 15


*SFR* 000000A8H   DATA     BYTE      IEN0
*SFR* 000000B8H   DATA     BYTE      IEN1
*SFR* 0000009AH   DATA     BYTE      IEN2
*SFR* 000000D1H   DATA     BYTE      IEN3
      0100432FH   CODE     ---       INIT_CPU
*SFR* 000000A9H   DATA     BYTE      IP0
*SFR* 000000B9H   DATA     BYTE      IP1
*SFR* 000000C0H   DATA     BYTE      IRCON
*SFR* 000000BFH   DATA     BYTE      IRCON2
*SFR* 00000088H.0 DATA     BIT       IT0
*SFR* 00000088H.2 DATA     BIT       IT1
*SFR* 000000E5H   DATA     BYTE      MAC_MODE
      01003017H   CODE     ---       main
      010045E5H   CODE     ---       mDelay0_5uS
      010005A3H   CODE     ---       MesseageShow
*SFR* 000000C9H   DATA     BYTE      MUX_SEL
*SFR* 000000D0H.2 DATA     BIT       OV
*SFR* 000000D0H.0 DATA     BIT       P
*SFR* 00000080H   DATA     BYTE      P0
*SFR* 000000B7H   DATA     BYTE      P0MDOUT
*SFR* 00000090H   DATA     BYTE      P1
*SFR* 000000BCH   DATA     BYTE      P1MDOUT
*SFR* 000000A0H   DATA     BYTE      P2
*SFR* 000000BDH   DATA     BYTE      P2MDOUT
*SFR* 000000B0H   DATA     BYTE      P3
*SFR* 000000BEH   DATA     BYTE      P3MDOUT
*SFR* 00000094H   DATA     BYTE      PAGESEL
*SFR* 00000087H   DATA     BYTE      PCON
*SFR* 000000F9H   DATA     BYTE      PORTDRV
*SFR* 000000D0H   DATA     BYTE      PSW
      01000003H   CODE     ---       Query376Interrupt
*SFR* 000000F8H   DATA     BYTE      RAMMODE
*SFR* 00000098H.0 DATA     BIT       RI0
*SFR* 000000D0H.3 DATA     BIT       RS0
*SFR* 000000D0H.4 DATA     BIT       RS1
*SFR* 00000099H   DATA     BYTE      SBUF0
*SFR* 0000009CH   DATA     BYTE      SBUF1
*SFR* 0000009FH   DATA     BYTE      SBUF2_RX
*SFR* 0000009EH   DATA     BYTE      SBUF2_TX
*SFR* 000000ADH   DATA     BYTE      SBUF3_RX
*SFR* 000000ACH   DATA     BYTE      SBUF3_TX
*SFR* 00000098H   DATA     BYTE      SCON0
*SFR* 0000009BH   DATA     BYTE      SCON1
*SFR* 00000097H   DATA     BYTE      SCON2R
*SFR* 00000096H   DATA     BYTE      SCON2T
*SFR* 000000ABH   DATA     BYTE      SCON3R
*SFR* 000000A7H   DATA     BYTE      SCON3T
*SFR* 00000081H   DATA     BYTE      SP
*SFR* 000000BAH   DATA     BYTE      SREL0H
*SFR* 000000AAH   DATA     BYTE      SREL0L
*SFR* 000000BBH   DATA     BYTE      SREL1H
*SFR* 0000009DH   DATA     BYTE      SREL1L
      0100436AH   CODE     ---       T0_ISR_PC
*SFR* 000000C8H   DATA     BYTE      T2CON
*SFR* 00000088H   DATA     BYTE      TCON
*SFR* 00000088H.5 DATA     BIT       TF0
*SFR* 00000088H.7 DATA     BIT       TF1
*SFR* 000000C0H.6 DATA     BIT       TF2
*SFR* 0000008CH   DATA     BYTE      TH0
*SFR* 0000008DH   DATA     BYTE      TH1
*SFR* 000000CDH   DATA     BYTE      TH2
*SFR* 00000098H.1 DATA     BIT       TI0
      0200B629H   XDATA    WORD      TIMES
*SFR* 0000008AH   DATA     BYTE      TL0
*SFR* 0000008BH   DATA     BYTE      TL1
LX51 LINKER/LOCATER V4.66.93.0                                                        07/08/2019  20:09:53  PAGE 16


*SFR* 000000CCH   DATA     BYTE      TL2
*SFR* 00000089H   DATA     BYTE      TMOD
*SFR* 00000088H.4 DATA     BIT       TR0
*SFR* 00000088H.6 DATA     BIT       TR1
*SFR* 000000C8H.0 DATA     BIT       TR2
*SFR* 000000CBH   DATA     BYTE      TRL2H
*SFR* 000000CAH   DATA     BYTE      TRL2L
      0100462CH   CODE     ---       UART5_Init
*DEL*:00000000H   CODE     ---       USBInit
      010033DFH   CODE     ---       USBModule
      01004495H   CODE     ---       Wait376Interrupt
      0100455DH   CODE     ---       xReadCH376Data
*DEL*:00000000H   CODE     ---       xReadCH376Status



SYMBOL TABLE OF MODULE:  .\obj\T5L51 (MAIN)

      VALUE       REP       CLASS    TYPE      SYMBOL NAME
      ====================================================
      ---         MODULE    ---      ---       MAIN
      0200B629H   PUBLIC    XDATA    WORD      TIMES
      0100436AH   PUBLIC    CODE     ---       T0_ISR_PC
      01003017H   PUBLIC    CODE     ---       main
      000000F1H   SFRSYM    DATA     BYTE      ADR_H
      00000080H   SFRSYM    DATA     BYTE      P0
      00000090H   SFRSYM    DATA     BYTE      P1
      000000A0H   SFRSYM    DATA     BYTE      P2
      000000B0H   SFRSYM    DATA     BYTE      P3
      000000F3H   SFRSYM    DATA     BYTE      ADR_L
      000000D0H.6 SFRSYM    DATA     BIT       AC
      00000094H   SFRSYM    DATA     BYTE      PAGESEL
      000000F2H   SFRSYM    DATA     BYTE      ADR_M
      000000A8H.7 SFRSYM    DATA     BIT       EA
      000000F8H   SFRSYM    DATA     BYTE      RAMMODE
      000000B7H   SFRSYM    DATA     BYTE      P0MDOUT
      000000BCH   SFRSYM    DATA     BYTE      P1MDOUT
      000000A8H   SFRSYM    DATA     BYTE      IEN0
      000000BDH   SFRSYM    DATA     BYTE      P2MDOUT
      000000B8H   SFRSYM    DATA     BYTE      IEN1
      000000BEH   SFRSYM    DATA     BYTE      P3MDOUT
      0000009AH   SFRSYM    DATA     BYTE      IEN2
      000000D1H   SFRSYM    DATA     BYTE      IEN3
      00000090H.4 SFRSYM    DATA     BIT       CH376_INT_WIRE
      000000F8H.4 SFRSYM    DATA     BIT       APP_ACK
      000000F4H   SFRSYM    DATA     BYTE      ADR_INC
      000000B8H.1 SFRSYM    DATA     BIT       ECAN
      000000D0H.7 SFRSYM    DATA     BIT       CY
      000000B8H.3 SFRSYM    DATA     BIT       ES2R
      000000B8H.5 SFRSYM    DATA     BIT       ES3R
      000000B8H.2 SFRSYM    DATA     BIT       ES2T
      000000B8H.4 SFRSYM    DATA     BIT       ES3T
      00000090H.3 SFRSYM    DATA     BIT       CH376_RD
      00000090H.1 SFRSYM    DATA     BIT       CH376_CS
      00000081H   SFRSYM    DATA     BYTE      SP
      000000D0H.2 SFRSYM    DATA     BIT       OV
      00000095H   SFRSYM    DATA     BYTE      D_PAGESEL
      000000F8H.7 SFRSYM    DATA     BIT       APP_REQ
      000000BFH   SFRSYM    DATA     BYTE      IRCON2
      000000BAH   SFRSYM    DATA     BYTE      SREL0H
      000000BBH   SFRSYM    DATA     BYTE      SREL1H
      00000087H   SFRSYM    DATA     BYTE      PCON
      000000F9H   SFRSYM    DATA     BYTE      PORTDRV
      000000AAH   SFRSYM    DATA     BYTE      SREL0L
      0000009DH   SFRSYM    DATA     BYTE      SREL1L
LX51 LINKER/LOCATER V4.66.93.0                                                        07/08/2019  20:09:53  PAGE 17


      00000089H   SFRSYM    DATA     BYTE      TMOD
      00000088H   SFRSYM    DATA     BYTE      TCON
      00000090H.2 SFRSYM    DATA     BIT       CH376_WR
      000000FFH   SFRSYM    DATA     BYTE      EXDATA
      00000097H   SFRSYM    DATA     BYTE      SCON2R
      000000ABH   SFRSYM    DATA     BYTE      SCON3R
      000000D9H   SFRSYM    DATA     BYTE      BODE2_DIV_H
      000000AEH   SFRSYM    DATA     BYTE      BODE3_DIV_H
      00000096H   SFRSYM    DATA     BYTE      SCON2T
      000000A7H   SFRSYM    DATA     BYTE      SCON3T
      000000E7H   SFRSYM    DATA     BYTE      BODE2_DIV_L
      00000088H.1 SFRSYM    DATA     BIT       IE0
      000000AFH   SFRSYM    DATA     BYTE      BODE3_DIV_L
      00000088H.3 SFRSYM    DATA     BIT       IE1
      000000C9H   SFRSYM    DATA     BYTE      MUX_SEL
      000000F0H   SFRSYM    DATA     BYTE      B
      000000E0H   SFRSYM    DATA     BYTE      ACC
      0000008FH   SFRSYM    DATA     BYTE      CAN_CR
      000000A8H.4 SFRSYM    DATA     BIT       ES0
      000000A9H   SFRSYM    DATA     BYTE      IP0
      000000A8H.1 SFRSYM    DATA     BIT       ET0
      000000B9H   SFRSYM    DATA     BYTE      IP1
      000000A8H.3 SFRSYM    DATA     BIT       ET1
      00000088H.5 SFRSYM    DATA     BIT       TF0
      000000FDH   SFRSYM    DATA     BYTE      DATA0
      000000A8H.5 SFRSYM    DATA     BIT       ET2
      00000098H.0 SFRSYM    DATA     BIT       RI0
      00000088H.7 SFRSYM    DATA     BIT       TF1
      000000E8H   SFRSYM    DATA     BYTE      CAN_ET
      000000FCH   SFRSYM    DATA     BYTE      DATA1
      000000C0H.6 SFRSYM    DATA     BIT       TF2
      0000008CH   SFRSYM    DATA     BYTE      TH0
      000000FBH   SFRSYM    DATA     BYTE      DATA2
      000000A8H.0 SFRSYM    DATA     BIT       EX0
      00000098H.1 SFRSYM    DATA     BIT       TI0
      0000008DH   SFRSYM    DATA     BYTE      TH1
      00000088H.0 SFRSYM    DATA     BIT       IT0
      00000091H   SFRSYM    DATA     BYTE      CAN_IR
      000000FAH   SFRSYM    DATA     BYTE      DATA3
      000000CDH   SFRSYM    DATA     BYTE      TH2
      000000A8H.2 SFRSYM    DATA     BIT       EX1
      00000088H.2 SFRSYM    DATA     BIT       IT1
      000000D0H.0 SFRSYM    DATA     BIT       P
      0000008AH   SFRSYM    DATA     BYTE      TL0
      0000008BH   SFRSYM    DATA     BYTE      TL1
      000000CCH   SFRSYM    DATA     BYTE      TL2
      000000F8H.6 SFRSYM    DATA     BIT       APP_EN
      000000D0H.3 SFRSYM    DATA     BIT       RS0
      000000D0H.4 SFRSYM    DATA     BIT       RS1
      00000088H.4 SFRSYM    DATA     BIT       TR0
      00000093H   SFRSYM    DATA     BYTE      DPC
      00000088H.6 SFRSYM    DATA     BIT       TR1
      000000E5H   SFRSYM    DATA     BYTE      MAC_MODE
      000000C8H.0 SFRSYM    DATA     BIT       TR2
      00000083H   SFRSYM    DATA     BYTE      DPH
      00000082H   SFRSYM    DATA     BYTE      DPL
      00000099H   SFRSYM    DATA     BYTE      SBUF0
      0000009CH   SFRSYM    DATA     BYTE      SBUF1
      00000098H   SFRSYM    DATA     BYTE      SCON0
      0000009BH   SFRSYM    DATA     BYTE      SCON1
      000000D8H   SFRSYM    DATA     BYTE      ADCON
      000000C8H   SFRSYM    DATA     BYTE      T2CON
      000000E6H   SFRSYM    DATA     BYTE      DIV_MODE
      000000F8H.5 SFRSYM    DATA     BIT       APP_RW
      000000CBH   SFRSYM    DATA     BYTE      TRL2H
LX51 LINKER/LOCATER V4.66.93.0                                                        07/08/2019  20:09:53  PAGE 18


      0000009FH   SFRSYM    DATA     BYTE      SBUF2_RX
      000000ADH   SFRSYM    DATA     BYTE      SBUF3_RX
      0000008EH   SFRSYM    DATA     BYTE      CKCON
      0000009EH   SFRSYM    DATA     BYTE      SBUF2_TX
      000000ACH   SFRSYM    DATA     BYTE      SBUF3_TX
      000000CAH   SFRSYM    DATA     BYTE      TRL2L
      000000FEH   SFRSYM    DATA     BYTE      EXADR
      000000D0H.5 SFRSYM    DATA     BIT       F0
      000000D0H.1 SFRSYM    DATA     BIT       F1
      000000D0H   SFRSYM    DATA     BYTE      PSW
      000000C0H   SFRSYM    DATA     BYTE      IRCON
      00000090H.0 SFRSYM    DATA     BIT       CH376_A0

      01003017H   BLOCK     CODE     ---       LVL=0
      01003017H   BLOCK     CODE     NEAR LAB  LVL=1
      02008000H   SYMBOL    XDATA    BYTE      j
      02008001H   SYMBOL    XDATA    DWORD     i
      02008005H   SYMBOL    XDATA    ---       pCOUNT
      02008008H   SYMBOL    XDATA    DWORD     Addr
      0200800CH   SYMBOL    XDATA    WORD      Size
      0200800EH   SYMBOL    XDATA    DWORD     Buf_Size
      02008012H   SYMBOL    XDATA    ---       filename
      02009012H   SYMBOL    XDATA    ---       Cmd
      ---         BLOCKEND  ---      ---       LVL=1
      01003017H   LINE      CODE     ---       #22
      01003017H   LINE      CODE     ---       #23
      01003017H   LINE      CODE     ---       #24
      0100301CH   LINE      CODE     ---       #25
      01003024H   LINE      CODE     ---       #26
      0100302DH   LINE      CODE     ---       #27
      01003035H   LINE      CODE     ---       #28
      0100303CH   LINE      CODE     ---       #30
      01003044H   LINE      CODE     ---       #33
      01003047H   LINE      CODE     ---       #34
      0100304AH   LINE      CODE     ---       #35
      0100304DH   LINE      CODE     ---       #36
      0100305CH   LINE      CODE     ---       #37
      0100306BH   LINE      CODE     ---       #39
      01003071H   LINE      CODE     ---       #40
      01003075H   LINE      CODE     ---       #41
      01003078H   LINE      CODE     ---       #42
      01003091H   LINE      CODE     ---       #44
      01003097H   LINE      CODE     ---       #45
      010030B1H   LINE      CODE     ---       #46
      010030B7H   LINE      CODE     ---       #47
      010030BAH   LINE      CODE     ---       #48
      010030BEH   LINE      CODE     ---       #49
      010030C2H   LINE      CODE     ---       #50
      010030C6H   LINE      CODE     ---       #51
      010030CAH   LINE      CODE     ---       #52
      010030E4H   LINE      CODE     ---       #54
      010030EAH   LINE      CODE     ---       #55
      010030EDH   LINE      CODE     ---       #56
      010030F1H   LINE      CODE     ---       #57
      010030F4H   LINE      CODE     ---       #58
      010030F6H   LINE      CODE     ---       #59
      010030F8H   LINE      CODE     ---       #60
      010030FAH   LINE      CODE     ---       #61
      010030FEH   LINE      CODE     ---       #62
      01003101H   LINE      CODE     ---       #63
      0100311AH   LINE      CODE     ---       #65
      01003120H   LINE      CODE     ---       #66
      01003123H   LINE      CODE     ---       #67
      01003127H   LINE      CODE     ---       #68
      0100312BH   LINE      CODE     ---       #69
LX51 LINKER/LOCATER V4.66.93.0                                                        07/08/2019  20:09:53  PAGE 19


      01003145H   LINE      CODE     ---       #71
      0100314BH   LINE      CODE     ---       #72
      0100314EH   LINE      CODE     ---       #73
      01003167H   LINE      CODE     ---       #75
      0100316AH   LINE      CODE     ---       #76
      ---         BLOCKEND  ---      ---       LVL=0

      0100436AH   BLOCK     CODE     ---       LVL=0
      0100436AH   LINE      CODE     ---       #81
      01004370H   LINE      CODE     ---       #84
      01004372H   LINE      CODE     ---       #85
      01004380H   LINE      CODE     ---       #86
      01004383H   LINE      CODE     ---       #87
      01004386H   LINE      CODE     ---       #88
      01004392H   LINE      CODE     ---       #89
      01004392H   LINE      CODE     ---       #90
      01004398H   LINE      CODE     ---       #91
      01004398H   LINE      CODE     ---       #92
      0100439AH   LINE      CODE     ---       #93
      ---         BLOCKEND  ---      ---       LVL=0

      ---         MODULE    ---      ---       PARA_PORT
      0100455DH   PUBLIC    CODE     ---       xReadCH376Data
      01004578H   PUBLIC    CODE     ---       _xWriteCH376Data
      01004504H   PUBLIC    CODE     ---       _xWriteCH376Cmd
      010045F6H   PUBLIC    CODE     ---       CH376_PORT_INIT
      010045E5H   PUBLIC    CODE     ---       mDelay0_5uS
      000000F1H   SFRSYM    DATA     BYTE      ADR_H
      00000080H   SFRSYM    DATA     BYTE      P0
      00000090H   SFRSYM    DATA     BYTE      P1
      000000A0H   SFRSYM    DATA     BYTE      P2
      000000B0H   SFRSYM    DATA     BYTE      P3
      000000F3H   SFRSYM    DATA     BYTE      ADR_L
      000000D0H.6 SFRSYM    DATA     BIT       AC
      00000094H   SFRSYM    DATA     BYTE      PAGESEL
      000000F2H   SFRSYM    DATA     BYTE      ADR_M
      000000A8H.7 SFRSYM    DATA     BIT       EA
      000000F8H   SFRSYM    DATA     BYTE      RAMMODE
      000000B7H   SFRSYM    DATA     BYTE      P0MDOUT
      000000BCH   SFRSYM    DATA     BYTE      P1MDOUT
      000000A8H   SFRSYM    DATA     BYTE      IEN0
      000000BDH   SFRSYM    DATA     BYTE      P2MDOUT
      000000B8H   SFRSYM    DATA     BYTE      IEN1
      000000BEH   SFRSYM    DATA     BYTE      P3MDOUT
      0000009AH   SFRSYM    DATA     BYTE      IEN2
      000000D1H   SFRSYM    DATA     BYTE      IEN3
      00000090H.4 SFRSYM    DATA     BIT       CH376_INT_WIRE
      000000F8H.4 SFRSYM    DATA     BIT       APP_ACK
      000000F4H   SFRSYM    DATA     BYTE      ADR_INC
      000000B8H.1 SFRSYM    DATA     BIT       ECAN
      000000D0H.7 SFRSYM    DATA     BIT       CY
      000000B8H.3 SFRSYM    DATA     BIT       ES2R
      000000B8H.5 SFRSYM    DATA     BIT       ES3R
      000000B8H.2 SFRSYM    DATA     BIT       ES2T
      000000B8H.4 SFRSYM    DATA     BIT       ES3T
      00000090H.3 SFRSYM    DATA     BIT       CH376_RD
      00000090H.1 SFRSYM    DATA     BIT       CH376_CS
      00000081H   SFRSYM    DATA     BYTE      SP
      000000D0H.2 SFRSYM    DATA     BIT       OV
      00000095H   SFRSYM    DATA     BYTE      D_PAGESEL
      000000F8H.7 SFRSYM    DATA     BIT       APP_REQ
      000000BFH   SFRSYM    DATA     BYTE      IRCON2
      000000BAH   SFRSYM    DATA     BYTE      SREL0H
      000000BBH   SFRSYM    DATA     BYTE      SREL1H
      00000087H   SFRSYM    DATA     BYTE      PCON
LX51 LINKER/LOCATER V4.66.93.0                                                        07/08/2019  20:09:53  PAGE 20


      000000F9H   SFRSYM    DATA     BYTE      PORTDRV
      000000AAH   SFRSYM    DATA     BYTE      SREL0L
      0000009DH   SFRSYM    DATA     BYTE      SREL1L
      00000089H   SFRSYM    DATA     BYTE      TMOD
      00000088H   SFRSYM    DATA     BYTE      TCON
      00000090H.2 SFRSYM    DATA     BIT       CH376_WR
      000000FFH   SFRSYM    DATA     BYTE      EXDATA
      00000097H   SFRSYM    DATA     BYTE      SCON2R
      000000ABH   SFRSYM    DATA     BYTE      SCON3R
      000000D9H   SFRSYM    DATA     BYTE      BODE2_DIV_H
      000000AEH   SFRSYM    DATA     BYTE      BODE3_DIV_H
      00000096H   SFRSYM    DATA     BYTE      SCON2T
      000000A7H   SFRSYM    DATA     BYTE      SCON3T
      000000E7H   SFRSYM    DATA     BYTE      BODE2_DIV_L
      00000088H.1 SFRSYM    DATA     BIT       IE0
      000000AFH   SFRSYM    DATA     BYTE      BODE3_DIV_L
      00000088H.3 SFRSYM    DATA     BIT       IE1
      000000C9H   SFRSYM    DATA     BYTE      MUX_SEL
      000000F0H   SFRSYM    DATA     BYTE      B
      000000E0H   SFRSYM    DATA     BYTE      ACC
      0000008FH   SFRSYM    DATA     BYTE      CAN_CR
      000000A8H.4 SFRSYM    DATA     BIT       ES0
      000000A9H   SFRSYM    DATA     BYTE      IP0
      000000A8H.1 SFRSYM    DATA     BIT       ET0
      000000B9H   SFRSYM    DATA     BYTE      IP1
      000000A8H.3 SFRSYM    DATA     BIT       ET1
      00000088H.5 SFRSYM    DATA     BIT       TF0
      000000FDH   SFRSYM    DATA     BYTE      DATA0
      000000A8H.5 SFRSYM    DATA     BIT       ET2
      00000098H.0 SFRSYM    DATA     BIT       RI0
      00000088H.7 SFRSYM    DATA     BIT       TF1
      000000E8H   SFRSYM    DATA     BYTE      CAN_ET
      000000FCH   SFRSYM    DATA     BYTE      DATA1
      000000C0H.6 SFRSYM    DATA     BIT       TF2
      0000008CH   SFRSYM    DATA     BYTE      TH0
      000000FBH   SFRSYM    DATA     BYTE      DATA2
      000000A8H.0 SFRSYM    DATA     BIT       EX0
      00000098H.1 SFRSYM    DATA     BIT       TI0
      0000008DH   SFRSYM    DATA     BYTE      TH1
      00000088H.0 SFRSYM    DATA     BIT       IT0
      00000091H   SFRSYM    DATA     BYTE      CAN_IR
      000000FAH   SFRSYM    DATA     BYTE      DATA3
      000000CDH   SFRSYM    DATA     BYTE      TH2
      000000A8H.2 SFRSYM    DATA     BIT       EX1
      00000088H.2 SFRSYM    DATA     BIT       IT1
      000000D0H.0 SFRSYM    DATA     BIT       P
      0000008AH   SFRSYM    DATA     BYTE      TL0
      0000008BH   SFRSYM    DATA     BYTE      TL1
      000000CCH   SFRSYM    DATA     BYTE      TL2
      000000F8H.6 SFRSYM    DATA     BIT       APP_EN
      000000D0H.3 SFRSYM    DATA     BIT       RS0
      000000D0H.4 SFRSYM    DATA     BIT       RS1
      00000088H.4 SFRSYM    DATA     BIT       TR0
      00000093H   SFRSYM    DATA     BYTE      DPC
      00000088H.6 SFRSYM    DATA     BIT       TR1
      000000E5H   SFRSYM    DATA     BYTE      MAC_MODE
      000000C8H.0 SFRSYM    DATA     BIT       TR2
      00000083H   SFRSYM    DATA     BYTE      DPH
      00000082H   SFRSYM    DATA     BYTE      DPL
      00000099H   SFRSYM    DATA     BYTE      SBUF0
      0000009CH   SFRSYM    DATA     BYTE      SBUF1
      00000098H   SFRSYM    DATA     BYTE      SCON0
      0000009BH   SFRSYM    DATA     BYTE      SCON1
      000000D8H   SFRSYM    DATA     BYTE      ADCON
      000000C8H   SFRSYM    DATA     BYTE      T2CON
LX51 LINKER/LOCATER V4.66.93.0                                                        07/08/2019  20:09:53  PAGE 21


      000000E6H   SFRSYM    DATA     BYTE      DIV_MODE
      000000F8H.5 SFRSYM    DATA     BIT       APP_RW
      000000CBH   SFRSYM    DATA     BYTE      TRL2H
      0000009FH   SFRSYM    DATA     BYTE      SBUF2_RX
      000000ADH   SFRSYM    DATA     BYTE      SBUF3_RX
      0000008EH   SFRSYM    DATA     BYTE      CKCON
      0000009EH   SFRSYM    DATA     BYTE      SBUF2_TX
      000000ACH   SFRSYM    DATA     BYTE      SBUF3_TX
      000000CAH   SFRSYM    DATA     BYTE      TRL2L
      000000FEH   SFRSYM    DATA     BYTE      EXADR
      000000D0H.5 SFRSYM    DATA     BIT       F0
      000000D0H.1 SFRSYM    DATA     BIT       F1
      000000D0H   SFRSYM    DATA     BYTE      PSW
      000000C0H   SFRSYM    DATA     BYTE      IRCON
      00000090H.0 SFRSYM    DATA     BIT       CH376_A0

      010045E5H   BLOCK     CODE     ---       LVL=0
      010045E5H   BLOCK     CODE     NEAR LAB  LVL=1
      00000007H   SYMBOL    DATA     BYTE      i
      ---         BLOCKEND  ---      ---       LVL=1
      010045E5H   LINE      CODE     ---       #40
      010045E5H   LINE      CODE     ---       #41
      010045E5H   LINE      CODE     ---       #43
      010045F5H   LINE      CODE     ---       #44
      ---         BLOCKEND  ---      ---       LVL=0

      010045F6H   BLOCK     CODE     ---       LVL=0
      010045F6H   LINE      CODE     ---       #56
      010045F6H   LINE      CODE     ---       #57
      010045F6H   LINE      CODE     ---       #58
      010045F6H   LINE      CODE     ---       #59
      010045F9H   LINE      CODE     ---       #60
      010045FBH   LINE      CODE     ---       #61
      010045FDH   LINE      CODE     ---       #62
      010045FFH   LINE      CODE     ---       #63
      01004601H   LINE      CODE     ---       #64
      01004604H   LINE      CODE     ---       #65
      ---         BLOCKEND  ---      ---       LVL=0
      00000007H   SYMBOL    DATA     BYTE      mData

      01004504H   BLOCK     CODE     ---       LVL=0
      00000007H   SYMBOL    DATA     BYTE      mCmd
      01004504H   LINE      CODE     ---       #103
      01004504H   LINE      CODE     ---       #104
      01004504H   LINE      CODE     ---       #105
      01004506H   LINE      CODE     ---       #106
      01004509H   LINE      CODE     ---       #107
      0100450BH   LINE      CODE     ---       #108
      0100450DH   LINE      CODE     ---       #109
      0100450FH   LINE      CODE     ---       #110
      01004511H   LINE      CODE     ---       #111
      01004513H   LINE      CODE     ---       #112
      01004515H   LINE      CODE     ---       #113
      01004517H   LINE      CODE     ---       #114
      0100451AH   LINE      CODE     ---       #115
      ---         BLOCKEND  ---      ---       LVL=0

      01004578H   BLOCK     CODE     ---       LVL=0
      00000007H   SYMBOL    DATA     BYTE      mData
      01004578H   LINE      CODE     ---       #128
      01004578H   LINE      CODE     ---       #129
      01004578H   LINE      CODE     ---       #130
      0100457AH   LINE      CODE     ---       #131
      0100457DH   LINE      CODE     ---       #132
      0100457FH   LINE      CODE     ---       #133
LX51 LINKER/LOCATER V4.66.93.0                                                        07/08/2019  20:09:53  PAGE 22


      01004581H   LINE      CODE     ---       #134
      01004583H   LINE      CODE     ---       #135
      01004585H   LINE      CODE     ---       #136
      01004587H   LINE      CODE     ---       #137
      01004589H   LINE      CODE     ---       #138
      0100458CH   LINE      CODE     ---       #139
      ---         BLOCKEND  ---      ---       LVL=0

      0100455DH   BLOCK     CODE     ---       LVL=0
      0100455DH   BLOCK     CODE     NEAR LAB  LVL=1
      00000007H   SYMBOL    DATA     BYTE      mData
      ---         BLOCKEND  ---      ---       LVL=1
      0100455DH   LINE      CODE     ---       #152
      0100455DH   LINE      CODE     ---       #153
      0100455DH   LINE      CODE     ---       #155
      01004560H   LINE      CODE     ---       #156
      01004563H   LINE      CODE     ---       #157
      01004565H   LINE      CODE     ---       #158
      01004567H   LINE      CODE     ---       #159
      01004569H   LINE      CODE     ---       #160
      0100456BH   LINE      CODE     ---       #161
      0100456DH   LINE      CODE     ---       #162
      0100456FH   LINE      CODE     ---       #163
      01004571H   LINE      CODE     ---       #164
      01004573H   LINE      CODE     ---       #165
      01004575H   LINE      CODE     ---       #166
      01004577H   LINE      CODE     ---       #167
      01004577H   LINE      CODE     ---       #168
      ---         BLOCKEND  ---      ---       LVL=0

      ---         MODULE    ---      ---       USB_DGUS
      010005A3H   PUBLIC    CODE     ---       MesseageShow
      010023B5H   PUBLIC    CODE     ---       _?SystemUpDriver
      01003F21H   PUBLIC    CODE     ---       AckDiskInit
      01003D9FH   PUBLIC    CODE     ---       AckSystemUp
      01002D50H   PUBLIC    CODE     ---       AckGetOrSetPath
      01001D8BH   PUBLIC    CODE     ---       AckReadOrWriteFile
      010021B6H   PUBLIC    CODE     ---       AckSearchFile
      010037FEH   PUBLIC    CODE     ---       AckCreateOrDelPath
      0200A0BFH   PUBLIC    XDATA    BYTE      ?_WriteDgusClientString?BYTE
      01004000H   PUBLIC    CODE     ---       _WriteDgusClientString
      0200A0BFH   PUBLIC    XDATA    BYTE      ?_ReadDgusClientString?BYTE
      010036FFH   PUBLIC    CODE     ---       _ReadDgusClientString
      02009023H   PUBLIC    XDATA    BYTE      ?_CompareDgusRegValue?BYTE
      01004416H   PUBLIC    CODE     ---       _CompareDgusRegValue
      010033DFH   PUBLIC    CODE     ---       USBModule

      010033DFH   BLOCK     CODE     ---       LVL=0
      010033DFH   BLOCK     CODE     NEAR LAB  LVL=1
      02009022H   SYMBOL    XDATA    BYTE      ACK
      ---         BLOCKEND  ---      ---       LVL=1
      010033DFH   LINE      CODE     ---       #84
      010033DFH   LINE      CODE     ---       #85
      010033DFH   LINE      CODE     ---       #86
      010033E4H   LINE      CODE     ---       #87
      010033E7H   LINE      CODE     ---       #89
      01003403H   LINE      CODE     ---       #91
      01003409H   LINE      CODE     ---       #92
      01003425H   LINE      CODE     ---       #94
      0100342BH   LINE      CODE     ---       #95
      01003447H   LINE      CODE     ---       #97
      0100344DH   LINE      CODE     ---       #98
      0100345BH   LINE      CODE     ---       #99
      01003461H   LINE      CODE     ---       #100
      010034A1H   LINE      CODE     ---       #106
LX51 LINKER/LOCATER V4.66.93.0                                                        07/08/2019  20:09:53  PAGE 23


      010034A7H   LINE      CODE     ---       #107
      010034C9H   LINE      CODE     ---       #109
      010034CFH   LINE      CODE     ---       #111
      010034E5H   LINE      CODE     ---       #112
      010034E5H   LINE      CODE     ---       #113
      010034E5H   LINE      CODE     ---       #114
      010034E5H   LINE      CODE     ---       #115
      010034E8H   LINE      CODE     ---       #116
      010034E8H   LINE      CODE     ---       #117
      010034E8H   LINE      CODE     ---       #118
      010034E8H   LINE      CODE     ---       #119
      010034E8H   LINE      CODE     ---       #120
      010034EBH   LINE      CODE     ---       #121
      010034EBH   LINE      CODE     ---       #122
      010034EBH   LINE      CODE     ---       #123
      010034EBH   LINE      CODE     ---       #124
      010034EBH   LINE      CODE     ---       #125
      010034EEH   LINE      CODE     ---       #126
      010034EEH   LINE      CODE     ---       #127
      010034EEH   LINE      CODE     ---       #128
      010034EEH   LINE      CODE     ---       #129
      010034EEH   LINE      CODE     ---       #130
      010034F1H   LINE      CODE     ---       #131
      010034F1H   LINE      CODE     ---       #132
      010034F1H   LINE      CODE     ---       #133
      010034F1H   LINE      CODE     ---       #134
      010034F1H   LINE      CODE     ---       #135
      010034F4H   LINE      CODE     ---       #136
      010034F4H   LINE      CODE     ---       #137
      010034F4H   LINE      CODE     ---       #138
      010034F4H   LINE      CODE     ---       #139
      010034F4H   LINE      CODE     ---       #140
      010034F7H   LINE      CODE     ---       #141
      010034F7H   LINE      CODE     ---       #142
      010034F7H   LINE      CODE     ---       #143
      010034F7H   LINE      CODE     ---       #144
      010034F7H   LINE      CODE     ---       #145
      010034F7H   LINE      CODE     ---       #146
      ---         BLOCKEND  ---      ---       LVL=0

      0100440AH   BLOCK     CODE     VOID      LVL=0
      ---         BLOCKEND  ---      ---       LVL=0

      01004416H   BLOCK     CODE     ---       LVL=0
      00000004H   SYMBOL    DATA     DWORD     AddrDgus
      02009027H   SYMBOL    XDATA    BYTE      Value
      02009028H   SYMBOL    XDATA    BYTE      DgusValue
      01004416H   BLOCK     CODE     NEAR LAB  LVL=1
      02009028H   SYMBOL    XDATA    BYTE      DgusValue
      ---         BLOCKEND  ---      ---       LVL=1
      01004416H   LINE      CODE     ---       #160
      01004416H   LINE      CODE     ---       #161
      01004416H   LINE      CODE     ---       #162
      0100441BH   LINE      CODE     ---       #163
      0100442BH   LINE      CODE     ---       #164
      01004438H   LINE      CODE     ---       #165
      0100443AH   LINE      CODE     ---       #166
      ---         BLOCKEND  ---      ---       LVL=0

      010036FFH   BLOCK     CODE     ---       LVL=0
      0200A0BFH   SYMBOL    XDATA    DWORD     AddrDgus
      0200A0C3H   SYMBOL    XDATA    ---       pData
      0200A0C6H   SYMBOL    XDATA    ---       pDataLen
      01003710H   BLOCK     CODE     NEAR LAB  LVL=1
      0200A0C9H   SYMBOL    XDATA    BYTE      i
LX51 LINKER/LOCATER V4.66.93.0                                                        07/08/2019  20:09:53  PAGE 24


      0200A0CAH   SYMBOL    XDATA    BYTE      Data1
      0200A0CBH   SYMBOL    XDATA    BYTE      Data2
      0200A0CCH   SYMBOL    XDATA    WORD      Len
      ---         BLOCKEND  ---      ---       LVL=1
      010036FFH   LINE      CODE     ---       #180
      01003710H   LINE      CODE     ---       #181
      01003710H   LINE      CODE     ---       #182
      01003719H   LINE      CODE     ---       #183
      0100371DH   LINE      CODE     ---       #184
      01003735H   LINE      CODE     ---       #185
      0100375EH   LINE      CODE     ---       #186
      0100377DH   LINE      CODE     ---       #187
      0100377DH   LINE      CODE     ---       #188
      010037AAH   LINE      CODE     ---       #189
      010037AAH   LINE      CODE     ---       #190
      010037BBH   LINE      CODE     ---       #191
      010037BBH   LINE      CODE     ---       #192
      010037C3H   LINE      CODE     ---       #193
      010037FDH   LINE      CODE     ---       #194
      ---         BLOCKEND  ---      ---       LVL=0

      01004000H   BLOCK     CODE     ---       LVL=0
      0200A0BFH   SYMBOL    XDATA    DWORD     AddrDgus
      0200A0C3H   SYMBOL    XDATA    ---       pData
      0200A0C6H   SYMBOL    XDATA    WORD      DataLen
      01004000H   LINE      CODE     ---       #208
      01004011H   LINE      CODE     ---       #209
      01004011H   LINE      CODE     ---       #211
      0100402DH   LINE      CODE     ---       #212
      01004040H   LINE      CODE     ---       #213
      ---         BLOCKEND  ---      ---       LVL=0

      010037FEH   BLOCK     CODE     ---       LVL=0
      010037FEH   BLOCK     CODE     NEAR LAB  LVL=1
      02009023H   SYMBOL    XDATA    ---       Cmd
      0200902BH   SYMBOL    XDATA    ---       Path
      020090ABH   SYMBOL    XDATA    BYTE      Mod
      020090ACH   SYMBOL    XDATA    BYTE      FileType
      020090ADH   SYMBOL    XDATA    WORD      PathLength
      00000006H   SYMBOL    DATA     WORD      AddrDgusPath
      ---         BLOCKEND  ---      ---       LVL=1
      010037FEH   LINE      CODE     ---       #227
      010037FEH   LINE      CODE     ---       #228
      010037FEH   LINE      CODE     ---       #231
      01003805H   LINE      CODE     ---       #232
      0100380AH   LINE      CODE     ---       #233
      01003816H   LINE      CODE     ---       #234
      01003825H   LINE      CODE     ---       #236
      0100383FH   LINE      CODE     ---       #237
      01003847H   LINE      CODE     ---       #238
      0100384FH   LINE      CODE     ---       #239
      01003859H   LINE      CODE     ---       #240
      01003862H   LINE      CODE     ---       #242
      0100387BH   LINE      CODE     ---       #243
      0100388EH   LINE      CODE     ---       #244
      0100389AH   LINE      CODE     ---       #246
      010038A6H   LINE      CODE     ---       #247
      010038A6H   LINE      CODE     ---       #248
      010038A6H   LINE      CODE     ---       #249
      010038A6H   LINE      CODE     ---       #250
      010038B4H   LINE      CODE     ---       #251
      010038B6H   LINE      CODE     ---       #252
      010038B6H   LINE      CODE     ---       #253
      010038B6H   LINE      CODE     ---       #254
      010038B6H   LINE      CODE     ---       #255
LX51 LINKER/LOCATER V4.66.93.0                                                        07/08/2019  20:09:53  PAGE 25


      010038C4H   LINE      CODE     ---       #256
      010038C4H   LINE      CODE     ---       #257
      010038C4H   LINE      CODE     ---       #258
      010038C4H   LINE      CODE     ---       #259
      010038C4H   LINE      CODE     ---       #260
      010038C4H   LINE      CODE     ---       #262
      010038C9H   LINE      CODE     ---       #263
      ---         BLOCKEND  ---      ---       LVL=0

      010021B6H   BLOCK     CODE     ---       LVL=0
      010021B6H   BLOCK     CODE     NEAR LAB  LVL=1
      02009023H   SYMBOL    XDATA    ---       Cmd
      0200902BH   SYMBOL    XDATA    ---       Path
      020090ABH   SYMBOL    XDATA    ---       AimString
      020090BBH   SYMBOL    XDATA    ---       MatchLish
      00000001H   SYMBOL    DATA     ---       pMatch
      020093DBH   SYMBOL    XDATA    BYTE      Mod
      020093DCH   SYMBOL    XDATA    BYTE      Status
      020093DDH   SYMBOL    XDATA    BYTE      MatchNumber
      00000007H   SYMBOL    DATA     BYTE      i
      020093DEH   SYMBOL    XDATA    WORD      PathLength
      020093E0H   SYMBOL    XDATA    WORD      AimStringLen
      020093E2H   SYMBOL    XDATA    WORD      AddrDgusPath
      020093E4H   SYMBOL    XDATA    WORD      AddrDgusAimString
      020093E6H   SYMBOL    XDATA    WORD      AddrDgusMatchResult
      ---         BLOCKEND  ---      ---       LVL=1
      010021B6H   LINE      CODE     ---       #276
      010021B6H   LINE      CODE     ---       #277
      010021B6H   LINE      CODE     ---       #282
      010021B8H   LINE      CODE     ---       #283
      010021C1H   LINE      CODE     ---       #284
      010021C9H   LINE      CODE     ---       #285
      010021D5H   LINE      CODE     ---       #287
      010021E1H   LINE      CODE     ---       #288
      010021F0H   LINE      CODE     ---       #289
      010021FFH   LINE      CODE     ---       #290
      0100220EH   LINE      CODE     ---       #291
      01002217H   LINE      CODE     ---       #292
      0100221EH   LINE      CODE     ---       #294
      01002238H   LINE      CODE     ---       #295
      01002240H   LINE      CODE     ---       #296
      01002252H   LINE      CODE     ---       #297
      01002264H   LINE      CODE     ---       #298
      01002276H   LINE      CODE     ---       #299
      01002294H   LINE      CODE     ---       #301
      010022B5H   LINE      CODE     ---       #302
      010022C8H   LINE      CODE     ---       #303
      010022D4H   LINE      CODE     ---       #305
      010022F5H   LINE      CODE     ---       #306
      01002307H   LINE      CODE     ---       #308
      0100232DH   LINE      CODE     ---       #310
      01002333H   LINE      CODE     ---       #311
      0100233FH   LINE      CODE     ---       #312
      0100233FH   LINE      CODE     ---       #313
      01002344H   LINE      CODE     ---       #314
      0100234BH   LINE      CODE     ---       #315
      01002351H   LINE      CODE     ---       #316
      01002354H   LINE      CODE     ---       #318
      01002359H   LINE      CODE     ---       #319
      01002361H   LINE      CODE     ---       #320
      0100237BH   LINE      CODE     ---       #322
      ---         BLOCKEND  ---      ---       LVL=0

      01001D8BH   BLOCK     CODE     ---       LVL=0
      01001D8BH   BLOCK     CODE     NEAR LAB  LVL=1
LX51 LINKER/LOCATER V4.66.93.0                                                        07/08/2019  20:09:53  PAGE 26


      02009023H   SYMBOL    XDATA    ---       Cmd
      02009033H   SYMBOL    XDATA    ---       Path
      020090B3H   SYMBOL    XDATA    ---       Buf
      0200A0B3H   SYMBOL    XDATA    BYTE      Mod
      0200A0B4H   SYMBOL    XDATA    BYTE      Status
      0200A0B5H   SYMBOL    XDATA    WORD      PathLength
      0200A0B7H   SYMBOL    XDATA    WORD      ByteSize
      0200A0B9H   SYMBOL    XDATA    WORD      AddrDgusPath
      0200A0BBH   SYMBOL    XDATA    WORD      AddrDgusFileMsg
      0200A0BDH   SYMBOL    XDATA    WORD      SectorOffset
      ---         BLOCKEND  ---      ---       LVL=1
      01001D8BH   LINE      CODE     ---       #335
      01001D8BH   LINE      CODE     ---       #336
      01001D8BH   LINE      CODE     ---       #340
      01001D92H   LINE      CODE     ---       #341
      01001D9AH   LINE      CODE     ---       #342
      01001DA6H   LINE      CODE     ---       #343
      01001DB3H   LINE      CODE     ---       #344
      01001DC2H   LINE      CODE     ---       #345
      01001DD1H   LINE      CODE     ---       #346
      01001DDAH   LINE      CODE     ---       #348
      01001DF4H   LINE      CODE     ---       #349
      01001DFCH   LINE      CODE     ---       #350
      01001E0EH   LINE      CODE     ---       #351
      01001E20H   LINE      CODE     ---       #352
      01001E48H   LINE      CODE     ---       #353
      01001E5AH   LINE      CODE     ---       #355
      01001E79H   LINE      CODE     ---       #356
      01001E8CH   LINE      CODE     ---       #357
      01001E98H   LINE      CODE     ---       #359
      01001EAAH   LINE      CODE     ---       #360
      01001EAAH   LINE      CODE     ---       #361
      01001EAAH   LINE      CODE     ---       #362
      01001EAAH   LINE      CODE     ---       #363
      01001EE6H   LINE      CODE     ---       #364
      01001EEFH   LINE      CODE     ---       #365
      01001F16H   LINE      CODE     ---       #366
      01001F22H   LINE      CODE     ---       #369
      01001F22H   LINE      CODE     ---       #370
      01001F22H   LINE      CODE     ---       #371
      01001F22H   LINE      CODE     ---       #372
      01001F43H   LINE      CODE     ---       #373
      01001F7FH   LINE      CODE     ---       #374
      01001F87H   LINE      CODE     ---       #375
      01001F87H   LINE      CODE     ---       #376
      01001F89H   LINE      CODE     ---       #377
      01001F89H   LINE      CODE     ---       #378
      01001F89H   LINE      CODE     ---       #379
      01001F89H   LINE      CODE     ---       #380
      01001F8FH   LINE      CODE     ---       #381
      01001F8FH   LINE      CODE     ---       #382
      01001F8FH   LINE      CODE     ---       #383
      01001F8FH   LINE      CODE     ---       #385
      01001F94H   LINE      CODE     ---       #386
      ---         BLOCKEND  ---      ---       LVL=0

      01002D50H   BLOCK     CODE     ---       LVL=0
      01002D50H   BLOCK     CODE     NEAR LAB  LVL=1
      02009023H   SYMBOL    XDATA    ---       Cmd
      0200902BH   SYMBOL    XDATA    ---       Path
      020090ABH   SYMBOL    XDATA    ---       DirName
      020090B8H   SYMBOL    XDATA    BYTE      Mod
      020090B9H   SYMBOL    XDATA    BYTE      Status
      020090BAH   SYMBOL    XDATA    WORD      PathLength
      00000004H   SYMBOL    DATA     WORD      AddrDgusPath
LX51 LINKER/LOCATER V4.66.93.0                                                        07/08/2019  20:09:53  PAGE 27


      020090BCH   SYMBOL    XDATA    WORD      AddrDgusDirAttr
      ---         BLOCKEND  ---      ---       LVL=1
      01002D50H   LINE      CODE     ---       #399
      01002D50H   LINE      CODE     ---       #400
      01002D50H   LINE      CODE     ---       #404
      01002D57H   LINE      CODE     ---       #405
      01002D5BH   LINE      CODE     ---       #406
      01002D61H   LINE      CODE     ---       #407
      01002D6DH   LINE      CODE     ---       #408
      01002D7CH   LINE      CODE     ---       #409
      01002D8BH   LINE      CODE     ---       #410
      01002D94H   LINE      CODE     ---       #412
      01002DAEH   LINE      CODE     ---       #413
      01002DB6H   LINE      CODE     ---       #414
      01002DC0H   LINE      CODE     ---       #415
      01002DD0H   LINE      CODE     ---       #417
      01002DEDH   LINE      CODE     ---       #418
      01002E00H   LINE      CODE     ---       #419
      01002E0CH   LINE      CODE     ---       #421
      01002E18H   LINE      CODE     ---       #422
      01002E18H   LINE      CODE     ---       #423
      01002E18H   LINE      CODE     ---       #424
      01002E18H   LINE      CODE     ---       #425
      01002E34H   LINE      CODE     ---       #426
      01002E50H   LINE      CODE     ---       #427
      01002E52H   LINE      CODE     ---       #428
      01002E52H   LINE      CODE     ---       #429
      01002E52H   LINE      CODE     ---       #430
      01002E52H   LINE      CODE     ---       #431
      01002E6EH   LINE      CODE     ---       #432
      01002E8AH   LINE      CODE     ---       #433
      01002E8CH   LINE      CODE     ---       #434
      01002E8CH   LINE      CODE     ---       #435
      01002E8CH   LINE      CODE     ---       #436
      01002E8CH   LINE      CODE     ---       #437
      01002E92H   LINE      CODE     ---       #438
      01002E92H   LINE      CODE     ---       #439
      01002E92H   LINE      CODE     ---       #440
      01002E92H   LINE      CODE     ---       #442
      01002E97H   LINE      CODE     ---       #443
      01002E9FH   LINE      CODE     ---       #444
      ---         BLOCKEND  ---      ---       LVL=0

      01003D9FH   BLOCK     CODE     ---       LVL=0
      01003D9FH   BLOCK     CODE     NEAR LAB  LVL=1
      02009023H   SYMBOL    XDATA    ---       Cmd
      0200902BH   SYMBOL    XDATA    BYTE      FileType
      00000006H   SYMBOL    DATA     WORD      FileNumber
      0200902CH   SYMBOL    XDATA    WORD      Times
      ---         BLOCKEND  ---      ---       LVL=1
      01003D9FH   LINE      CODE     ---       #457
      01003D9FH   LINE      CODE     ---       #458
      01003D9FH   LINE      CODE     ---       #460
      01003DA4H   LINE      CODE     ---       #461
      01003DA9H   LINE      CODE     ---       #462
      01003DB5H   LINE      CODE     ---       #463
      01003DCFH   LINE      CODE     ---       #464
      01003DD7H   LINE      CODE     ---       #465
      01003DDFH   LINE      CODE     ---       #466
      01003DEFH   LINE      CODE     ---       #467
      01003DF4H   LINE      CODE     ---       #468
      01003DF6H   LINE      CODE     ---       #469
      01003DF8H   LINE      CODE     ---       #470
      01003E05H   LINE      CODE     ---       #471
      01003E08H   LINE      CODE     ---       #472
LX51 LINKER/LOCATER V4.66.93.0                                                        07/08/2019  20:09:53  PAGE 28


      ---         BLOCKEND  ---      ---       LVL=0

      01003F21H   BLOCK     CODE     ---       LVL=0
      01003F21H   BLOCK     CODE     NEAR LAB  LVL=1
      02009023H   SYMBOL    XDATA    ---       Cmd
      01003F7CH   SYMBOL    CODE     VOID      END
      ---         BLOCKEND  ---      ---       LVL=1
      01003F21H   LINE      CODE     ---       #485
      01003F21H   LINE      CODE     ---       #486
      01003F21H   LINE      CODE     ---       #488
      01003F30H   LINE      CODE     ---       #490
      01003F4AH   LINE      CODE     ---       #492
      01003F50H   LINE      CODE     ---       #493
      01003F50H   LINE      CODE     ---       #494
      01003F58H   LINE      CODE     ---       #495
      01003F5AH   LINE      CODE     ---       #496
      01003F5AH   LINE      CODE     ---       #497
      01003F5CH   LINE      CODE     ---       #498
      01003F5EH   LINE      CODE     ---       #499
      01003F60H   LINE      CODE     ---       #500
      01003F60H   LINE      CODE     ---       #501
      01003F60H   LINE      CODE     ---       #502
      01003F68H   LINE      CODE     ---       #503
      01003F6AH   LINE      CODE     ---       #504
      01003F6AH   LINE      CODE     ---       #505
      01003F6CH   LINE      CODE     ---       #506
      01003F6EH   LINE      CODE     ---       #507
      01003F6EH   LINE      CODE     ---       #508
      01003F74H   LINE      CODE     ---       #509
      01003F7CH   LINE      CODE     ---       #510
      01003F7CH   LINE      CODE     ---       #511
      ---         BLOCKEND  ---      ---       LVL=0

      010023A9H   BLOCK     CODE     VOID      LVL=0
      ---         BLOCKEND  ---      ---       LVL=0

      010023B5H   BLOCK     CODE     ---       LVL=0
      00000002H   SYMBOL    XSTK     BYTE      FileType
      00000003H   SYMBOL    XSTK     WORD      FileNumber
      00000005H   SYMBOL    XSTK     ---       pTimes
      00000000H   SYMBOL    XSTK     WORD      Num
      010023E9H   SYMBOL    CODE     VOID      END
      010023DCH   BLOCK     CODE     NEAR LAB  LVL=1
      00000000H   SYMBOL    XSTK     WORD      Num
      010023E9H   SYMBOL    CODE     VOID      END
      ---         BLOCKEND  ---      ---       LVL=1
      010023B5H   LINE      CODE     ---       #526
      010023DCH   LINE      CODE     ---       #528
      010023E6H   LINE      CODE     ---       #529
      010023F9H   LINE      CODE     ---       #530
      010023F9H   LINE      CODE     ---       #531
      01002421H   LINE      CODE     ---       #532
      01002424H   LINE      CODE     ---       #533
      01002424H   LINE      CODE     ---       #534
      01002444H   LINE      CODE     ---       #535
      01002444H   LINE      CODE     ---       #536
      01002444H   LINE      CODE     ---       #537
      01002444H   LINE      CODE     ---       #538
      0100245BH   LINE      CODE     ---       #539
      01002472H   LINE      CODE     ---       #540
      0100247DH   LINE      CODE     ---       #541
      01002488H   LINE      CODE     ---       #542
      0100249FH   LINE      CODE     ---       #543
      010024A2H   LINE      CODE     ---       #544
      010024A2H   LINE      CODE     ---       #545
LX51 LINKER/LOCATER V4.66.93.0                                                        07/08/2019  20:09:53  PAGE 29


      010024A2H   LINE      CODE     ---       #546
      010024A2H   LINE      CODE     ---       #547
      010024A2H   LINE      CODE     ---       #548
      010024A2H   LINE      CODE     ---       #549
      010024A2H   LINE      CODE     ---       #550
      010024A2H   LINE      CODE     ---       #551
      010024C2H   LINE      CODE     ---       #552
      010024C2H   LINE      CODE     ---       #553
      010024D5H   LINE      CODE     ---       #554
      010024E4H   LINE      CODE     ---       #555
      010024E4H   LINE      CODE     ---       #556
      010024E4H   LINE      CODE     ---       #557
      010024E4H   LINE      CODE     ---       #558
      010024E4H   LINE      CODE     ---       #559
      01002501H   LINE      CODE     ---       #560
      01002501H   LINE      CODE     ---       #561
      01002514H   LINE      CODE     ---       #562
      01002523H   LINE      CODE     ---       #563
      01002523H   LINE      CODE     ---       #564
      01002523H   LINE      CODE     ---       #565
      01002523H   LINE      CODE     ---       #566
      01002523H   LINE      CODE     ---       #567
      01002542H   LINE      CODE     ---       #568
      01002542H   LINE      CODE     ---       #569
      01002555H   LINE      CODE     ---       #570
      01002564H   LINE      CODE     ---       #571
      01002564H   LINE      CODE     ---       #572
      01002564H   LINE      CODE     ---       #573
      01002564H   LINE      CODE     ---       #574
      01002564H   LINE      CODE     ---       #575
      ---         BLOCKEND  ---      ---       LVL=0

      010005A3H   BLOCK     CODE     ---       LVL=0
      010005A3H   BLOCK     CODE     NEAR LAB  LVL=1
      02009022H   SYMBOL    XDATA    ---       Ms
      0200902FH   SYMBOL    XDATA    ---       String
      02009041H   SYMBOL    XDATA    WORD      DIR_CrtTime
      02009043H   SYMBOL    XDATA    WORD      DIR_CrtDate
      02009045H   SYMBOL    XDATA    WORD      DIR_WrtTime
      02009047H   SYMBOL    XDATA    WORD      DIR_WrtDate
      02009049H   SYMBOL    XDATA    WORD      Hour
      0200904BH   SYMBOL    XDATA    WORD      Min
      0200904DH   SYMBOL    XDATA    WORD      Sec
      0200904FH   SYMBOL    XDATA    WORD      Year
      02009051H   SYMBOL    XDATA    WORD      Month
      00000006H   SYMBOL    DATA     WORD      Day
      02009053H   SYMBOL    XDATA    DWORD     DIR_FileSize
      ---         BLOCKEND  ---      ---       LVL=1
      010005A3H   LINE      CODE     ---       #587
      010005A3H   LINE      CODE     ---       #588
      010005A3H   LINE      CODE     ---       #590
      010005B6H   LINE      CODE     ---       #591
      010005CCH   LINE      CODE     ---       #592
      010005D4H   LINE      CODE     ---       #594
      010005E3H   LINE      CODE     ---       #595
      010005F2H   LINE      CODE     ---       #596
      0100060CH   LINE      CODE     ---       #597
      0100061EH   LINE      CODE     ---       #598
      01000630H   LINE      CODE     ---       #599
      01000642H   LINE      CODE     ---       #600
      01000654H   LINE      CODE     ---       #602
      010006AEH   LINE      CODE     ---       #604
      010006C7H   LINE      CODE     ---       #605
      010006E0H   LINE      CODE     ---       #606
      010006F2H   LINE      CODE     ---       #607
LX51 LINKER/LOCATER V4.66.93.0                                                        07/08/2019  20:09:53  PAGE 30


      01000736H   LINE      CODE     ---       #608
      01000750H   LINE      CODE     ---       #609
      0100075FH   LINE      CODE     ---       #611
      01000779H   LINE      CODE     ---       #612
      01000792H   LINE      CODE     ---       #613
      0100079BH   LINE      CODE     ---       #614
      010007D6H   LINE      CODE     ---       #615
      010007F0H   LINE      CODE     ---       #616
      010007FFH   LINE      CODE     ---       #618
      01000818H   LINE      CODE     ---       #619
      01000831H   LINE      CODE     ---       #620
      01000843H   LINE      CODE     ---       #621
      01000887H   LINE      CODE     ---       #622
      010008A1H   LINE      CODE     ---       #623
      010008B0H   LINE      CODE     ---       #625
      010008C5H   LINE      CODE     ---       #626
      010008E2H   LINE      CODE     ---       #627
      010008EBH   LINE      CODE     ---       #628
      01000926H   LINE      CODE     ---       #629
      01000940H   LINE      CODE     ---       #630
      0100094FH   LINE      CODE     ---       #632
      0100097AH   LINE      CODE     ---       #633
      ---         BLOCKEND  ---      ---       LVL=0

      ---         MODULE    ---      ---       APP_INTERFACE
      020090BEH   PUBLIC    XDATA    BYTE      ?_SetFileMessage?BYTE
      0100316DH   PUBLIC    CODE     ---       _SetFileMessage
      020090BEH   PUBLIC    XDATA    BYTE      ?_GetFileMessage?BYTE
      01002EB9H   PUBLIC    CODE     ---       _GetFileMessage
      01002BE6H   PUBLIC    CODE     ---       _SystemUpdate
      0200938CH   PUBLIC    XDATA    BYTE      ?_SysUpFileSend?BYTE
      0100109DH   PUBLIC    CODE     ---       _SysUpFileSend
      0200A5B1H   PUBLIC    XDATA    BYTE      ?_SendUpPackToDGUS?BYTE
      01003BF8H   PUBLIC    CODE     ---       _SendUpPackToDGUS
      0200A5B1H   PUBLIC    XDATA    BYTE      ?_SysUpPcakSet?BYTE
      010032C0H   PUBLIC    CODE     ---       _SysUpPcakSet
      010042BBH   PUBLIC    CODE     ---       _SysUpWaitOsFinishRead
      0200938CH   PUBLIC    XDATA    BYTE      ?_SysUpFileMatch?BYTE
      010018F8H   PUBLIC    CODE     ---       _SysUpFileMatch
      0200939FH   PUBLIC    XDATA    BYTE      ?_NumberStringMatch?BYTE
      01003D1BH   PUBLIC    CODE     ---       _NumberStringMatch
      01004226H   PUBLIC    CODE     ---       _SysUpGetDWINFile
      0200938CH   PUBLIC    XDATA    BYTE      ?_SysUpGetFileMesg?BYTE
      0100166EH   PUBLIC    CODE     ---       _SysUpGetFileMesg
      020093E8H   PUBLIC    XDATA    BYTE      ?_MatchFile?BYTE
      01003EA2H   PUBLIC    CODE     ---       _MatchFile
      0200A0BFH   PUBLIC    XDATA    BYTE      ?_WriteFile?BYTE
      01000994H   PUBLIC    CODE     ---       _WriteFile
      0200A5B1H   PUBLIC    XDATA    BYTE      ?_ReadFile?BYTE
      010013BAH   PUBLIC    CODE     ---       _ReadFile
      0100443BH   PUBLIC    CODE     ---       _RmFileOrDir
      010028C7H   PUBLIC    CODE     ---       _CH376CreateFileOrDir
      010043A1H   PUBLIC    CODE     ---       _CreateFileOrDir
      01004612H   PUBLIC    CODE     ---       CheckDiskInit
      01004605H   PUBLIC    CODE     ---       CheckConnect
      0100426AH   PUBLIC    CODE     ---       CheckIC
      00000007H   SYMBOL    DATA     BYTE      i
      00000006H   SYMBOL    DATA     BYTE      j

      0100426AH   BLOCK     CODE     ---       LVL=0
      0100426AH   BLOCK     CODE     NEAR LAB  LVL=1
      02009027H   SYMBOL    XDATA    BYTE      i
      ---         BLOCKEND  ---      ---       LVL=1
      0100426AH   LINE      CODE     ---       #94
      0100426AH   LINE      CODE     ---       #95
LX51 LINKER/LOCATER V4.66.93.0                                                        07/08/2019  20:09:53  PAGE 31


      0100426AH   LINE      CODE     ---       #96
      0100426FH   LINE      CODE     ---       #97
      01004274H   LINE      CODE     ---       #98
      01004279H   LINE      CODE     ---       #100
      01004284H   LINE      CODE     ---       #102
      01004284H   LINE      CODE     ---       #103
      01004289H   LINE      CODE     ---       #104
      0100428EH   LINE      CODE     ---       #105
      0100429AH   LINE      CODE     ---       #106
      010042AAH   LINE      CODE     ---       #107
      010042ACH   LINE      CODE     ---       #108
      010042ACH   LINE      CODE     ---       #109
      ---         BLOCKEND  ---      ---       LVL=0

      01004605H   BLOCK     CODE     ---       LVL=0
      01004605H   LINE      CODE     ---       #122
      01004605H   LINE      CODE     ---       #123
      01004605H   LINE      CODE     ---       #124
      01004611H   LINE      CODE     ---       #125
      01004611H   LINE      CODE     ---       #126
      ---         BLOCKEND  ---      ---       LVL=0

      01004612H   BLOCK     CODE     ---       LVL=0
      01004612H   LINE      CODE     ---       #139
      01004612H   LINE      CODE     ---       #140
      01004612H   LINE      CODE     ---       #141
      0100461EH   LINE      CODE     ---       #142
      0100461EH   LINE      CODE     ---       #143
      ---         BLOCKEND  ---      ---       LVL=0

      010043A1H   BLOCK     CODE     ---       LVL=0
      020090AFH   SYMBOL    XDATA    ---       pPathName
      020090B2H   SYMBOL    XDATA    BYTE      TypePath
      010043A1H   LINE      CODE     ---       #157
      010043B1H   LINE      CODE     ---       #158
      010043B1H   LINE      CODE     ---       #159
      010043B4H   LINE      CODE     ---       #160
      010043C5H   LINE      CODE     ---       #161
      010043D6H   LINE      CODE     ---       #162
      ---         BLOCKEND  ---      ---       LVL=0

      010028C7H   BLOCK     CODE     ---       LVL=0
      0200B2DBH   SYMBOL    XDATA    ---       pPathName
      0200B2DEH   SYMBOL    XDATA    BYTE      TypePath
      010028D5H   BLOCK     CODE     NEAR LAB  LVL=1
      0200B2DFH   SYMBOL    XDATA    ---       NameBuf
      0200B5DFH   SYMBOL    XDATA    BYTE      i
      0200B5E0H   SYMBOL    XDATA    BYTE      j
      0200B5E1H   SYMBOL    XDATA    BYTE      Status
      ---         BLOCKEND  ---      ---       LVL=1
      010028C7H   LINE      CODE     ---       #176
      010028D5H   LINE      CODE     ---       #177
      010028D5H   LINE      CODE     ---       #179
      010028DAH   LINE      CODE     ---       #180
      010028DCH   LINE      CODE     ---       #181
      010028DEH   LINE      CODE     ---       #182
      010028EBH   LINE      CODE     ---       #184
      01002900H   LINE      CODE     ---       #185
      01002900H   LINE      CODE     ---       #186
      01002911H   LINE      CODE     ---       #187
      01002911H   LINE      CODE     ---       #188
      01002943H   LINE      CODE     ---       #189
      01002959H   LINE      CODE     ---       #190
      01002959H   LINE      CODE     ---       #191
      01002963H   LINE      CODE     ---       #192
LX51 LINKER/LOCATER V4.66.93.0                                                        07/08/2019  20:09:53  PAGE 32


      01002965H   LINE      CODE     ---       #193
      01002965H   LINE      CODE     ---       #194
      0100296DH   LINE      CODE     ---       #195
      0100297DH   LINE      CODE     ---       #196
      01002986H   LINE      CODE     ---       #198
      010029A6H   LINE      CODE     ---       #199
      010029A6H   LINE      CODE     ---       #200
      010029BDH   LINE      CODE     ---       #201
      010029CFH   LINE      CODE     ---       #202
      010029CFH   LINE      CODE     ---       #203
      010029DDH   LINE      CODE     ---       #204
      010029DDH   LINE      CODE     ---       #205
      010029DDH   LINE      CODE     ---       #206
      010029DDH   LINE      CODE     ---       #207
      010029F9H   LINE      CODE     ---       #208
      010029F9H   LINE      CODE     ---       #209
      010029F9H   LINE      CODE     ---       #210
      010029F9H   LINE      CODE     ---       #211
      010029F9H   LINE      CODE     ---       #212
      01002A16H   LINE      CODE     ---       #215
      01002A16H   LINE      CODE     ---       #216
      01002A16H   LINE      CODE     ---       #217
      01002A16H   LINE      CODE     ---       #218
      01002A16H   LINE      CODE     ---       #219
      01002A16H   LINE      CODE     ---       #220
      01002A16H   LINE      CODE     ---       #221
      01002A22H   LINE      CODE     ---       #222
      01002A22H   LINE      CODE     ---       #223
      01002A22H   LINE      CODE     ---       #224
      01002A22H   LINE      CODE     ---       #225
      01002A3EH   LINE      CODE     ---       #226
      01002A3EH   LINE      CODE     ---       #227
      01002A3EH   LINE      CODE     ---       #228
      01002A3EH   LINE      CODE     ---       #229
      01002A3EH   LINE      CODE     ---       #230
      01002A58H   LINE      CODE     ---       #231
      01002A5DH   LINE      CODE     ---       #232
      01002A5DH   LINE      CODE     ---       #233
      01002A5DH   LINE      CODE     ---       #234
      01002A5DH   LINE      CODE     ---       #235
      01002A5DH   LINE      CODE     ---       #236
      01002A5DH   LINE      CODE     ---       #237
      01002A66H   LINE      CODE     ---       #238
      01002A68H   LINE      CODE     ---       #239
      ---         BLOCKEND  ---      ---       LVL=0

      0100443BH   BLOCK     CODE     ---       LVL=0
      020090AFH   SYMBOL    XDATA    ---       pPathName
      0100443BH   LINE      CODE     ---       #252
      01004446H   LINE      CODE     ---       #253
      01004446H   LINE      CODE     ---       #254
      01004454H   LINE      CODE     ---       #255
      0100446AH   LINE      CODE     ---       #256
      0100446AH   LINE      CODE     ---       #257
      ---         BLOCKEND  ---      ---       LVL=0

      010013AFH   BLOCK     CODE     VOID      LVL=0
      ---         BLOCKEND  ---      ---       LVL=0

      010013BAH   BLOCK     CODE     ---       LVL=0
      0200A5B1H   SYMBOL    XDATA    ---       pPathName
      0200A5B4H   SYMBOL    XDATA    ---       pData
      0200A5B7H   SYMBOL    XDATA    WORD      DataLen
      0200A5B9H   SYMBOL    XDATA    DWORD     SectorOffset
      0200A5BDH   SYMBOL    XDATA    BYTE      Status
LX51 LINKER/LOCATER V4.66.93.0                                                        07/08/2019  20:09:53  PAGE 33


      0200A5BEH   SYMBOL    XDATA    DWORD     SectorCount
      0200A5C2H   SYMBOL    XDATA    DWORD     Count
      0200A5C6H   SYMBOL    XDATA    DWORD     FileSize
      010013C5H   BLOCK     CODE     NEAR LAB  LVL=1
      0200A5BDH   SYMBOL    XDATA    BYTE      Status
      0200A5BEH   SYMBOL    XDATA    DWORD     SectorCount
      0200A5C2H   SYMBOL    XDATA    DWORD     Count
      0200A5C6H   SYMBOL    XDATA    DWORD     FileSize
      ---         BLOCKEND  ---      ---       LVL=1
      010013BAH   LINE      CODE     ---       #273
      010013C5H   LINE      CODE     ---       #274
      010013C5H   LINE      CODE     ---       #275
      010013CAH   LINE      CODE     ---       #276
      010013DCH   LINE      CODE     ---       #277
      010013E6H   LINE      CODE     ---       #278
      010013F7H   LINE      CODE     ---       #279
      01001405H   LINE      CODE     ---       #280
      01001419H   LINE      CODE     ---       #282
      0100142CH   LINE      CODE     ---       #283
      01001433H   LINE      CODE     ---       #284
      0100143CH   LINE      CODE     ---       #285
      01001458H   LINE      CODE     ---       #287
      010014C1H   LINE      CODE     ---       #289
      0100155BH   LINE      CODE     ---       #290
      0100156CH   LINE      CODE     ---       #291
      0100157DH   LINE      CODE     ---       #292
      01001594H   LINE      CODE     ---       #293
      01001594H   LINE      CODE     ---       #296
      010015BDH   LINE      CODE     ---       #297
      010015D3H   LINE      CODE     ---       #299
      010015EDH   LINE      CODE     ---       #300
      010015EDH   LINE      CODE     ---       #301
      010015F7H   LINE      CODE     ---       #302
      0100161AH   LINE      CODE     ---       #303
      0100161CH   LINE      CODE     ---       #305
      0100161CH   LINE      CODE     ---       #306
      0100162EH   LINE      CODE     ---       #307
      01001638H   LINE      CODE     ---       #308
      01001638H   LINE      CODE     ---       #310
      0100165CH   LINE      CODE     ---       #311
      01001666H   LINE      CODE     ---       #312
      01001666H   LINE      CODE     ---       #313
      0100166BH   LINE      CODE     ---       #314
      0100166DH   LINE      CODE     ---       #315
      ---         BLOCKEND  ---      ---       LVL=0

      01000994H   BLOCK     CODE     ---       LVL=0
      0200A0BFH   SYMBOL    XDATA    ---       pPathName
      0200A0C2H   SYMBOL    XDATA    ---       pData
      0200A0C5H   SYMBOL    XDATA    WORD      DataLen
      0200A0C7H   SYMBOL    XDATA    DWORD     SectorOffset
      0100099FH   BLOCK     CODE     NEAR LAB  LVL=1
      0200A0CBH   SYMBOL    XDATA    ---       Buf
      0200B0CBH   SYMBOL    XDATA    ---       EndBuf
      0200B2CBH   SYMBOL    XDATA    BYTE      Status
      0200B2CCH   SYMBOL    XDATA    BYTE      SectorCount
      0200B2CDH   SYMBOL    XDATA    BYTE      Flag
      0200B2CEH   SYMBOL    XDATA    ---       pMid
      0200B2D1H   SYMBOL    XDATA    WORD      BufFreeLen
      0200B2D3H   SYMBOL    XDATA    WORD      BufSourceLen
      0200B2D5H   SYMBOL    XDATA    WORD      EndBufSize
      0200B2D7H   SYMBOL    XDATA    DWORD     FileSize
      ---         BLOCKEND  ---      ---       LVL=1
      01000994H   LINE      CODE     ---       #330
      0100099FH   LINE      CODE     ---       #331
LX51 LINKER/LOCATER V4.66.93.0                                                        07/08/2019  20:09:53  PAGE 34


      0100099FH   LINE      CODE     ---       #334
      010009A8H   LINE      CODE     ---       #335
      010009B1H   LINE      CODE     ---       #336
      010009BEH   LINE      CODE     ---       #337
      010009C6H   LINE      CODE     ---       #339
      010009D5H   LINE      CODE     ---       #340
      010009E4H   LINE      CODE     ---       #341
      01000A01H   LINE      CODE     ---       #342
      01000A0FH   LINE      CODE     ---       #343
      01000A2EH   LINE      CODE     ---       #344
      01000A31H   LINE      CODE     ---       #347
      01000A44H   LINE      CODE     ---       #348
      01000A48H   LINE      CODE     ---       #349
      01000A48H   LINE      CODE     ---       #350
      01000A58H   LINE      CODE     ---       #351
      01000A6BH   LINE      CODE     ---       #352
      01000A71H   LINE      CODE     ---       #353
      01000A76H   LINE      CODE     ---       #354
      01000A76H   LINE      CODE     ---       #356
      01000A80H   LINE      CODE     ---       #357
      01000A80H   LINE      CODE     ---       #358
      01000A80H   LINE      CODE     ---       #359
      01000A80H   LINE      CODE     ---       #360
      01000A88H   LINE      CODE     ---       #361
      01000A8AH   LINE      CODE     ---       #362
      01000A8AH   LINE      CODE     ---       #363
      01000A8AH   LINE      CODE     ---       #364
      01000A8AH   LINE      CODE     ---       #365
      01000A93H   LINE      CODE     ---       #366
      01000AABH   LINE      CODE     ---       #367
      01000AAEH   LINE      CODE     ---       #368
      01000AAEH   LINE      CODE     ---       #369
      01000AC7H   LINE      CODE     ---       #370
      01000AC7H   LINE      CODE     ---       #371
      01000AD2H   LINE      CODE     ---       #372
      01000AD4H   LINE      CODE     ---       #373
      01000AD4H   LINE      CODE     ---       #374
      01000AD4H   LINE      CODE     ---       #375
      01000AD7H   LINE      CODE     ---       #376
      01000AD7H   LINE      CODE     ---       #377
      01000B02H   LINE      CODE     ---       #378
      01000B10H   LINE      CODE     ---       #379
      01000B10H   LINE      CODE     ---       #380
      01000B2DH   LINE      CODE     ---       #381
      01000B43H   LINE      CODE     ---       #382
      01000B51H   LINE      CODE     ---       #383
      01000B5AH   LINE      CODE     ---       #384
      01000B6FH   LINE      CODE     ---       #385
      01000B6FH   LINE      CODE     ---       #386
      01000B98H   LINE      CODE     ---       #387
      01000B9EH   LINE      CODE     ---       #388
      01000BB3H   LINE      CODE     ---       #389
      01000BBCH   LINE      CODE     ---       #390
      01000BBFH   LINE      CODE     ---       #392
      01000BBFH   LINE      CODE     ---       #393
      01000BF1H   LINE      CODE     ---       #394
      01000C0BH   LINE      CODE     ---       #395
      01000C16H   LINE      CODE     ---       #396
      01000C1DH   LINE      CODE     ---       #397
      01000C1DH   LINE      CODE     ---       #398
      01000C1DH   LINE      CODE     ---       #399
      01000C1DH   LINE      CODE     ---       #400
      01000C20H   LINE      CODE     ---       #402
      01000C2EH   LINE      CODE     ---       #403
      01000C2EH   LINE      CODE     ---       #404
LX51 LINKER/LOCATER V4.66.93.0                                                        07/08/2019  20:09:53  PAGE 35


      01000C37H   LINE      CODE     ---       #405
      01000C37H   LINE      CODE     ---       #406
      01000C5CH   LINE      CODE     ---       #407
      01000C62H   LINE      CODE     ---       #408
      01000C70H   LINE      CODE     ---       #409
      01000C7BH   LINE      CODE     ---       #410
      01000C7DH   LINE      CODE     ---       #412
      01000C7DH   LINE      CODE     ---       #413
      01000CAAH   LINE      CODE     ---       #414
      01000CB9H   LINE      CODE     ---       #415
      01000CC4H   LINE      CODE     ---       #416
      01000CCBH   LINE      CODE     ---       #417
      01000CCBH   LINE      CODE     ---       #418
      01000CE7H   LINE      CODE     ---       #419
      01000CF6H   LINE      CODE     ---       #420
      01000CF9H   LINE      CODE     ---       #421
      01000D12H   LINE      CODE     ---       #422
      01000D30H   LINE      CODE     ---       #423
      01000D35H   LINE      CODE     ---       #424
      01000D37H   LINE      CODE     ---       #425
      ---         BLOCKEND  ---      ---       LVL=0

      01003EA2H   BLOCK     CODE     ---       LVL=0
      020093E8H   SYMBOL    XDATA    ---       pDir
      020093EBH   SYMBOL    XDATA    ---       pMatchString
      020093EEH   SYMBOL    XDATA    ---       pBuf
      01003EADH   BLOCK     CODE     NEAR LAB  LVL=1
      00000007H   SYMBOL    DATA     BYTE      Status
      020093F1H   SYMBOL    XDATA    BYTE      i
      ---         BLOCKEND  ---      ---       LVL=1
      01003EA2H   LINE      CODE     ---       #440
      01003EADH   LINE      CODE     ---       #441
      01003EADH   LINE      CODE     ---       #442
      01003EB3H   LINE      CODE     ---       #443
      01003EC4H   LINE      CODE     ---       #444
      01003ED2H   LINE      CODE     ---       #445
      01003EE0H   LINE      CODE     ---       #446
      01003F18H   LINE      CODE     ---       #447
      01003F20H   LINE      CODE     ---       #448
      ---         BLOCKEND  ---      ---       LVL=0

      0100166EH   BLOCK     CODE     ---       LVL=0
      00000007H   SYMBOL    DATA     BYTE      FileType
      0200938DH   SYMBOL    XDATA    WORD      FileNumber
      0200938FH   SYMBOL    XDATA    ---       pUpSpace
      02009392H   SYMBOL    XDATA    ---       pFileAddr
      02009395H   SYMBOL    XDATA    ---       pString
      0100166EH   LINE      CODE     ---       #464
      0100167FH   LINE      CODE     ---       #465
      0100167FH   LINE      CODE     ---       #466
      0100169DH   LINE      CODE     ---       #467
      0100169DH   LINE      CODE     ---       #468
      0100169DH   LINE      CODE     ---       #469
      0100169DH   LINE      CODE     ---       #470
      010016B5H   LINE      CODE     ---       #471
      010016BFH   LINE      CODE     ---       #472
      010016D7H   LINE      CODE     ---       #473
      010016E9H   LINE      CODE     ---       #474
      010016E9H   LINE      CODE     ---       #475
      010016ECH   LINE      CODE     ---       #476
      010016ECH   LINE      CODE     ---       #478
      010016ECH   LINE      CODE     ---       #479
      010016ECH   LINE      CODE     ---       #480
      01001704H   LINE      CODE     ---       #481
      0100170EH   LINE      CODE     ---       #482
LX51 LINKER/LOCATER V4.66.93.0                                                        07/08/2019  20:09:53  PAGE 36


      01001726H   LINE      CODE     ---       #483
      01001738H   LINE      CODE     ---       #484
      01001738H   LINE      CODE     ---       #485
      0100173AH   LINE      CODE     ---       #486
      0100173AH   LINE      CODE     ---       #488
      0100173AH   LINE      CODE     ---       #489
      0100173AH   LINE      CODE     ---       #490
      01001765H   LINE      CODE     ---       #491
      0100176FH   LINE      CODE     ---       #492
      01001787H   LINE      CODE     ---       #493
      010017AFH   LINE      CODE     ---       #494
      010017BBH   LINE      CODE     ---       #495
      010017BEH   LINE      CODE     ---       #496
      010017BEH   LINE      CODE     ---       #497
      010017BEH   LINE      CODE     ---       #498
      010017BEH   LINE      CODE     ---       #499
      010017E9H   LINE      CODE     ---       #500
      010017F3H   LINE      CODE     ---       #501
      0100180BH   LINE      CODE     ---       #502
      01001815H   LINE      CODE     ---       #503
      0100182DH   LINE      CODE     ---       #504
      01001837H   LINE      CODE     ---       #505
      0100184FH   LINE      CODE     ---       #506
      0100186DH   LINE      CODE     ---       #507
      0100187AH   LINE      CODE     ---       #508
      0100187CH   LINE      CODE     ---       #509
      0100187CH   LINE      CODE     ---       #510
      0100187CH   LINE      CODE     ---       #511
      0100187CH   LINE      CODE     ---       #512
      010018A7H   LINE      CODE     ---       #513
      010018B1H   LINE      CODE     ---       #514
      010018C9H   LINE      CODE     ---       #515
      010018E7H   LINE      CODE     ---       #516
      010018F7H   LINE      CODE     ---       #517
      010018F7H   LINE      CODE     ---       #518
      010018F7H   LINE      CODE     ---       #519
      010018F7H   LINE      CODE     ---       #520
      010018F7H   LINE      CODE     ---       #521
      010018F7H   LINE      CODE     ---       #522
      ---         BLOCKEND  ---      ---       LVL=0

      01004226H   BLOCK     CODE     ---       LVL=0
      0200938CH   SYMBOL    XDATA    ---       pMatchList
      01004231H   BLOCK     CODE     NEAR LAB  LVL=1
      00000007H   SYMBOL    DATA     BYTE      Status
      0200938FH   SYMBOL    XDATA    BYTE      i
      ---         BLOCKEND  ---      ---       LVL=1
      01004226H   LINE      CODE     ---       #534
      01004231H   LINE      CODE     ---       #535
      01004231H   LINE      CODE     ---       #536
      01004233H   LINE      CODE     ---       #537
      01004235H   LINE      CODE     ---       #538
      01004261H   LINE      CODE     ---       #539
      01004269H   LINE      CODE     ---       #540
      01004269H   LINE      CODE     ---       #541
      ---         BLOCKEND  ---      ---       LVL=0

      01003D1BH   BLOCK     CODE     ---       LVL=0
      0200939FH   SYMBOL    XDATA    ---       pSource
      020093A2H   SYMBOL    XDATA    ---       pDest
      020093A5H   SYMBOL    XDATA    ---       pCount
      01003D1BH   LINE      CODE     ---       #555
      01003D26H   LINE      CODE     ---       #556
      01003D26H   LINE      CODE     ---       #557
      01003D3EH   LINE      CODE     ---       #558
LX51 LINKER/LOCATER V4.66.93.0                                                        07/08/2019  20:09:53  PAGE 37


      01003D3EH   LINE      CODE     ---       #559
      01003D40H   LINE      CODE     ---       #561
      01003D40H   LINE      CODE     ---       #563
      01003D40H   LINE      CODE     ---       #564
      01003D60H   LINE      CODE     ---       #565
      01003D6AH   LINE      CODE     ---       #566
      01003D74H   LINE      CODE     ---       #567
      01003D8EH   LINE      CODE     ---       #569
      01003D9EH   LINE      CODE     ---       #570
      ---         BLOCKEND  ---      ---       LVL=0

      010018F8H   BLOCK     CODE     ---       LVL=0
      0200938CH   SYMBOL    XDATA    ---       pSource
      0200938FH   SYMBOL    XDATA    ---       pDest
      02009392H   SYMBOL    XDATA    ---       pResult
      02009395H   SYMBOL    XDATA    ---       pFileSize
      01001903H   BLOCK     CODE     NEAR LAB  LVL=1
      02009398H   SYMBOL    XDATA    BYTE      i
      02009399H   SYMBOL    XDATA    ---       pNow
      0200939CH   SYMBOL    XDATA    ---       pStatus
      ---         BLOCKEND  ---      ---       LVL=1
      010018F8H   LINE      CODE     ---       #586
      01001903H   LINE      CODE     ---       #587
      01001903H   LINE      CODE     ---       #588
      01001908H   LINE      CODE     ---       #589
      0100191DH   LINE      CODE     ---       #590
      01001924H   LINE      CODE     ---       #591
      01001937H   LINE      CODE     ---       #592
      01001937H   LINE      CODE     ---       #593
      0100193CH   LINE      CODE     ---       #594
      01001964H   LINE      CODE     ---       #595
      01001964H   LINE      CODE     ---       #596
      01001988H   LINE      CODE     ---       #597
      010019C5H   LINE      CODE     ---       #598
      010019DFH   LINE      CODE     ---       #599
      010019E8H   LINE      CODE     ---       #600
      010019E8H   LINE      CODE     ---       #601
      01001A25H   LINE      CODE     ---       #602
      01001A2FH   LINE      CODE     ---       #603
      01001A6CH   LINE      CODE     ---       #604
      01001AAAH   LINE      CODE     ---       #605
      01001AEFH   LINE      CODE     ---       #606
      01001B2FH   LINE      CODE     ---       #607
      01001B32H   LINE      CODE     ---       #608
      01001B32H   LINE      CODE     ---       #609
      01001B3FH   LINE      CODE     ---       #610
      01001B4CH   LINE      CODE     ---       #611
      01001B4EH   LINE      CODE     ---       #612
      ---         BLOCKEND  ---      ---       LVL=0

      010042ADH   BLOCK     CODE     VOID      LVL=0
      ---         BLOCKEND  ---      ---       LVL=0

      010042BBH   BLOCK     CODE     ---       LVL=0
      0200A5C1H   SYMBOL    XDATA    DWORD     AddrDgus
      0200A5C5H   SYMBOL    XDATA    BYTE      Flag
      010042C1H   BLOCK     CODE     NEAR LAB  LVL=1
      0200A5C5H   SYMBOL    XDATA    BYTE      Flag
      ---         BLOCKEND  ---      ---       LVL=1
      010042BBH   LINE      CODE     ---       #624
      010042C1H   LINE      CODE     ---       #625
      010042C1H   LINE      CODE     ---       #626
      010042C6H   LINE      CODE     ---       #628
      010042C6H   LINE      CODE     ---       #629
      010042E5H   LINE      CODE     ---       #630
LX51 LINKER/LOCATER V4.66.93.0                                                        07/08/2019  20:09:53  PAGE 38


      010042E5H   LINE      CODE     ---       #631
      010042EDH   LINE      CODE     ---       #632
      ---         BLOCKEND  ---      ---       LVL=0

      010032B2H   BLOCK     CODE     VOID      LVL=0
      ---         BLOCKEND  ---      ---       LVL=0

      010032C0H   BLOCK     CODE     ---       LVL=0
      0200A5B1H   SYMBOL    XDATA    ---       pBuf
      00000005H   SYMBOL    DATA     BYTE      Flag_EN
      0200A5B5H   SYMBOL    XDATA    BYTE      UpSpace
      0200A5B6H   SYMBOL    XDATA    DWORD     UpAddr
      0200A5BAH   SYMBOL    XDATA    WORD      FileSize
      010032C0H   LINE      CODE     ---       #648
      010032CBH   LINE      CODE     ---       #649
      010032CBH   LINE      CODE     ---       #650
      010032DFH   LINE      CODE     ---       #651
      010032F8H   LINE      CODE     ---       #652
      0100331FH   LINE      CODE     ---       #653
      01003346H   LINE      CODE     ---       #654
      0100336DH   LINE      CODE     ---       #655
      01003389H   LINE      CODE     ---       #656
      010033A2H   LINE      CODE     ---       #657
      010033BCH   LINE      CODE     ---       #658
      010033D0H   LINE      CODE     ---       #659
      ---         BLOCKEND  ---      ---       LVL=0

      01003BF8H   BLOCK     CODE     ---       LVL=0
      0200A5B1H   SYMBOL    XDATA    DWORD     AddrDgusHead
      0200A5B5H   SYMBOL    XDATA    DWORD     AddrDgusMesg
      0200A5B9H   SYMBOL    XDATA    ---       BufHead
      0200A5BCH   SYMBOL    XDATA    ---       BufMesg
      0200A5BFH   SYMBOL    XDATA    WORD      MesgSize
      01003BF8H   LINE      CODE     ---       #676
      01003BFEH   LINE      CODE     ---       #677
      01003BFEH   LINE      CODE     ---       #678
      01003C01H   LINE      CODE     ---       #679
      01003C26H   LINE      CODE     ---       #680
      01003C4FH   LINE      CODE     ---       #681
      01003C61H   LINE      CODE     ---       #682
      01003C61H   LINE      CODE     ---       #683
      01003C66H   LINE      CODE     ---       #684
      01003C69H   LINE      CODE     ---       #685
      01003C8EH   LINE      CODE     ---       #686
      01003C8EH   LINE      CODE     ---       #687
      ---         BLOCKEND  ---      ---       LVL=0

      0100109DH   BLOCK     CODE     ---       LVL=0
      0200938CH   SYMBOL    XDATA    ---       pPath
      0200938FH   SYMBOL    XDATA    BYTE      UpSpace
      02009390H   SYMBOL    XDATA    DWORD     AddrDgusPck
      02009394H   SYMBOL    XDATA    DWORD     AddrFileSave
      02009398H   SYMBOL    XDATA    DWORD     FileSize
      010010ABH   BLOCK     CODE     NEAR LAB  LVL=1
      0200939CH   SYMBOL    XDATA    ---       BufHead
      0200959CH   SYMBOL    XDATA    ---       BufMesg
      0200A59CH   SYMBOL    XDATA    BYTE      Count
      0200A59DH   SYMBOL    XDATA    WORD      PackSize
      0200A59FH   SYMBOL    XDATA    WORD      FirstPackSize
      0200A5A1H   SYMBOL    XDATA    DWORD     SectorOffset
      0200A5A5H   SYMBOL    XDATA    DWORD     FirstAddrFileSave
      0200A5A9H   SYMBOL    XDATA    DWORD     AddrDgusPackHead
      0200A5ADH   SYMBOL    XDATA    DWORD     AddrDgusPackMesg
      ---         BLOCKEND  ---      ---       LVL=1
      0100109DH   LINE      CODE     ---       #703
LX51 LINKER/LOCATER V4.66.93.0                                                        07/08/2019  20:09:53  PAGE 39


      010010ABH   LINE      CODE     ---       #704
      010010ABH   LINE      CODE     ---       #707
      010010B0H   LINE      CODE     ---       #708
      010010B8H   LINE      CODE     ---       #709
      010010CAH   LINE      CODE     ---       #710
      010010DEH   LINE      CODE     ---       #711
      010010EDH   LINE      CODE     ---       #712
      010010FCH   LINE      CODE     ---       #713
      01001110H   LINE      CODE     ---       #714
      01001130H   LINE      CODE     ---       #715
      01001155H   LINE      CODE     ---       #717
      01001155H   LINE      CODE     ---       #718
      01001166H   LINE      CODE     ---       #719
      01001170H   LINE      CODE     ---       #720
      01001170H   LINE      CODE     ---       #721
      01001184H   LINE      CODE     ---       #723
      0100119BH   LINE      CODE     ---       #724
      0100119BH   LINE      CODE     ---       #725
      010011B5H   LINE      CODE     ---       #726
      010011B5H   LINE      CODE     ---       #727
      010011BEH   LINE      CODE     ---       #728
      010011E0H   LINE      CODE     ---       #729
      010011E2H   LINE      CODE     ---       #731
      010011E2H   LINE      CODE     ---       #732
      010011F3H   LINE      CODE     ---       #733
      010011FDH   LINE      CODE     ---       #734
      010011FDH   LINE      CODE     ---       #735
      01001225H   LINE      CODE     ---       #736
      01001259H   LINE      CODE     ---       #737
      0100125FH   LINE      CODE     ---       #738
      0100125FH   LINE      CODE     ---       #739
      0100126CH   LINE      CODE     ---       #740
      01001272H   LINE      CODE     ---       #741
      01001272H   LINE      CODE     ---       #742
      010012C0H   LINE      CODE     ---       #743
      010012CFH   LINE      CODE     ---       #744
      010012EFH   LINE      CODE     ---       #745
      0100130EH   LINE      CODE     ---       #746
      01001311H   LINE      CODE     ---       #747
      01001339H   LINE      CODE     ---       #748
      01001361H   LINE      CODE     ---       #749
      ---         BLOCKEND  ---      ---       LVL=0

      01002BE6H   BLOCK     CODE     ---       LVL=0
      0200902EH   SYMBOL    XDATA    BYTE      FileType
      0200902FH   SYMBOL    XDATA    WORD      FileNumber
      01002BF1H   BLOCK     CODE     NEAR LAB  LVL=1
      02009031H   SYMBOL    XDATA    ---       String
      02009049H   SYMBOL    XDATA    ---       FilePath
      0200905FH   SYMBOL    XDATA    ---       FileList
      0200937FH   SYMBOL    XDATA    BYTE      UpSpace
      00000007H   SYMBOL    DATA     BYTE      Status
      02009380H   SYMBOL    XDATA    DWORD     AddrFile
      02009384H   SYMBOL    XDATA    DWORD     FileSize
      02009388H   SYMBOL    XDATA    DWORD     AddrDgusPack
      ---         BLOCKEND  ---      ---       LVL=1
      01002BE6H   LINE      CODE     ---       #764
      01002BF1H   LINE      CODE     ---       #765
      01002BF1H   LINE      CODE     ---       #769
      01002BF7H   LINE      CODE     ---       #770
      01002C13H   LINE      CODE     ---       #771
      01002C22H   LINE      CODE     ---       #772
      01002C31H   LINE      CODE     ---       #773
      01002C40H   LINE      CODE     ---       #775
      01002C59H   LINE      CODE     ---       #776
LX51 LINKER/LOCATER V4.66.93.0                                                        07/08/2019  20:09:53  PAGE 40


      01002C69H   LINE      CODE     ---       #778
      01002C97H   LINE      CODE     ---       #780
      01002CA0H   LINE      CODE     ---       #782
      01002CCFH   LINE      CODE     ---       #783
      01002CD5H   LINE      CODE     ---       #784
      01002CF1H   LINE      CODE     ---       #786
      01002CFAH   LINE      CODE     ---       #787
      01002D03H   LINE      CODE     ---       #790
      01002D4DH   LINE      CODE     ---       #791
      01002D4FH   LINE      CODE     ---       #792
      ---         BLOCKEND  ---      ---       LVL=0

      01002EB9H   BLOCK     CODE     ---       LVL=0
      020090BEH   SYMBOL    XDATA    ---       pFilePath
      020090C1H   SYMBOL    XDATA    ---       pBuf
      01002EC4H   BLOCK     CODE     NEAR LAB  LVL=1
      020090C4H   SYMBOL    XDATA    BYTE      Status
      020090C5H   SYMBOL    XDATA    ---       pDir
      020090C8H   SYMBOL    XDATA    ---       FatDir
      020090E8H   SYMBOL    XDATA    ---       pFatDir
      ---         BLOCKEND  ---      ---       LVL=1
      01002EB9H   LINE      CODE     ---       #806
      01002EC4H   LINE      CODE     ---       #807
      01002EC4H   LINE      CODE     ---       #808
      01002EC9H   LINE      CODE     ---       #809
      01002ED2H   LINE      CODE     ---       #811
      01002EE0H   LINE      CODE     ---       #813
      01002EEEH   LINE      CODE     ---       #814
      01002EFCH   LINE      CODE     ---       #815
      01002F1DH   LINE      CODE     ---       #816
      01002F32H   LINE      CODE     ---       #818
      01002F53H   LINE      CODE     ---       #819
      01002F7AH   LINE      CODE     ---       #820
      01002FA1H   LINE      CODE     ---       #821
      01002FC8H   LINE      CODE     ---       #822
      01002FEFH   LINE      CODE     ---       #823
      01003011H   LINE      CODE     ---       #824
      01003016H   LINE      CODE     ---       #825
      ---         BLOCKEND  ---      ---       LVL=0

      0100316DH   BLOCK     CODE     ---       LVL=0
      020090BEH   SYMBOL    XDATA    ---       pFilePath
      020090C1H   SYMBOL    XDATA    ---       pBuf
      01003178H   BLOCK     CODE     NEAR LAB  LVL=1
      00000007H   SYMBOL    DATA     BYTE      Status
      020090C4H   SYMBOL    XDATA    ---       pDir
      020090C7H   SYMBOL    XDATA    ---       FatDir
      020090E7H   SYMBOL    XDATA    ---       pFatDir
      ---         BLOCKEND  ---      ---       LVL=1
      0100316DH   LINE      CODE     ---       #839
      01003178H   LINE      CODE     ---       #840
      01003178H   LINE      CODE     ---       #841
      01003179H   LINE      CODE     ---       #842
      01003184H   LINE      CODE     ---       #844
      01003192H   LINE      CODE     ---       #846
      010031A0H   LINE      CODE     ---       #847
      010031AEH   LINE      CODE     ---       #848
      010031C2H   LINE      CODE     ---       #849
      010031D8H   LINE      CODE     ---       #850
      010031FFH   LINE      CODE     ---       #851
      01003226H   LINE      CODE     ---       #852
      0100324DH   LINE      CODE     ---       #853
      01003274H   LINE      CODE     ---       #854
      01003296H   LINE      CODE     ---       #855
      ---         BLOCKEND  ---      ---       LVL=0
LX51 LINKER/LOCATER V4.66.93.0                                                        07/08/2019  20:09:53  PAGE 41



      ---         MODULE    ---      ---       FILE_SYS
      0200B5E9H   PUBLIC    XDATA    ---       GlobalBuf
      020090EAH   PUBLIC    XDATA    BYTE      ?_CH376SetFileMessage?BYTE
      01001B4FH   PUBLIC    CODE     ---       _CH376SetFileMessage
      020090EBH   PUBLIC    XDATA    BYTE      ?_CH376GetFileMessage?BYTE
      01001FADH   PUBLIC    CODE     ---       _CH376GetFileMessage
      020093F2H   PUBLIC    XDATA    BYTE      ?_CH376MatchFile?BYTE
      01002A69H   PUBLIC    CODE     ---       _CH376MatchFile
      01004198H   PUBLIC    CODE     ---       _CH376ReadBlock
      010041E0H   PUBLIC    CODE     ---       _CH376WriteHostBlock
      0200B2E8H   PUBLIC    XDATA    BYTE      ?_CH376DiskReadSec?BYTE
      010035FCH   PUBLIC    CODE     ---       _CH376DiskReadSec
      0200B2E8H   PUBLIC    XDATA    BYTE      ?_CH376DiskWriteSec?BYTE
      010034F8H   PUBLIC    CODE     ---       _CH376DiskWriteSec
      010042EEH   PUBLIC    CODE     ---       _CH376SecLocate
      0200B2DBH   PUBLIC    XDATA    BYTE      ?_CH376SectorRead?BYTE
      010039B4H   PUBLIC    CODE     ---       _CH376SectorRead
      0200B2DBH   PUBLIC    XDATA    BYTE      ?_CH376SectorWrite?BYTE
      010038E2H   PUBLIC    CODE     ---       _CH376SectorWrite
      0100467BH   PUBLIC    CODE     ---       CH376GetFileSize
      01004676H   PUBLIC    CODE     ---       CH376DiskMount
      01004671H   PUBLIC    CODE     ---       CH376DiskReqSense
      0100466CH   PUBLIC    CODE     ---       CH376DiskConnect
      0100446BH   PUBLIC    CODE     ---       CH376GetIntStatus
      01004666H   PUBLIC    CODE     ---       _CH376SendCmdWaitInt
      01004659H   PUBLIC    CODE     ---       CH376EndDirInfo
      01003E22H   PUBLIC    CODE     ---       CH376Read32bitDat
      010045BBH   PUBLIC    CODE     ---       _CH376ReadVar32
      0200B5E2H   PUBLIC    XDATA    BYTE      ?_CH376WriteVar32?BYTE
      0100413AH   PUBLIC    CODE     ---       _CH376WriteVar32
      01004523H   PUBLIC    CODE     ---       _CH376WriteVar8
      010045A6H   PUBLIC    CODE     ---       _CH376CloseFile
      01004651H   PUBLIC    CODE     ---       _CH376FileCreate
      01004627H   PUBLIC    CODE     ---       _CH376FileOpenPath
      01003F96H   PUBLIC    CODE     ---       _CH376FileDeletePath
      0100458FH   PUBLIC    CODE     ---       _CH376DirCreate
      01003B50H   PUBLIC    CODE     ---       _CH376FileOpenDir
      01004649H   PUBLIC    CODE     ---       _CH376FileOpen
      01004641H   PUBLIC    CODE     ---       _CH376DeleteFile
      01004639H   PUBLIC    CODE     ---       CH376Error
      01004071H   PUBLIC    CODE     ---       _CH376SetFileName
      01000003H   PUBLIC    CODE     ---       Query376Interrupt
      01004495H   PUBLIC    CODE     ---       Wait376Interrupt
      010044E3H   PUBLIC    CODE     ---       _AlphabetTransfrom
      000000F1H   SFRSYM    DATA     BYTE      ADR_H
      00000080H   SFRSYM    DATA     BYTE      P0
      00000090H   SFRSYM    DATA     BYTE      P1
      000000A0H   SFRSYM    DATA     BYTE      P2
      000000B0H   SFRSYM    DATA     BYTE      P3
      000000F3H   SFRSYM    DATA     BYTE      ADR_L
      000000D0H.6 SFRSYM    DATA     BIT       AC
      00000094H   SFRSYM    DATA     BYTE      PAGESEL
      000000F2H   SFRSYM    DATA     BYTE      ADR_M
      000000A8H.7 SFRSYM    DATA     BIT       EA
      000000F8H   SFRSYM    DATA     BYTE      RAMMODE
      000000B7H   SFRSYM    DATA     BYTE      P0MDOUT
      000000BCH   SFRSYM    DATA     BYTE      P1MDOUT
      000000A8H   SFRSYM    DATA     BYTE      IEN0
      000000BDH   SFRSYM    DATA     BYTE      P2MDOUT
      000000B8H   SFRSYM    DATA     BYTE      IEN1
      000000BEH   SFRSYM    DATA     BYTE      P3MDOUT
      0000009AH   SFRSYM    DATA     BYTE      IEN2
      000000D1H   SFRSYM    DATA     BYTE      IEN3
      00000090H.4 SFRSYM    DATA     BIT       CH376_INT_WIRE
LX51 LINKER/LOCATER V4.66.93.0                                                        07/08/2019  20:09:53  PAGE 42


      000000F8H.4 SFRSYM    DATA     BIT       APP_ACK
      000000F4H   SFRSYM    DATA     BYTE      ADR_INC
      000000B8H.1 SFRSYM    DATA     BIT       ECAN
      000000D0H.7 SFRSYM    DATA     BIT       CY
      000000B8H.3 SFRSYM    DATA     BIT       ES2R
      000000B8H.5 SFRSYM    DATA     BIT       ES3R
      000000B8H.2 SFRSYM    DATA     BIT       ES2T
      000000B8H.4 SFRSYM    DATA     BIT       ES3T
      00000090H.3 SFRSYM    DATA     BIT       CH376_RD
      00000090H.1 SFRSYM    DATA     BIT       CH376_CS
      00000081H   SFRSYM    DATA     BYTE      SP
      000000D0H.2 SFRSYM    DATA     BIT       OV
      00000095H   SFRSYM    DATA     BYTE      D_PAGESEL
      000000F8H.7 SFRSYM    DATA     BIT       APP_REQ
      000000BFH   SFRSYM    DATA     BYTE      IRCON2
      000000BAH   SFRSYM    DATA     BYTE      SREL0H
      000000BBH   SFRSYM    DATA     BYTE      SREL1H
      00000087H   SFRSYM    DATA     BYTE      PCON
      000000F9H   SFRSYM    DATA     BYTE      PORTDRV
      000000AAH   SFRSYM    DATA     BYTE      SREL0L
      0000009DH   SFRSYM    DATA     BYTE      SREL1L
      00000089H   SFRSYM    DATA     BYTE      TMOD
      00000088H   SFRSYM    DATA     BYTE      TCON
      00000090H.2 SFRSYM    DATA     BIT       CH376_WR
      000000FFH   SFRSYM    DATA     BYTE      EXDATA
      00000097H   SFRSYM    DATA     BYTE      SCON2R
      000000ABH   SFRSYM    DATA     BYTE      SCON3R
      000000D9H   SFRSYM    DATA     BYTE      BODE2_DIV_H
      000000AEH   SFRSYM    DATA     BYTE      BODE3_DIV_H
      00000096H   SFRSYM    DATA     BYTE      SCON2T
      000000A7H   SFRSYM    DATA     BYTE      SCON3T
      000000E7H   SFRSYM    DATA     BYTE      BODE2_DIV_L
      00000088H.1 SFRSYM    DATA     BIT       IE0
      000000AFH   SFRSYM    DATA     BYTE      BODE3_DIV_L
      00000088H.3 SFRSYM    DATA     BIT       IE1
      000000C9H   SFRSYM    DATA     BYTE      MUX_SEL
      000000F0H   SFRSYM    DATA     BYTE      B
      000000E0H   SFRSYM    DATA     BYTE      ACC
      0000008FH   SFRSYM    DATA     BYTE      CAN_CR
      000000A8H.4 SFRSYM    DATA     BIT       ES0
      000000A9H   SFRSYM    DATA     BYTE      IP0
      000000A8H.1 SFRSYM    DATA     BIT       ET0
      000000B9H   SFRSYM    DATA     BYTE      IP1
      000000A8H.3 SFRSYM    DATA     BIT       ET1
      00000088H.5 SFRSYM    DATA     BIT       TF0
      000000FDH   SFRSYM    DATA     BYTE      DATA0
      000000A8H.5 SFRSYM    DATA     BIT       ET2
      00000098H.0 SFRSYM    DATA     BIT       RI0
      00000088H.7 SFRSYM    DATA     BIT       TF1
      000000E8H   SFRSYM    DATA     BYTE      CAN_ET
      000000FCH   SFRSYM    DATA     BYTE      DATA1
      000000C0H.6 SFRSYM    DATA     BIT       TF2
      0000008CH   SFRSYM    DATA     BYTE      TH0
      000000FBH   SFRSYM    DATA     BYTE      DATA2
      000000A8H.0 SFRSYM    DATA     BIT       EX0
      00000098H.1 SFRSYM    DATA     BIT       TI0
      0000008DH   SFRSYM    DATA     BYTE      TH1
      00000088H.0 SFRSYM    DATA     BIT       IT0
      00000091H   SFRSYM    DATA     BYTE      CAN_IR
      000000FAH   SFRSYM    DATA     BYTE      DATA3
      000000CDH   SFRSYM    DATA     BYTE      TH2
      000000A8H.2 SFRSYM    DATA     BIT       EX1
      00000088H.2 SFRSYM    DATA     BIT       IT1
      000000D0H.0 SFRSYM    DATA     BIT       P
      0000008AH   SFRSYM    DATA     BYTE      TL0
LX51 LINKER/LOCATER V4.66.93.0                                                        07/08/2019  20:09:53  PAGE 43


      0000008BH   SFRSYM    DATA     BYTE      TL1
      000000CCH   SFRSYM    DATA     BYTE      TL2
      000000F8H.6 SFRSYM    DATA     BIT       APP_EN
      000000D0H.3 SFRSYM    DATA     BIT       RS0
      000000D0H.4 SFRSYM    DATA     BIT       RS1
      00000088H.4 SFRSYM    DATA     BIT       TR0
      00000093H   SFRSYM    DATA     BYTE      DPC
      00000088H.6 SFRSYM    DATA     BIT       TR1
      000000E5H   SFRSYM    DATA     BYTE      MAC_MODE
      000000C8H.0 SFRSYM    DATA     BIT       TR2
      00000083H   SFRSYM    DATA     BYTE      DPH
      00000082H   SFRSYM    DATA     BYTE      DPL
      00000099H   SFRSYM    DATA     BYTE      SBUF0
      0000009CH   SFRSYM    DATA     BYTE      SBUF1
      00000098H   SFRSYM    DATA     BYTE      SCON0
      0000009BH   SFRSYM    DATA     BYTE      SCON1
      000000D8H   SFRSYM    DATA     BYTE      ADCON
      000000C8H   SFRSYM    DATA     BYTE      T2CON
      000000E6H   SFRSYM    DATA     BYTE      DIV_MODE
      000000F8H.5 SFRSYM    DATA     BIT       APP_RW
      000000CBH   SFRSYM    DATA     BYTE      TRL2H
      0000009FH   SFRSYM    DATA     BYTE      SBUF2_RX
      000000ADH   SFRSYM    DATA     BYTE      SBUF3_RX
      0000008EH   SFRSYM    DATA     BYTE      CKCON
      0000009EH   SFRSYM    DATA     BYTE      SBUF2_TX
      000000ACH   SFRSYM    DATA     BYTE      SBUF3_TX
      000000CAH   SFRSYM    DATA     BYTE      TRL2L
      000000FEH   SFRSYM    DATA     BYTE      EXADR
      000000D0H.5 SFRSYM    DATA     BIT       F0
      000000D0H.1 SFRSYM    DATA     BIT       F1
      000000D0H   SFRSYM    DATA     BYTE      PSW
      000000C0H   SFRSYM    DATA     BYTE      IRCON
      00000090H.0 SFRSYM    DATA     BIT       CH376_A0

      010044E3H   BLOCK     CODE     ---       LVL=0
      00000001H   SYMBOL    DATA     ---       name
      010044E3H   BLOCK     CODE     NEAR LAB  LVL=1
      00000001H   SYMBOL    DATA     ---       c
      ---         BLOCKEND  ---      ---       LVL=1
      010044E3H   LINE      CODE     ---       #52
      010044E3H   LINE      CODE     ---       #53
      010044E3H   LINE      CODE     ---       #55
      010044E8H   LINE      CODE     ---       #56
      010044E8H   LINE      CODE     ---       #57
      010044FAH   LINE      CODE     ---       #58
      01004503H   LINE      CODE     ---       #59
      ---         BLOCKEND  ---      ---       LVL=0

      01004495H   BLOCK     CODE     ---       LVL=0
      01004495H   BLOCK     CODE     NEAR LAB  LVL=1
      0200B5E3H   SYMBOL    XDATA    DWORD     i
      ---         BLOCKEND  ---      ---       LVL=1
      01004495H   LINE      CODE     ---       #61
      01004495H   LINE      CODE     ---       #62
      01004495H   LINE      CODE     ---       #63
      0100449FH   LINE      CODE     ---       #64
      010044A5H   LINE      CODE     ---       #65
      010044A5H   LINE      CODE     ---       #66
      010044B9H   LINE      CODE     ---       #67
      010044B9H   LINE      CODE     ---       #68
      ---         BLOCKEND  ---      ---       LVL=0

      01000003H   BLOCK     CODE     ---       LVL=0
      01000003H   LINE      CODE     ---       #71
      01000003H   LINE      CODE     ---       #72
LX51 LINKER/LOCATER V4.66.93.0                                                        07/08/2019  20:09:53  PAGE 44


      01000003H   LINE      CODE     ---       #73
      0100000AH   LINE      CODE     ---       #74
      ---         BLOCKEND  ---      ---       LVL=0

      01004069H   BLOCK     CODE     VOID      LVL=0
      ---         BLOCKEND  ---      ---       LVL=0

      01004071H   BLOCK     CODE     ---       LVL=0
      0200B5E2H   SYMBOL    XDATA    ---       name
      0200B5E5H   SYMBOL    XDATA    BYTE      c
      0100407CH   BLOCK     CODE     NEAR LAB  LVL=1
      0200B5E5H   SYMBOL    XDATA    BYTE      c
      ---         BLOCKEND  ---      ---       LVL=1
      01004071H   LINE      CODE     ---       #76
      0100407CH   LINE      CODE     ---       #77
      0100407CH   LINE      CODE     ---       #79
      01004081H   LINE      CODE     ---       #80
      01004094H   LINE      CODE     ---       #81
      01004096H   LINE      CODE     ---       #82
      0100409CH   LINE      CODE     ---       #83
      0100409CH   LINE      CODE     ---       #84
      010040A6H   LINE      CODE     ---       #85
      010040B9H   LINE      CODE     ---       #86
      010040C7H   LINE      CODE     ---       #87
      010040CFH   LINE      CODE     ---       #88
      010040D1H   LINE      CODE     ---       #89
      ---         BLOCKEND  ---      ---       LVL=0

      01004639H   BLOCK     CODE     ---       LVL=0
      01004639H   LINE      CODE     ---       #91
      01004639H   LINE      CODE     ---       #92
      01004639H   LINE      CODE     ---       #93
      0100463EH   LINE      CODE     ---       #94
      01004640H   LINE      CODE     ---       #95
      ---         BLOCKEND  ---      ---       LVL=0

      01004641H   BLOCK     CODE     ---       LVL=0
      00000001H   SYMBOL    DATA     ---       pName
      01004641H   LINE      CODE     ---       #97
      01004641H   LINE      CODE     ---       #98
      01004641H   LINE      CODE     ---       #99
      01004644H   LINE      CODE     ---       #100
      ---         BLOCKEND  ---      ---       LVL=0

      01004649H   BLOCK     CODE     ---       LVL=0
      00000001H   SYMBOL    DATA     ---       name
      01004649H   LINE      CODE     ---       #103
      01004649H   LINE      CODE     ---       #104
      01004649H   LINE      CODE     ---       #105
      0100464CH   LINE      CODE     ---       #106
      ---         BLOCKEND  ---      ---       LVL=0

      01003B45H   BLOCK     CODE     VOID      LVL=0
      ---         BLOCKEND  ---      ---       LVL=0

      01003B50H   BLOCK     CODE     ---       LVL=0
      0200B2DBH   SYMBOL    XDATA    ---       PathName
      0200B2DEH   SYMBOL    XDATA    BYTE      StopName
      0200B2DFH   SYMBOL    XDATA    BYTE      i
      00000007H   SYMBOL    DATA     BYTE      s
      01003B5EH   BLOCK     CODE     NEAR LAB  LVL=1
      0200B2DFH   SYMBOL    XDATA    BYTE      i
      00000007H   SYMBOL    DATA     BYTE      s
      ---         BLOCKEND  ---      ---       LVL=1
      01003B50H   LINE      CODE     ---       #119
LX51 LINKER/LOCATER V4.66.93.0                                                        07/08/2019  20:09:53  PAGE 45


      01003B5EH   LINE      CODE     ---       #121
      01003B5EH   LINE      CODE     ---       #123
      01003B60H   LINE      CODE     ---       #124
      01003B63H   LINE      CODE     ---       #125
      01003B63H   LINE      CODE     ---       #126
      01003B63H   LINE      CODE     ---       #127
      01003B8FH   LINE      CODE     ---       #128
      01003BB0H   LINE      CODE     ---       #129
      01003BB5H   LINE      CODE     ---       #130
      01003BC9H   LINE      CODE     ---       #131
      01003BD9H   LINE      CODE     ---       #132
      01003BD9H   LINE      CODE     ---       #133
      01003BDFH   LINE      CODE     ---       #134
      01003BDFH   LINE      CODE     ---       #135
      01003BE7H   LINE      CODE     ---       #136
      01003BEFH   LINE      CODE     ---       #138
      01003BEFH   LINE      CODE     ---       #139
      01003BF4H   LINE      CODE     ---       #140
      01003BF7H   LINE      CODE     ---       #141
      01003BF7H   LINE      CODE     ---       #142
      01003BF7H   LINE      CODE     ---       #143
      ---         BLOCKEND  ---      ---       LVL=0

      0100458FH   BLOCK     CODE     ---       LVL=0
      00000001H   SYMBOL    DATA     ---       PathName
      0100458FH   LINE      CODE     ---       #145
      0100458FH   LINE      CODE     ---       #146
      0100458FH   LINE      CODE     ---       #147
      01004592H   LINE      CODE     ---       #148
      010045A1H   LINE      CODE     ---       #149
      ---         BLOCKEND  ---      ---       LVL=0

      01003F96H   BLOCK     CODE     ---       LVL=0
      020090B2H   SYMBOL    XDATA    ---       PathName
      01003FA1H   BLOCK     CODE     NEAR LAB  LVL=1
      00000007H   SYMBOL    DATA     BYTE      s
      ---         BLOCKEND  ---      ---       LVL=1
      01003F96H   LINE      CODE     ---       #152
      01003FA1H   LINE      CODE     ---       #153
      01003FA1H   LINE      CODE     ---       #155
      01003FA5H   LINE      CODE     ---       #156
      01003FA5H   LINE      CODE     ---       #157
      01003FCAH   LINE      CODE     ---       #158
      01003FDFH   LINE      CODE     ---       #159
      01003FDFH   LINE      CODE     ---       #160
      01003FE8H   LINE      CODE     ---       #161
      01003FF4H   LINE      CODE     ---       #162
      01003FF4H   LINE      CODE     ---       #163
      01003FFAH   LINE      CODE     ---       #164
      01003FFAH   LINE      CODE     ---       #165
      01003FFFH   LINE      CODE     ---       #166
      ---         BLOCKEND  ---      ---       LVL=0

      0100461FH   BLOCK     CODE     VOID      LVL=0
      ---         BLOCKEND  ---      ---       LVL=0

      01004627H   BLOCK     CODE     ---       LVL=0
      00000001H   SYMBOL    DATA     ---       PathName
      01004627H   LINE      CODE     ---       #168
      01004627H   LINE      CODE     ---       #169
      01004627H   LINE      CODE     ---       #170
      ---         BLOCKEND  ---      ---       LVL=0

      01004651H   BLOCK     CODE     ---       LVL=0
      00000001H   SYMBOL    DATA     ---       PathName
LX51 LINKER/LOCATER V4.66.93.0                                                        07/08/2019  20:09:53  PAGE 46


      01004651H   LINE      CODE     ---       #173
      01004651H   LINE      CODE     ---       #174
      01004651H   LINE      CODE     ---       #175
      01004654H   LINE      CODE     ---       #176
      ---         BLOCKEND  ---      ---       LVL=0
      00000007H   SYMBOL    DATA     BYTE      s

      010045A6H   BLOCK     CODE     ---       LVL=0
      0200B5E2H   SYMBOL    XDATA    BYTE      param
      010045A6H   LINE      CODE     ---       #197
      010045ABH   LINE      CODE     ---       #198
      010045ABH   LINE      CODE     ---       #199
      010045B0H   LINE      CODE     ---       #200
      010045B8H   LINE      CODE     ---       #201
      ---         BLOCKEND  ---      ---       LVL=0

      01004523H   BLOCK     CODE     ---       LVL=0
      02009443H   SYMBOL    XDATA    BYTE      var
      02009444H   SYMBOL    XDATA    BYTE      dat
      01004523H   LINE      CODE     ---       #204
      0100452BH   LINE      CODE     ---       #205
      0100452BH   LINE      CODE     ---       #206
      01004530H   LINE      CODE     ---       #207
      01004538H   LINE      CODE     ---       #208
      ---         BLOCKEND  ---      ---       LVL=0
      00000007H   SYMBOL    DATA     BYTE      c0

      0100413AH   BLOCK     CODE     ---       LVL=0
      0200B5E2H   SYMBOL    XDATA    BYTE      var
      0200B5E3H   SYMBOL    XDATA    DWORD     dat
      0100413AH   LINE      CODE     ---       #220
      0100413FH   LINE      CODE     ---       #221
      0100413FH   LINE      CODE     ---       #222
      01004144H   LINE      CODE     ---       #223
      0100414CH   LINE      CODE     ---       #224
      01004157H   LINE      CODE     ---       #225
      01004164H   LINE      CODE     ---       #226
      0100417AH   LINE      CODE     ---       #227
      ---         BLOCKEND  ---      ---       LVL=0

      010045BBH   BLOCK     CODE     ---       LVL=0
      0200B2DBH   SYMBOL    XDATA    BYTE      var
      010045BBH   LINE      CODE     ---       #230
      010045C0H   LINE      CODE     ---       #231
      010045C0H   LINE      CODE     ---       #232
      010045C5H   LINE      CODE     ---       #233
      010045CDH   LINE      CODE     ---       #234
      ---         BLOCKEND  ---      ---       LVL=0

      01003E22H   BLOCK     CODE     ---       LVL=0
      01003E22H   BLOCK     CODE     NEAR LAB  LVL=1
      0200B2E8H   SYMBOL    XDATA    BYTE      c0
      0200B2E9H   SYMBOL    XDATA    BYTE      c1
      0200B2EAH   SYMBOL    XDATA    BYTE      c2
      0200B2EBH   SYMBOL    XDATA    BYTE      c3
      ---         BLOCKEND  ---      ---       LVL=1
      01003E22H   LINE      CODE     ---       #237
      01003E22H   LINE      CODE     ---       #238
      01003E22H   LINE      CODE     ---       #240
      01003E2AH   LINE      CODE     ---       #241
      01003E32H   LINE      CODE     ---       #242
      01003E3AH   LINE      CODE     ---       #243
      01003E42H   LINE      CODE     ---       #244
      01003EA1H   LINE      CODE     ---       #245
      ---         BLOCKEND  ---      ---       LVL=0
LX51 LINKER/LOCATER V4.66.93.0                                                        07/08/2019  20:09:53  PAGE 47



      01004659H   BLOCK     CODE     ---       LVL=0
      01004659H   LINE      CODE     ---       #255
      01004659H   LINE      CODE     ---       #256
      01004659H   LINE      CODE     ---       #257
      ---         BLOCKEND  ---      ---       LVL=0

      01004666H   BLOCK     CODE     ---       LVL=0
      00000007H   SYMBOL    DATA     BYTE      mCmd
      01004666H   LINE      CODE     ---       #260
      01004666H   LINE      CODE     ---       #261
      01004666H   LINE      CODE     ---       #262
      01004669H   LINE      CODE     ---       #263
      ---         BLOCKEND  ---      ---       LVL=0

      0100446BH   BLOCK     CODE     ---       LVL=0
      0100446BH   BLOCK     CODE     NEAR LAB  LVL=1
      0200B5E7H   SYMBOL    XDATA    BYTE      i
      0200B5E8H   SYMBOL    XDATA    BYTE      Data
      ---         BLOCKEND  ---      ---       LVL=1
      0100446BH   LINE      CODE     ---       #266
      0100446BH   LINE      CODE     ---       #267
      0100446BH   LINE      CODE     ---       #269
      01004470H   LINE      CODE     ---       #270
      0100447CH   LINE      CODE     ---       #271
      0100447CH   LINE      CODE     ---       #272
      01004484H   LINE      CODE     ---       #273
      01004487H   LINE      CODE     ---       #274
      0100448FH   LINE      CODE     ---       #275
      01004494H   LINE      CODE     ---       #276
      ---         BLOCKEND  ---      ---       LVL=0

      0100466CH   BLOCK     CODE     ---       LVL=0
      0100466CH   LINE      CODE     ---       #278
      0100466CH   LINE      CODE     ---       #279
      0100466CH   LINE      CODE     ---       #280
      ---         BLOCKEND  ---      ---       LVL=0

      01004671H   BLOCK     CODE     ---       LVL=0
      01004671H   BLOCK     CODE     NEAR LAB  LVL=1
      00000007H   SYMBOL    DATA     BYTE      s
      ---         BLOCKEND  ---      ---       LVL=1
      01004671H   LINE      CODE     ---       #283
      01004671H   LINE      CODE     ---       #284
      01004671H   LINE      CODE     ---       #286
      ---         BLOCKEND  ---      ---       LVL=0

      01004676H   BLOCK     CODE     ---       LVL=0
      01004676H   LINE      CODE     ---       #290
      01004676H   LINE      CODE     ---       #291
      01004676H   LINE      CODE     ---       #292
      ---         BLOCKEND  ---      ---       LVL=0

      0100467BH   BLOCK     CODE     ---       LVL=0
      0100467BH   LINE      CODE     ---       #300
      0100467BH   LINE      CODE     ---       #301
      0100467BH   LINE      CODE     ---       #302
      ---         BLOCKEND  ---      ---       LVL=0

      010038E2H   BLOCK     CODE     ---       LVL=0
      0200B2DBH   SYMBOL    XDATA    ---       buf
      0200B2DEH   SYMBOL    XDATA    BYTE      ReqCount
      0200B2DFH   SYMBOL    XDATA    ---       RealCount
      010038F0H   BLOCK     CODE     NEAR LAB  LVL=1
      0200B2E2H   SYMBOL    XDATA    BYTE      s
LX51 LINKER/LOCATER V4.66.93.0                                                        07/08/2019  20:09:53  PAGE 48


      0200B2E3H   SYMBOL    XDATA    BYTE      cnt
      0200B2E4H   SYMBOL    XDATA    DWORD     StaSec
      ---         BLOCKEND  ---      ---       LVL=1
      010038E2H   LINE      CODE     ---       #305
      010038F0H   LINE      CODE     ---       #307
      010038F0H   LINE      CODE     ---       #311
      01003902H   LINE      CODE     ---       #313
      01003902H   LINE      CODE     ---       #314
      01003907H   LINE      CODE     ---       #315
      0100390FH   LINE      CODE     ---       #316
      01003917H   LINE      CODE     ---       #317
      0100391EH   LINE      CODE     ---       #318
      01003923H   LINE      CODE     ---       #319
      01003926H   LINE      CODE     ---       #320
      0100392EH   LINE      CODE     ---       #321
      01003931H   LINE      CODE     ---       #322
      01003934H   LINE      CODE     ---       #323
      01003937H   LINE      CODE     ---       #324
      01003940H   LINE      CODE     ---       #325
      01003946H   LINE      CODE     ---       #326
      0100396DH   LINE      CODE     ---       #327
      01003974H   LINE      CODE     ---       #328
      01003984H   LINE      CODE     ---       #329
      01003998H   LINE      CODE     ---       #330
      010039A9H   LINE      CODE     ---       #331
      010039A9H   LINE      CODE     ---       #332
      010039AEH   LINE      CODE     ---       #334
      010039B3H   LINE      CODE     ---       #335
      ---         BLOCKEND  ---      ---       LVL=0

      010039B4H   BLOCK     CODE     ---       LVL=0
      0200B2DBH   SYMBOL    XDATA    ---       buf
      0200B2DEH   SYMBOL    XDATA    BYTE      ReqCount
      0200B2DFH   SYMBOL    XDATA    ---       RealCount
      010039C2H   BLOCK     CODE     NEAR LAB  LVL=1
      0200B2E2H   SYMBOL    XDATA    BYTE      s
      0200B2E3H   SYMBOL    XDATA    BYTE      cnt
      0200B2E4H   SYMBOL    XDATA    DWORD     StaSec
      ---         BLOCKEND  ---      ---       LVL=1
      010039B4H   LINE      CODE     ---       #337
      010039C2H   LINE      CODE     ---       #338
      010039C2H   LINE      CODE     ---       #341
      010039D4H   LINE      CODE     ---       #343
      010039D4H   LINE      CODE     ---       #344
      010039D9H   LINE      CODE     ---       #345
      010039E1H   LINE      CODE     ---       #346
      010039E9H   LINE      CODE     ---       #347
      010039F0H   LINE      CODE     ---       #348
      010039F5H   LINE      CODE     ---       #349
      010039F8H   LINE      CODE     ---       #350
      01003A00H   LINE      CODE     ---       #351
      01003A03H   LINE      CODE     ---       #352
      01003A06H   LINE      CODE     ---       #353
      01003A09H   LINE      CODE     ---       #354
      01003A12H   LINE      CODE     ---       #355
      01003A18H   LINE      CODE     ---       #356
      01003A3FH   LINE      CODE     ---       #357
      01003A46H   LINE      CODE     ---       #358
      01003A56H   LINE      CODE     ---       #359
      01003A6AH   LINE      CODE     ---       #360
      01003A7BH   LINE      CODE     ---       #361
      01003A7BH   LINE      CODE     ---       #362
      01003A80H   LINE      CODE     ---       #363
      01003A85H   LINE      CODE     ---       #364
      ---         BLOCKEND  ---      ---       LVL=0
LX51 LINKER/LOCATER V4.66.93.0                                                        07/08/2019  20:09:53  PAGE 49



      010042EEH   BLOCK     CODE     ---       LVL=0
      0200B2DBH   SYMBOL    XDATA    DWORD     offset
      010042EEH   LINE      CODE     ---       #366
      010042F4H   LINE      CODE     ---       #369
      010042F4H   LINE      CODE     ---       #370
      010042F9H   LINE      CODE     ---       #371
      01004304H   LINE      CODE     ---       #372
      01004311H   LINE      CODE     ---       #373
      01004327H   LINE      CODE     ---       #374
      0100432CH   LINE      CODE     ---       #375
      ---         BLOCKEND  ---      ---       LVL=0

      010034F8H   BLOCK     CODE     ---       LVL=0
      0200B2E8H   SYMBOL    XDATA    ---       buf
      0200B2EBH   SYMBOL    XDATA    DWORD     iLbaStart
      0200B2EFH   SYMBOL    XDATA    BYTE      iSectorCount
      01003507H   BLOCK     CODE     NEAR LAB  LVL=1
      0200B2F0H   SYMBOL    XDATA    BYTE      s
      0200B2F1H   SYMBOL    XDATA    BYTE      err
      0200B2F2H   SYMBOL    XDATA    WORD      mBlockCount
      ---         BLOCKEND  ---      ---       LVL=1
      010034F8H   LINE      CODE     ---       #378
      01003507H   LINE      CODE     ---       #381
      01003507H   LINE      CODE     ---       #384
      01003517H   LINE      CODE     ---       #385
      01003517H   LINE      CODE     ---       #386
      0100351CH   LINE      CODE     ---       #387
      01003527H   LINE      CODE     ---       #388
      01003534H   LINE      CODE     ---       #389
      0100354AH   LINE      CODE     ---       #390
      01003560H   LINE      CODE     ---       #391
      01003568H   LINE      CODE     ---       #392
      0100358CH   LINE      CODE     ---       #393
      0100358CH   LINE      CODE     ---       #394
      01003594H   LINE      CODE     ---       #395
      01003598H   LINE      CODE     ---       #396
      01003598H   LINE      CODE     ---       #397
      010035A8H   LINE      CODE     ---       #398
      010035ADH   LINE      CODE     ---       #399
      010035B7H   LINE      CODE     ---       #400
      010035B7H   LINE      CODE     ---       #401
      010035B7H   LINE      CODE     ---       #402
      010035C7H   LINE      CODE     ---       #403
      010035D1H   LINE      CODE     ---       #404
      010035D1H   LINE      CODE     ---       #405
      010035D9H   LINE      CODE     ---       #406
      010035E0H   LINE      CODE     ---       #407
      010035E0H   LINE      CODE     ---       #408
      010035EAH   LINE      CODE     ---       #409
      010035EDH   LINE      CODE     ---       #410
      010035F6H   LINE      CODE     ---       #411
      010035FBH   LINE      CODE     ---       #412
      ---         BLOCKEND  ---      ---       LVL=0

      010035FCH   BLOCK     CODE     ---       LVL=0
      0200B2E8H   SYMBOL    XDATA    ---       buf
      0200B2EBH   SYMBOL    XDATA    DWORD     iLbaStart
      0200B2EFH   SYMBOL    XDATA    BYTE      iSectorCount
      0100360BH   BLOCK     CODE     NEAR LAB  LVL=1
      0200B2F0H   SYMBOL    XDATA    BYTE      s
      0200B2F1H   SYMBOL    XDATA    BYTE      err
      0200B2F2H   SYMBOL    XDATA    WORD      mBlockCount
      ---         BLOCKEND  ---      ---       LVL=1
      010035FCH   LINE      CODE     ---       #414
LX51 LINKER/LOCATER V4.66.93.0                                                        07/08/2019  20:09:53  PAGE 50


      0100360BH   LINE      CODE     ---       #416
      0100360BH   LINE      CODE     ---       #419
      0100361BH   LINE      CODE     ---       #420
      0100361BH   LINE      CODE     ---       #421
      01003620H   LINE      CODE     ---       #422
      0100362BH   LINE      CODE     ---       #423
      01003638H   LINE      CODE     ---       #424
      0100364EH   LINE      CODE     ---       #425
      01003664H   LINE      CODE     ---       #426
      0100366CH   LINE      CODE     ---       #427
      01003690H   LINE      CODE     ---       #428
      01003690H   LINE      CODE     ---       #429
      01003698H   LINE      CODE     ---       #430
      0100369CH   LINE      CODE     ---       #431
      0100369CH   LINE      CODE     ---       #432
      010036A7H   LINE      CODE     ---       #433
      010036ACH   LINE      CODE     ---       #434
      010036BAH   LINE      CODE     ---       #435
      010036BAH   LINE      CODE     ---       #436
      010036BAH   LINE      CODE     ---       #437
      010036CAH   LINE      CODE     ---       #438
      010036D4H   LINE      CODE     ---       #439
      010036D4H   LINE      CODE     ---       #440
      010036DCH   LINE      CODE     ---       #441
      010036E3H   LINE      CODE     ---       #442
      010036E3H   LINE      CODE     ---       #443
      010036EDH   LINE      CODE     ---       #444
      010036F0H   LINE      CODE     ---       #445
      010036F9H   LINE      CODE     ---       #446
      010036FEH   LINE      CODE     ---       #447
      ---         BLOCKEND  ---      ---       LVL=0

      010041E0H   BLOCK     CODE     ---       LVL=0
      0200B2F4H   SYMBOL    XDATA    ---       buf
      0200B2F7H   SYMBOL    XDATA    BYTE      len
      010041E0H   LINE      CODE     ---       #449
      010041EEH   LINE      CODE     ---       #450
      010041EEH   LINE      CODE     ---       #451
      010041F3H   LINE      CODE     ---       #452
      010041FBH   LINE      CODE     ---       #453
      01004201H   LINE      CODE     ---       #454
      01004201H   LINE      CODE     ---       #456
      01004201H   LINE      CODE     ---       #457
      01004213H   LINE      CODE     ---       #458
      0100421DH   LINE      CODE     ---       #459
      0100421DH   LINE      CODE     ---       #460
      01004225H   LINE      CODE     ---       #461
      01004225H   LINE      CODE     ---       #462
      ---         BLOCKEND  ---      ---       LVL=0

      01004190H   BLOCK     CODE     VOID      LVL=0
      ---         BLOCKEND  ---      ---       LVL=0

      01004198H   BLOCK     CODE     ---       LVL=0
      0200B2F4H   SYMBOL    XDATA    ---       buf
      0200B2F7H   SYMBOL    XDATA    BYTE      s
      0200B2F8H   SYMBOL    XDATA    BYTE      l
      010041A3H   BLOCK     CODE     NEAR LAB  LVL=1
      0200B2F7H   SYMBOL    XDATA    BYTE      s
      0200B2F8H   SYMBOL    XDATA    BYTE      l
      ---         BLOCKEND  ---      ---       LVL=1
      01004198H   LINE      CODE     ---       #464
      010041A3H   LINE      CODE     ---       #465
      010041A3H   LINE      CODE     ---       #467
      010041A8H   LINE      CODE     ---       #468
LX51 LINKER/LOCATER V4.66.93.0                                                        07/08/2019  20:09:53  PAGE 51


      010041B4H   LINE      CODE     ---       #469
      010041B6H   LINE      CODE     ---       #470
      010041B6H   LINE      CODE     ---       #472
      010041B6H   LINE      CODE     ---       #473
      010041C8H   LINE      CODE     ---       #474
      010041D2H   LINE      CODE     ---       #475
      010041D2H   LINE      CODE     ---       #476
      010041DAH   LINE      CODE     ---       #477
      010041DAH   LINE      CODE     ---       #478
      010041DFH   LINE      CODE     ---       #479
      ---         BLOCKEND  ---      ---       LVL=0

      01002A69H   BLOCK     CODE     ---       LVL=0
      020093F2H   SYMBOL    XDATA    ---       String
      020093F5H   SYMBOL    XDATA    ---       PathName
      020093F8H   SYMBOL    XDATA    ---       MatchLish
      01002A74H   BLOCK     CODE     NEAR LAB  LVL=1
      020093FBH   SYMBOL    XDATA    BYTE      s
      020093FCH   SYMBOL    XDATA    BYTE      FileCount
      00000007H   SYMBOL    DATA     BYTE      i
      020093FDH   SYMBOL    XDATA    ---       pBuf
      0200943DH   SYMBOL    XDATA    ---       pNameBuf
      02009440H   SYMBOL    XDATA    ---       pDir
      ---         BLOCKEND  ---      ---       LVL=1
      01002A69H   LINE      CODE     ---       #518
      01002A74H   LINE      CODE     ---       #519
      01002A74H   LINE      CODE     ---       #524
      01002A85H   LINE      CODE     ---       #525
      01002A90H   LINE      CODE     ---       #526
      01002A97H   LINE      CODE     ---       #527
      01002A9DH   LINE      CODE     ---       #528
      01002AA2H   LINE      CODE     ---       #529
      01002AB7H   LINE      CODE     ---       #530
      01002AB7H   LINE      CODE     ---       #531
      01002ABFH   LINE      CODE     ---       #532
      01002AC6H   LINE      CODE     ---       #533
      01002AC6H   LINE      CODE     ---       #534
      01002ACFH   LINE      CODE     ---       #535
      01002AD4H   LINE      CODE     ---       #536
      01002AE5H   LINE      CODE     ---       #537
      01002AF0H   LINE      CODE     ---       #538
      01002B05H   LINE      CODE     ---       #539
      01002B1AH   LINE      CODE     ---       #540
      01002B26H   LINE      CODE     ---       #541
      01002B26H   LINE      CODE     ---       #542
      01002B3DH   LINE      CODE     ---       #543
      01002B3DH   LINE      CODE     ---       #544
      01002B42H   LINE      CODE     ---       #545
      01002B42H   LINE      CODE     ---       #546
      01002B57H   LINE      CODE     ---       #547
      01002B57H   LINE      CODE     ---       #548
      01002B7AH   LINE      CODE     ---       #549
      01002B84H   LINE      CODE     ---       #550
      01002B84H   LINE      CODE     ---       #551
      01002B87H   LINE      CODE     ---       #552
      01002B96H   LINE      CODE     ---       #553
      01002BB8H   LINE      CODE     ---       #554
      01002BC2H   LINE      CODE     ---       #555
      01002BC4H   LINE      CODE     ---       #556
      01002BCCH   LINE      CODE     ---       #557
      01002BD5H   LINE      CODE     ---       #558
      01002BE0H   LINE      CODE     ---       #559
      01002BE5H   LINE      CODE     ---       #560
      ---         BLOCKEND  ---      ---       LVL=0

LX51 LINKER/LOCATER V4.66.93.0                                                        07/08/2019  20:09:53  PAGE 52


      01001FADH   BLOCK     CODE     ---       LVL=0
      020090EBH   SYMBOL    XDATA    ---       pFilePath
      020090EEH   SYMBOL    XDATA    ---       pDir
      01001FB8H   BLOCK     CODE     NEAR LAB  LVL=1
      020090F1H   SYMBOL    XDATA    ---       Buf
      02009131H   SYMBOL    XDATA    BYTE      Status
      02009132H   SYMBOL    XDATA    ---       pFile
      ---         BLOCKEND  ---      ---       LVL=1
      01001FADH   LINE      CODE     ---       #562
      01001FB8H   LINE      CODE     ---       #563
      01001FB8H   LINE      CODE     ---       #565
      01001FBDH   LINE      CODE     ---       #567
      01001FCAH   LINE      CODE     ---       #568
      01001FD5H   LINE      CODE     ---       #569
      01001FDEH   LINE      CODE     ---       #570
      01001FDEH   LINE      CODE     ---       #571
      01001FDEH   LINE      CODE     ---       #572
      01001FE0H   LINE      CODE     ---       #573
      01001FE0H   LINE      CODE     ---       #574
      01001FE5H   LINE      CODE     ---       #575
      01001FEAH   LINE      CODE     ---       #576
      01001FF2H   LINE      CODE     ---       #577
      01001FF6H   LINE      CODE     ---       #578
      01001FF6H   LINE      CODE     ---       #579
      01001FFBH   LINE      CODE     ---       #580
      01001FFEH   LINE      CODE     ---       #581
      01001FFEH   LINE      CODE     ---       #582
      01002007H   LINE      CODE     ---       #583
      01002015H   LINE      CODE     ---       #585
      01002039H   LINE      CODE     ---       #586
      0100205FH   LINE      CODE     ---       #587
      01002085H   LINE      CODE     ---       #588
      010020ABH   LINE      CODE     ---       #589
      010020D1H   LINE      CODE     ---       #590
      010020FAH   LINE      CODE     ---       #591
      010021AEH   LINE      CODE     ---       #593
      010021B3H   LINE      CODE     ---       #594
      010021B5H   LINE      CODE     ---       #595
      ---         BLOCKEND  ---      ---       LVL=0

      01001B4FH   BLOCK     CODE     ---       LVL=0
      020090EAH   SYMBOL    XDATA    ---       pFilePath
      020090EDH   SYMBOL    XDATA    ---       pDir
      01001B5AH   BLOCK     CODE     NEAR LAB  LVL=1
      020090F0H   SYMBOL    XDATA    ---       Buf
      02009130H   SYMBOL    XDATA    BYTE      Status
      02009131H   SYMBOL    XDATA    ---       pFile
      ---         BLOCKEND  ---      ---       LVL=1
      01001B4FH   LINE      CODE     ---       #597
      01001B5AH   LINE      CODE     ---       #598
      01001B5AH   LINE      CODE     ---       #600
      01001B5FH   LINE      CODE     ---       #602
      01001B6CH   LINE      CODE     ---       #603
      01001B7AH   LINE      CODE     ---       #604
      01001B85H   LINE      CODE     ---       #605
      01001B8CH   LINE      CODE     ---       #606
      01001B91H   LINE      CODE     ---       #607
      01001B96H   LINE      CODE     ---       #608
      01001B9EH   LINE      CODE     ---       #609
      01001BA3H   LINE      CODE     ---       #614
      01001BB7H   LINE      CODE     ---       #615
      01001BB7H   LINE      CODE     ---       #616
      01001BC9H   LINE      CODE     ---       #617
      01001BCEH   LINE      CODE     ---       #618
      01001BD3H   LINE      CODE     ---       #619
LX51 LINKER/LOCATER V4.66.93.0                                                        07/08/2019  20:09:53  PAGE 53


      01001BE8H   LINE      CODE     ---       #620
      01001BE8H   LINE      CODE     ---       #621
      01001BFFH   LINE      CODE     ---       #622
      01001BFFH   LINE      CODE     ---       #623
      01001C13H   LINE      CODE     ---       #624
      01001C18H   LINE      CODE     ---       #625
      01001C1DH   LINE      CODE     ---       #626
      01001C32H   LINE      CODE     ---       #627
      01001C49H   LINE      CODE     ---       #628
      01001C49H   LINE      CODE     ---       #629
      01001C60H   LINE      CODE     ---       #630
      01001C60H   LINE      CODE     ---       #631
      01001C74H   LINE      CODE     ---       #632
      01001C79H   LINE      CODE     ---       #633
      01001C7EH   LINE      CODE     ---       #634
      01001C93H   LINE      CODE     ---       #635
      01001CAAH   LINE      CODE     ---       #636
      01001CAAH   LINE      CODE     ---       #637
      01001CC1H   LINE      CODE     ---       #638
      01001CC1H   LINE      CODE     ---       #639
      01001CD5H   LINE      CODE     ---       #640
      01001CDAH   LINE      CODE     ---       #641
      01001CDFH   LINE      CODE     ---       #642
      01001CF4H   LINE      CODE     ---       #643
      01001D0BH   LINE      CODE     ---       #644
      01001D0BH   LINE      CODE     ---       #645
      01001D22H   LINE      CODE     ---       #646
      01001D22H   LINE      CODE     ---       #647
      01001D36H   LINE      CODE     ---       #648
      01001D3BH   LINE      CODE     ---       #649
      01001D40H   LINE      CODE     ---       #650
      01001D55H   LINE      CODE     ---       #651
      01001D6CH   LINE      CODE     ---       #652
      01001D6CH   LINE      CODE     ---       #653
      01001D71H   LINE      CODE     ---       #654
      01001D79H   LINE      CODE     ---       #655
      01001D7EH   LINE      CODE     ---       #656
      01001D8AH   LINE      CODE     ---       #657
      01001D8AH   LINE      CODE     ---       #658
      ---         BLOCKEND  ---      ---       LVL=0
      00000006H   SYMBOL    DATA     BYTE      NameLen
      00000007H   SYMBOL    DATA     BYTE      CheckSum
      00000006H   SYMBOL    DATA     WORD      NameCount

      ---         MODULE    ---      ---       UART
      010043D7H   PUBLIC    CODE     ---       _UART5_SendString
      01004551H   PUBLIC    CODE     ---       _UART5_Sendbyte
      0100462CH   PUBLIC    CODE     ---       UART5_Init
      000000F1H   SFRSYM    DATA     BYTE      ADR_H
      00000080H   SFRSYM    DATA     BYTE      P0
      00000090H   SFRSYM    DATA     BYTE      P1
      000000A0H   SFRSYM    DATA     BYTE      P2
      000000B0H   SFRSYM    DATA     BYTE      P3
      000000F3H   SFRSYM    DATA     BYTE      ADR_L
      000000D0H.6 SFRSYM    DATA     BIT       AC
      00000094H   SFRSYM    DATA     BYTE      PAGESEL
      000000F2H   SFRSYM    DATA     BYTE      ADR_M
      000000A8H.7 SFRSYM    DATA     BIT       EA
      000000F8H   SFRSYM    DATA     BYTE      RAMMODE
      000000B7H   SFRSYM    DATA     BYTE      P0MDOUT
      000000BCH   SFRSYM    DATA     BYTE      P1MDOUT
      000000A8H   SFRSYM    DATA     BYTE      IEN0
      000000BDH   SFRSYM    DATA     BYTE      P2MDOUT
      000000B8H   SFRSYM    DATA     BYTE      IEN1
      000000BEH   SFRSYM    DATA     BYTE      P3MDOUT
LX51 LINKER/LOCATER V4.66.93.0                                                        07/08/2019  20:09:53  PAGE 54


      0000009AH   SFRSYM    DATA     BYTE      IEN2
      000000D1H   SFRSYM    DATA     BYTE      IEN3
      00000090H.4 SFRSYM    DATA     BIT       CH376_INT_WIRE
      000000F8H.4 SFRSYM    DATA     BIT       APP_ACK
      000000F4H   SFRSYM    DATA     BYTE      ADR_INC
      000000B8H.1 SFRSYM    DATA     BIT       ECAN
      000000D0H.7 SFRSYM    DATA     BIT       CY
      000000B8H.3 SFRSYM    DATA     BIT       ES2R
      000000B8H.5 SFRSYM    DATA     BIT       ES3R
      000000B8H.2 SFRSYM    DATA     BIT       ES2T
      000000B8H.4 SFRSYM    DATA     BIT       ES3T
      00000090H.3 SFRSYM    DATA     BIT       CH376_RD
      00000090H.1 SFRSYM    DATA     BIT       CH376_CS
      00000081H   SFRSYM    DATA     BYTE      SP
      000000D0H.2 SFRSYM    DATA     BIT       OV
      00000095H   SFRSYM    DATA     BYTE      D_PAGESEL
      000000F8H.7 SFRSYM    DATA     BIT       APP_REQ
      000000BFH   SFRSYM    DATA     BYTE      IRCON2
      000000BAH   SFRSYM    DATA     BYTE      SREL0H
      000000BBH   SFRSYM    DATA     BYTE      SREL1H
      00000087H   SFRSYM    DATA     BYTE      PCON
      000000F9H   SFRSYM    DATA     BYTE      PORTDRV
      000000AAH   SFRSYM    DATA     BYTE      SREL0L
      0000009DH   SFRSYM    DATA     BYTE      SREL1L
      00000089H   SFRSYM    DATA     BYTE      TMOD
      00000088H   SFRSYM    DATA     BYTE      TCON
      00000090H.2 SFRSYM    DATA     BIT       CH376_WR
      000000FFH   SFRSYM    DATA     BYTE      EXDATA
      00000097H   SFRSYM    DATA     BYTE      SCON2R
      000000ABH   SFRSYM    DATA     BYTE      SCON3R
      000000D9H   SFRSYM    DATA     BYTE      BODE2_DIV_H
      000000AEH   SFRSYM    DATA     BYTE      BODE3_DIV_H
      00000096H   SFRSYM    DATA     BYTE      SCON2T
      000000A7H   SFRSYM    DATA     BYTE      SCON3T
      000000E7H   SFRSYM    DATA     BYTE      BODE2_DIV_L
      00000088H.1 SFRSYM    DATA     BIT       IE0
      000000AFH   SFRSYM    DATA     BYTE      BODE3_DIV_L
      00000088H.3 SFRSYM    DATA     BIT       IE1
      000000C9H   SFRSYM    DATA     BYTE      MUX_SEL
      000000F0H   SFRSYM    DATA     BYTE      B
      000000E0H   SFRSYM    DATA     BYTE      ACC
      0000008FH   SFRSYM    DATA     BYTE      CAN_CR
      000000A8H.4 SFRSYM    DATA     BIT       ES0
      000000A9H   SFRSYM    DATA     BYTE      IP0
      000000A8H.1 SFRSYM    DATA     BIT       ET0
      000000B9H   SFRSYM    DATA     BYTE      IP1
      000000A8H.3 SFRSYM    DATA     BIT       ET1
      00000088H.5 SFRSYM    DATA     BIT       TF0
      000000FDH   SFRSYM    DATA     BYTE      DATA0
      000000A8H.5 SFRSYM    DATA     BIT       ET2
      00000098H.0 SFRSYM    DATA     BIT       RI0
      00000088H.7 SFRSYM    DATA     BIT       TF1
      000000E8H   SFRSYM    DATA     BYTE      CAN_ET
      000000FCH   SFRSYM    DATA     BYTE      DATA1
      000000C0H.6 SFRSYM    DATA     BIT       TF2
      0000008CH   SFRSYM    DATA     BYTE      TH0
      000000FBH   SFRSYM    DATA     BYTE      DATA2
      000000A8H.0 SFRSYM    DATA     BIT       EX0
      00000098H.1 SFRSYM    DATA     BIT       TI0
      0000008DH   SFRSYM    DATA     BYTE      TH1
      00000088H.0 SFRSYM    DATA     BIT       IT0
      00000091H   SFRSYM    DATA     BYTE      CAN_IR
      000000FAH   SFRSYM    DATA     BYTE      DATA3
      000000CDH   SFRSYM    DATA     BYTE      TH2
      000000A8H.2 SFRSYM    DATA     BIT       EX1
LX51 LINKER/LOCATER V4.66.93.0                                                        07/08/2019  20:09:53  PAGE 55


      00000088H.2 SFRSYM    DATA     BIT       IT1
      000000D0H.0 SFRSYM    DATA     BIT       P
      0000008AH   SFRSYM    DATA     BYTE      TL0
      0000008BH   SFRSYM    DATA     BYTE      TL1
      000000CCH   SFRSYM    DATA     BYTE      TL2
      000000F8H.6 SFRSYM    DATA     BIT       APP_EN
      000000D0H.3 SFRSYM    DATA     BIT       RS0
      000000D0H.4 SFRSYM    DATA     BIT       RS1
      00000088H.4 SFRSYM    DATA     BIT       TR0
      00000093H   SFRSYM    DATA     BYTE      DPC
      00000088H.6 SFRSYM    DATA     BIT       TR1
      000000E5H   SFRSYM    DATA     BYTE      MAC_MODE
      000000C8H.0 SFRSYM    DATA     BIT       TR2
      00000083H   SFRSYM    DATA     BYTE      DPH
      00000082H   SFRSYM    DATA     BYTE      DPL
      00000099H   SFRSYM    DATA     BYTE      SBUF0
      0000009CH   SFRSYM    DATA     BYTE      SBUF1
      00000098H   SFRSYM    DATA     BYTE      SCON0
      0000009BH   SFRSYM    DATA     BYTE      SCON1
      000000D8H   SFRSYM    DATA     BYTE      ADCON
      000000C8H   SFRSYM    DATA     BYTE      T2CON
      000000E6H   SFRSYM    DATA     BYTE      DIV_MODE
      000000F8H.5 SFRSYM    DATA     BIT       APP_RW
      000000CBH   SFRSYM    DATA     BYTE      TRL2H
      0000009FH   SFRSYM    DATA     BYTE      SBUF2_RX
      000000ADH   SFRSYM    DATA     BYTE      SBUF3_RX
      0000008EH   SFRSYM    DATA     BYTE      CKCON
      0000009EH   SFRSYM    DATA     BYTE      SBUF2_TX
      000000ACH   SFRSYM    DATA     BYTE      SBUF3_TX
      000000CAH   SFRSYM    DATA     BYTE      TRL2L
      000000FEH   SFRSYM    DATA     BYTE      EXADR
      000000D0H.5 SFRSYM    DATA     BIT       F0
      000000D0H.1 SFRSYM    DATA     BIT       F1
      000000D0H   SFRSYM    DATA     BYTE      PSW
      000000C0H   SFRSYM    DATA     BYTE      IRCON
      00000090H.0 SFRSYM    DATA     BIT       CH376_A0

      0100462CH   BLOCK     CODE     ---       LVL=0
      0100462CH   LINE      CODE     ---       #32
      0100462CH   LINE      CODE     ---       #33
      0100462CH   LINE      CODE     ---       #34
      0100462FH   LINE      CODE     ---       #35
      01004632H   LINE      CODE     ---       #36
      01004635H   LINE      CODE     ---       #37
      01004638H   LINE      CODE     ---       #38
      ---         BLOCKEND  ---      ---       LVL=0

      01004540H   BLOCK     CODE     ---       LVL=0
      ---         BLOCKEND  ---      ---       LVL=0

      01004551H   BLOCK     CODE     ---       LVL=0
      00000007H   SYMBOL    DATA     BYTE      dat
      01004551H   LINE      CODE     ---       #50
      01004551H   LINE      CODE     ---       #51
      01004551H   LINE      CODE     ---       #52
      01004553H   LINE      CODE     ---       #53
      01004559H   LINE      CODE     ---       #54
      0100455CH   LINE      CODE     ---       #55
      ---         BLOCKEND  ---      ---       LVL=0

      010043D7H   BLOCK     CODE     ---       LVL=0
      0200A0BFH   SYMBOL    XDATA    ---       pBuf
      010043D7H   LINE      CODE     ---       #67
      010043E2H   LINE      CODE     ---       #68
      010043E2H   LINE      CODE     ---       #69
LX51 LINKER/LOCATER V4.66.93.0                                                        07/08/2019  20:09:53  PAGE 56


      010043F2H   LINE      CODE     ---       #70
      010043F2H   LINE      CODE     ---       #71
      01004407H   LINE      CODE     ---       #72
      01004409H   LINE      CODE     ---       #73
      ---         BLOCKEND  ---      ---       LVL=0

      ---         MODULE    ---      ---       SYS
      0100432FH   PUBLIC    CODE     ---       INIT_CPU
      000000F1H   SFRSYM    DATA     BYTE      ADR_H
      00000080H   SFRSYM    DATA     BYTE      P0
      00000090H   SFRSYM    DATA     BYTE      P1
      000000A0H   SFRSYM    DATA     BYTE      P2
      000000B0H   SFRSYM    DATA     BYTE      P3
      000000F3H   SFRSYM    DATA     BYTE      ADR_L
      000000D0H.6 SFRSYM    DATA     BIT       AC
      00000094H   SFRSYM    DATA     BYTE      PAGESEL
      000000F2H   SFRSYM    DATA     BYTE      ADR_M
      000000A8H.7 SFRSYM    DATA     BIT       EA
      000000F8H   SFRSYM    DATA     BYTE      RAMMODE
      000000B7H   SFRSYM    DATA     BYTE      P0MDOUT
      000000BCH   SFRSYM    DATA     BYTE      P1MDOUT
      000000A8H   SFRSYM    DATA     BYTE      IEN0
      000000BDH   SFRSYM    DATA     BYTE      P2MDOUT
      000000B8H   SFRSYM    DATA     BYTE      IEN1
      000000BEH   SFRSYM    DATA     BYTE      P3MDOUT
      0000009AH   SFRSYM    DATA     BYTE      IEN2
      000000D1H   SFRSYM    DATA     BYTE      IEN3
      00000090H.4 SFRSYM    DATA     BIT       CH376_INT_WIRE
      000000F8H.4 SFRSYM    DATA     BIT       APP_ACK
      000000F4H   SFRSYM    DATA     BYTE      ADR_INC
      000000B8H.1 SFRSYM    DATA     BIT       ECAN
      000000D0H.7 SFRSYM    DATA     BIT       CY
      000000B8H.3 SFRSYM    DATA     BIT       ES2R
      000000B8H.5 SFRSYM    DATA     BIT       ES3R
      000000B8H.2 SFRSYM    DATA     BIT       ES2T
      000000B8H.4 SFRSYM    DATA     BIT       ES3T
      00000090H.3 SFRSYM    DATA     BIT       CH376_RD
      00000090H.1 SFRSYM    DATA     BIT       CH376_CS
      00000081H   SFRSYM    DATA     BYTE      SP
      000000D0H.2 SFRSYM    DATA     BIT       OV
      00000095H   SFRSYM    DATA     BYTE      D_PAGESEL
      000000F8H.7 SFRSYM    DATA     BIT       APP_REQ
      000000BFH   SFRSYM    DATA     BYTE      IRCON2
      000000BAH   SFRSYM    DATA     BYTE      SREL0H
      000000BBH   SFRSYM    DATA     BYTE      SREL1H
      00000087H   SFRSYM    DATA     BYTE      PCON
      000000F9H   SFRSYM    DATA     BYTE      PORTDRV
      000000AAH   SFRSYM    DATA     BYTE      SREL0L
      0000009DH   SFRSYM    DATA     BYTE      SREL1L
      00000089H   SFRSYM    DATA     BYTE      TMOD
      00000088H   SFRSYM    DATA     BYTE      TCON
      00000090H.2 SFRSYM    DATA     BIT       CH376_WR
      000000FFH   SFRSYM    DATA     BYTE      EXDATA
      00000097H   SFRSYM    DATA     BYTE      SCON2R
      000000ABH   SFRSYM    DATA     BYTE      SCON3R
      000000D9H   SFRSYM    DATA     BYTE      BODE2_DIV_H
      000000AEH   SFRSYM    DATA     BYTE      BODE3_DIV_H
      00000096H   SFRSYM    DATA     BYTE      SCON2T
      000000A7H   SFRSYM    DATA     BYTE      SCON3T
      000000E7H   SFRSYM    DATA     BYTE      BODE2_DIV_L
      00000088H.1 SFRSYM    DATA     BIT       IE0
      000000AFH   SFRSYM    DATA     BYTE      BODE3_DIV_L
      00000088H.3 SFRSYM    DATA     BIT       IE1
      000000C9H   SFRSYM    DATA     BYTE      MUX_SEL
      000000F0H   SFRSYM    DATA     BYTE      B
LX51 LINKER/LOCATER V4.66.93.0                                                        07/08/2019  20:09:53  PAGE 57


      000000E0H   SFRSYM    DATA     BYTE      ACC
      0000008FH   SFRSYM    DATA     BYTE      CAN_CR
      000000A8H.4 SFRSYM    DATA     BIT       ES0
      000000A9H   SFRSYM    DATA     BYTE      IP0
      000000A8H.1 SFRSYM    DATA     BIT       ET0
      000000B9H   SFRSYM    DATA     BYTE      IP1
      000000A8H.3 SFRSYM    DATA     BIT       ET1
      00000088H.5 SFRSYM    DATA     BIT       TF0
      000000FDH   SFRSYM    DATA     BYTE      DATA0
      000000A8H.5 SFRSYM    DATA     BIT       ET2
      00000098H.0 SFRSYM    DATA     BIT       RI0
      00000088H.7 SFRSYM    DATA     BIT       TF1
      000000E8H   SFRSYM    DATA     BYTE      CAN_ET
      000000FCH   SFRSYM    DATA     BYTE      DATA1
      000000C0H.6 SFRSYM    DATA     BIT       TF2
      0000008CH   SFRSYM    DATA     BYTE      TH0
      000000FBH   SFRSYM    DATA     BYTE      DATA2
      000000A8H.0 SFRSYM    DATA     BIT       EX0
      00000098H.1 SFRSYM    DATA     BIT       TI0
      0000008DH   SFRSYM    DATA     BYTE      TH1
      00000088H.0 SFRSYM    DATA     BIT       IT0
      00000091H   SFRSYM    DATA     BYTE      CAN_IR
      000000FAH   SFRSYM    DATA     BYTE      DATA3
      000000CDH   SFRSYM    DATA     BYTE      TH2
      000000A8H.2 SFRSYM    DATA     BIT       EX1
      00000088H.2 SFRSYM    DATA     BIT       IT1
      000000D0H.0 SFRSYM    DATA     BIT       P
      0000008AH   SFRSYM    DATA     BYTE      TL0
      0000008BH   SFRSYM    DATA     BYTE      TL1
      000000CCH   SFRSYM    DATA     BYTE      TL2
      000000F8H.6 SFRSYM    DATA     BIT       APP_EN
      000000D0H.3 SFRSYM    DATA     BIT       RS0
      000000D0H.4 SFRSYM    DATA     BIT       RS1
      00000088H.4 SFRSYM    DATA     BIT       TR0
      00000093H   SFRSYM    DATA     BYTE      DPC
      00000088H.6 SFRSYM    DATA     BIT       TR1
      000000E5H   SFRSYM    DATA     BYTE      MAC_MODE
      000000C8H.0 SFRSYM    DATA     BIT       TR2
      00000083H   SFRSYM    DATA     BYTE      DPH
      00000082H   SFRSYM    DATA     BYTE      DPL
      00000099H   SFRSYM    DATA     BYTE      SBUF0
      0000009CH   SFRSYM    DATA     BYTE      SBUF1
      00000098H   SFRSYM    DATA     BYTE      SCON0
      0000009BH   SFRSYM    DATA     BYTE      SCON1
      000000D8H   SFRSYM    DATA     BYTE      ADCON
      000000C8H   SFRSYM    DATA     BYTE      T2CON
      000000E6H   SFRSYM    DATA     BYTE      DIV_MODE
      000000F8H.5 SFRSYM    DATA     BIT       APP_RW
      000000CBH   SFRSYM    DATA     BYTE      TRL2H
      0000009FH   SFRSYM    DATA     BYTE      SBUF2_RX
      000000ADH   SFRSYM    DATA     BYTE      SBUF3_RX
      0000008EH   SFRSYM    DATA     BYTE      CKCON
      0000009EH   SFRSYM    DATA     BYTE      SBUF2_TX
      000000ACH   SFRSYM    DATA     BYTE      SBUF3_TX
      000000CAH   SFRSYM    DATA     BYTE      TRL2L
      000000FEH   SFRSYM    DATA     BYTE      EXADR
      000000D0H.5 SFRSYM    DATA     BIT       F0
      000000D0H.1 SFRSYM    DATA     BIT       F1
      000000D0H   SFRSYM    DATA     BYTE      PSW
      000000C0H   SFRSYM    DATA     BYTE      IRCON
      00000090H.0 SFRSYM    DATA     BIT       CH376_A0

      0100432FH   BLOCK     CODE     ---       LVL=0
      0100432FH   LINE      CODE     ---       #32
      0100432FH   LINE      CODE     ---       #33
LX51 LINKER/LOCATER V4.66.93.0                                                        07/08/2019  20:09:53  PAGE 58


      0100432FH   LINE      CODE     ---       #34
      01004331H   LINE      CODE     ---       #35
      01004334H   LINE      CODE     ---       #36
      01004337H   LINE      CODE     ---       #37
      01004339H   LINE      CODE     ---       #38
      0100433CH   LINE      CODE     ---       #39
      0100433FH   LINE      CODE     ---       #40
      01004341H   LINE      CODE     ---       #41
      01004344H   LINE      CODE     ---       #42
      01004346H   LINE      CODE     ---       #44
      01004348H   LINE      CODE     ---       #45
      0100434AH   LINE      CODE     ---       #46
      0100434CH   LINE      CODE     ---       #47
      0100434EH   LINE      CODE     ---       #48
      01004350H   LINE      CODE     ---       #49
      01004352H   LINE      CODE     ---       #52
      01004355H   LINE      CODE     ---       #53
      01004357H   LINE      CODE     ---       #54
      01004359H   LINE      CODE     ---       #55
      0100435CH   LINE      CODE     ---       #59
      0100435FH   LINE      CODE     ---       #60
      01004362H   LINE      CODE     ---       #61
      01004365H   LINE      CODE     ---       #62
      01004367H   LINE      CODE     ---       #63
      01004369H   LINE      CODE     ---       #64
      ---         BLOCKEND  ---      ---       LVL=0

      ---         MODULE    ---      ---       DGUS
      0200A5C1H   PUBLIC    XDATA    BYTE      ?_WriteDGUS?BYTE
      01002719H   PUBLIC    CODE     ---       _WriteDGUS
      0200A5C6H   PUBLIC    XDATA    BYTE      ?_ReadDGUS?BYTE
      0100256AH   PUBLIC    CODE     ---       _ReadDGUS
      000000F1H   SFRSYM    DATA     BYTE      ADR_H
      00000080H   SFRSYM    DATA     BYTE      P0
      00000090H   SFRSYM    DATA     BYTE      P1
      000000A0H   SFRSYM    DATA     BYTE      P2
      000000B0H   SFRSYM    DATA     BYTE      P3
      000000F3H   SFRSYM    DATA     BYTE      ADR_L
      000000D0H.6 SFRSYM    DATA     BIT       AC
      00000094H   SFRSYM    DATA     BYTE      PAGESEL
      000000F2H   SFRSYM    DATA     BYTE      ADR_M
      000000A8H.7 SFRSYM    DATA     BIT       EA
      000000F8H   SFRSYM    DATA     BYTE      RAMMODE
      000000B7H   SFRSYM    DATA     BYTE      P0MDOUT
      000000BCH   SFRSYM    DATA     BYTE      P1MDOUT
      000000A8H   SFRSYM    DATA     BYTE      IEN0
      000000BDH   SFRSYM    DATA     BYTE      P2MDOUT
      000000B8H   SFRSYM    DATA     BYTE      IEN1
      000000BEH   SFRSYM    DATA     BYTE      P3MDOUT
      0000009AH   SFRSYM    DATA     BYTE      IEN2
      000000D1H   SFRSYM    DATA     BYTE      IEN3
      00000090H.4 SFRSYM    DATA     BIT       CH376_INT_WIRE
      000000F8H.4 SFRSYM    DATA     BIT       APP_ACK
      000000F4H   SFRSYM    DATA     BYTE      ADR_INC
      000000B8H.1 SFRSYM    DATA     BIT       ECAN
      000000D0H.7 SFRSYM    DATA     BIT       CY
      000000B8H.3 SFRSYM    DATA     BIT       ES2R
      000000B8H.5 SFRSYM    DATA     BIT       ES3R
      000000B8H.2 SFRSYM    DATA     BIT       ES2T
      000000B8H.4 SFRSYM    DATA     BIT       ES3T
      00000090H.3 SFRSYM    DATA     BIT       CH376_RD
      00000090H.1 SFRSYM    DATA     BIT       CH376_CS
      00000081H   SFRSYM    DATA     BYTE      SP
      000000D0H.2 SFRSYM    DATA     BIT       OV
      00000095H   SFRSYM    DATA     BYTE      D_PAGESEL
LX51 LINKER/LOCATER V4.66.93.0                                                        07/08/2019  20:09:53  PAGE 59


      000000F8H.7 SFRSYM    DATA     BIT       APP_REQ
      000000BFH   SFRSYM    DATA     BYTE      IRCON2
      000000BAH   SFRSYM    DATA     BYTE      SREL0H
      000000BBH   SFRSYM    DATA     BYTE      SREL1H
      00000087H   SFRSYM    DATA     BYTE      PCON
      000000F9H   SFRSYM    DATA     BYTE      PORTDRV
      000000AAH   SFRSYM    DATA     BYTE      SREL0L
      0000009DH   SFRSYM    DATA     BYTE      SREL1L
      00000089H   SFRSYM    DATA     BYTE      TMOD
      00000088H   SFRSYM    DATA     BYTE      TCON
      00000090H.2 SFRSYM    DATA     BIT       CH376_WR
      000000FFH   SFRSYM    DATA     BYTE      EXDATA
      00000097H   SFRSYM    DATA     BYTE      SCON2R
      000000ABH   SFRSYM    DATA     BYTE      SCON3R
      000000D9H   SFRSYM    DATA     BYTE      BODE2_DIV_H
      000000AEH   SFRSYM    DATA     BYTE      BODE3_DIV_H
      00000096H   SFRSYM    DATA     BYTE      SCON2T
      000000A7H   SFRSYM    DATA     BYTE      SCON3T
      000000E7H   SFRSYM    DATA     BYTE      BODE2_DIV_L
      00000088H.1 SFRSYM    DATA     BIT       IE0
      000000AFH   SFRSYM    DATA     BYTE      BODE3_DIV_L
      00000088H.3 SFRSYM    DATA     BIT       IE1
      000000C9H   SFRSYM    DATA     BYTE      MUX_SEL
      000000F0H   SFRSYM    DATA     BYTE      B
      000000E0H   SFRSYM    DATA     BYTE      ACC
      0000008FH   SFRSYM    DATA     BYTE      CAN_CR
      000000A8H.4 SFRSYM    DATA     BIT       ES0
      000000A9H   SFRSYM    DATA     BYTE      IP0
      000000A8H.1 SFRSYM    DATA     BIT       ET0
      000000B9H   SFRSYM    DATA     BYTE      IP1
      000000A8H.3 SFRSYM    DATA     BIT       ET1
      00000088H.5 SFRSYM    DATA     BIT       TF0
      000000FDH   SFRSYM    DATA     BYTE      DATA0
      000000A8H.5 SFRSYM    DATA     BIT       ET2
      00000098H.0 SFRSYM    DATA     BIT       RI0
      00000088H.7 SFRSYM    DATA     BIT       TF1
      000000E8H   SFRSYM    DATA     BYTE      CAN_ET
      000000FCH   SFRSYM    DATA     BYTE      DATA1
      000000C0H.6 SFRSYM    DATA     BIT       TF2
      0000008CH   SFRSYM    DATA     BYTE      TH0
      000000FBH   SFRSYM    DATA     BYTE      DATA2
      000000A8H.0 SFRSYM    DATA     BIT       EX0
      00000098H.1 SFRSYM    DATA     BIT       TI0
      0000008DH   SFRSYM    DATA     BYTE      TH1
      00000088H.0 SFRSYM    DATA     BIT       IT0
      00000091H   SFRSYM    DATA     BYTE      CAN_IR
      000000FAH   SFRSYM    DATA     BYTE      DATA3
      000000CDH   SFRSYM    DATA     BYTE      TH2
      000000A8H.2 SFRSYM    DATA     BIT       EX1
      00000088H.2 SFRSYM    DATA     BIT       IT1
      000000D0H.0 SFRSYM    DATA     BIT       P
      0000008AH   SFRSYM    DATA     BYTE      TL0
      0000008BH   SFRSYM    DATA     BYTE      TL1
      000000CCH   SFRSYM    DATA     BYTE      TL2
      000000F8H.6 SFRSYM    DATA     BIT       APP_EN
      000000D0H.3 SFRSYM    DATA     BIT       RS0
      000000D0H.4 SFRSYM    DATA     BIT       RS1
      00000088H.4 SFRSYM    DATA     BIT       TR0
      00000093H   SFRSYM    DATA     BYTE      DPC
      00000088H.6 SFRSYM    DATA     BIT       TR1
      000000E5H   SFRSYM    DATA     BYTE      MAC_MODE
      000000C8H.0 SFRSYM    DATA     BIT       TR2
      00000083H   SFRSYM    DATA     BYTE      DPH
      00000082H   SFRSYM    DATA     BYTE      DPL
      00000099H   SFRSYM    DATA     BYTE      SBUF0
LX51 LINKER/LOCATER V4.66.93.0                                                        07/08/2019  20:09:53  PAGE 60


      0000009CH   SFRSYM    DATA     BYTE      SBUF1
      00000098H   SFRSYM    DATA     BYTE      SCON0
      0000009BH   SFRSYM    DATA     BYTE      SCON1
      000000D8H   SFRSYM    DATA     BYTE      ADCON
      000000C8H   SFRSYM    DATA     BYTE      T2CON
      000000E6H   SFRSYM    DATA     BYTE      DIV_MODE
      000000F8H.5 SFRSYM    DATA     BIT       APP_RW
      000000CBH   SFRSYM    DATA     BYTE      TRL2H
      0000009FH   SFRSYM    DATA     BYTE      SBUF2_RX
      000000ADH   SFRSYM    DATA     BYTE      SBUF3_RX
      0000008EH   SFRSYM    DATA     BYTE      CKCON
      0000009EH   SFRSYM    DATA     BYTE      SBUF2_TX
      000000ACH   SFRSYM    DATA     BYTE      SBUF3_TX
      000000CAH   SFRSYM    DATA     BYTE      TRL2L
      000000FEH   SFRSYM    DATA     BYTE      EXADR
      000000D0H.5 SFRSYM    DATA     BIT       F0
      000000D0H.1 SFRSYM    DATA     BIT       F1
      000000D0H   SFRSYM    DATA     BYTE      PSW
      000000C0H   SFRSYM    DATA     BYTE      IRCON
      00000090H.0 SFRSYM    DATA     BIT       CH376_A0

      0100256AH   BLOCK     CODE     ---       LVL=0
      0200A5C6H   SYMBOL    XDATA    DWORD     Addr
      0200A5CAH   SYMBOL    XDATA    ---       pBuf
      0200A5CDH   SYMBOL    XDATA    WORD      Len
      0100257BH   BLOCK     CODE     NEAR LAB  LVL=1
      00000003H   SYMBOL    DATA     BYTE      Offset
      0200A5CFH   SYMBOL    XDATA    BYTE      EndLen
      ---         BLOCKEND  ---      ---       LVL=1
      0100256AH   LINE      CODE     ---       #35
      0100257BH   LINE      CODE     ---       #36
      0100257BH   LINE      CODE     ---       #37
      0100257CH   LINE      CODE     ---       #38
      01002580H   LINE      CODE     ---       #39
      01002592H   LINE      CODE     ---       #40
      010025A5H   LINE      CODE     ---       #41
      010025BAH   LINE      CODE     ---       #42
      010025CFH   LINE      CODE     ---       #43
      010025D8H   LINE      CODE     ---       #44
      010025DBH   LINE      CODE     ---       #45
      010025DEH   LINE      CODE     ---       #46
      010025E1H   LINE      CODE     ---       #47
      010025E6H   LINE      CODE     ---       #48
      010025E6H   LINE      CODE     ---       #49
      010025E8H   LINE      CODE     ---       #50
      010025EBH   LINE      CODE     ---       #51
      01002600H   LINE      CODE     ---       #52
      0100260FH   LINE      CODE     ---       #53
      01002624H   LINE      CODE     ---       #54
      01002632H   LINE      CODE     ---       #55
      01002632H   LINE      CODE     ---       #56
      0100263EH   LINE      CODE     ---       #57
      01002653H   LINE      CODE     ---       #58
      01002661H   LINE      CODE     ---       #59
      01002661H   LINE      CODE     ---       #60
      01002663H   LINE      CODE     ---       #61
      01002666H   LINE      CODE     ---       #62
      0100267BH   LINE      CODE     ---       #63
      01002690H   LINE      CODE     ---       #64
      010026A5H   LINE      CODE     ---       #65
      010026BAH   LINE      CODE     ---       #66
      010026BCH   LINE      CODE     ---       #67
      010026C2H   LINE      CODE     ---       #68
      010026C2H   LINE      CODE     ---       #69
      010026C4H   LINE      CODE     ---       #70
LX51 LINKER/LOCATER V4.66.93.0                                                        07/08/2019  20:09:53  PAGE 61


      010026C7H   LINE      CODE     ---       #71
      010026DCH   LINE      CODE     ---       #72
      010026F8H   LINE      CODE     ---       #73
      01002715H   LINE      CODE     ---       #74
      01002715H   LINE      CODE     ---       #75
      01002718H   LINE      CODE     ---       #76
      ---         BLOCKEND  ---      ---       LVL=0

      01002719H   BLOCK     CODE     ---       LVL=0
      0200A5C1H   SYMBOL    XDATA    DWORD     Addr
      0200A5C5H   SYMBOL    XDATA    ---       pBuf
      0200A5C8H   SYMBOL    XDATA    WORD      Len
      0100272AH   BLOCK     CODE     NEAR LAB  LVL=1
      00000003H   SYMBOL    DATA     BYTE      Offset
      00000005H   SYMBOL    DATA     BYTE      EndLen
      ---         BLOCKEND  ---      ---       LVL=1
      01002719H   LINE      CODE     ---       #90
      0100272AH   LINE      CODE     ---       #91
      0100272AH   LINE      CODE     ---       #94
      0100273CH   LINE      CODE     ---       #95
      0100274FH   LINE      CODE     ---       #96
      01002758H   LINE      CODE     ---       #97
      0100276DH   LINE      CODE     ---       #98
      01002782H   LINE      CODE     ---       #99
      01002785H   LINE      CODE     ---       #100
      01002788H   LINE      CODE     ---       #101
      0100278BH   LINE      CODE     ---       #102
      01002790H   LINE      CODE     ---       #103
      01002790H   LINE      CODE     ---       #104
      01002792H   LINE      CODE     ---       #105
      01002795H   LINE      CODE     ---       #106
      01002797H   LINE      CODE     ---       #107
      0100279AH   LINE      CODE     ---       #109
      0100279DH   LINE      CODE     ---       #110
      010027A0H   LINE      CODE     ---       #111
      010027B5H   LINE      CODE     ---       #112
      010027C4H   LINE      CODE     ---       #113
      010027D9H   LINE      CODE     ---       #114
      010027DBH   LINE      CODE     ---       #115
      010027DEH   LINE      CODE     ---       #116
      010027ECH   LINE      CODE     ---       #117
      010027ECH   LINE      CODE     ---       #118
      010027F7H   LINE      CODE     ---       #119
      0100280AH   LINE      CODE     ---       #120
      01002818H   LINE      CODE     ---       #121
      01002818H   LINE      CODE     ---       #122
      0100282DH   LINE      CODE     ---       #123
      01002842H   LINE      CODE     ---       #124
      01002857H   LINE      CODE     ---       #125
      0100286CH   LINE      CODE     ---       #126
      0100286EH   LINE      CODE     ---       #127
      01002873H   LINE      CODE     ---       #128
      01002873H   LINE      CODE     ---       #129
      01002876H   LINE      CODE     ---       #130
      01002876H   LINE      CODE     ---       #131
      0100288BH   LINE      CODE     ---       #132
      010028A4H   LINE      CODE     ---       #133
      010028BEH   LINE      CODE     ---       #134
      010028C0H   LINE      CODE     ---       #135
      010028C3H   LINE      CODE     ---       #136
      010028C3H   LINE      CODE     ---       #137
      010028C6H   LINE      CODE     ---       #138
      ---         BLOCKEND  ---      ---       LVL=0

      ---         MODULE    ---      ---       ?C_STARTUP
LX51 LINKER/LOCATER V4.66.93.0                                                        07/08/2019  20:09:53  PAGE 62


      01000000H   PUBLIC    CODE     ---       ?C_STARTUP

      ---         MODULE    ---      ---       ?C?CLDPTR
      0100000EH   PUBLIC    CODE     ---       ?C?CLDPTR

      ---         MODULE    ---      ---       ?C?CLDOPTR
      01000027H   PUBLIC    CODE     ---       ?C?CLDOPTR

      ---         MODULE    ---      ---       ?C?CILDPTR
      01000054H   PUBLIC    CODE     ---       ?C?CILDPTR

      ---         MODULE    ---      ---       ?C?CSTPTR
      01000076H   PUBLIC    CODE     ---       ?C?CSTPTR

      ---         MODULE    ---      ---       ?C?CSTOPTR
      01000088H   PUBLIC    CODE     ---       ?C?CSTOPTR

      ---         MODULE    ---      ---       ?C?UIDIV
      010000AAH   PUBLIC    CODE     ---       ?C?UIDIV

      ---         MODULE    ---      ---       ?C?IILDX
      010000FFH   PUBLIC    CODE     ---       ?C?IILDX

      ---         MODULE    ---      ---       ?C?ILDIX
      01000115H   PUBLIC    CODE     ---       ?C?ILDIX

      ---         MODULE    ---      ---       ?C?ILDPTR
      0100012BH   PUBLIC    CODE     ---       ?C?ILDPTR

      ---         MODULE    ---      ---       ?C?ILDOPTR
      01000156H   PUBLIC    CODE     ---       ?C?ILDOPTR

      ---         MODULE    ---      ---       ?C?IILDPTR
      0100018EH   PUBLIC    CODE     ---       ?C?IILDPTR

      ---         MODULE    ---      ---       ?C?ISTPTR
      010001C6H   PUBLIC    CODE     ---       ?C?ISTPTR

      ---         MODULE    ---      ---       ?C?ISTOPTR
      010001E5H   PUBLIC    CODE     ---       ?C?ISTOPTR

      ---         MODULE    ---      ---       ?C?ULCMP
      01000212H   PUBLIC    CODE     ---       ?C?ULCMP

      ---         MODULE    ---      ---       ?C?ULSHR
      01000223H   PUBLIC    CODE     ---       ?C?ULSHR

      ---         MODULE    ---      ---       ?C?LSHL
      01000236H   PUBLIC    CODE     ---       ?C?LSHL

      ---         MODULE    ---      ---       ?C?LLDOPTR
      01000249H   PUBLIC    CODE     ---       ?C?LLDOPTR

      ---         MODULE    ---      ---       ?C?LSTPTR
      01000279H   PUBLIC    CODE     ---       ?C?LSTPTR

      ---         MODULE    ---      ---       ?C?LSTOPTR
      01000293H   PUBLIC    CODE     ---       ?C?LSTOPTR

      ---         MODULE    ---      ---       ?C?LLDPTR0
      010002B7H   PUBLIC    CODE     ---       ?C?LLDPTR0

      ---         MODULE    ---      ---       ?C?LLDIXDATA
      010002E0H   PUBLIC    CODE     ---       ?C?LLDIXDATA
      010002D7H   PUBLIC    CODE     ---       ?C?LLDIXDATA1
LX51 LINKER/LOCATER V4.66.93.0                                                        07/08/2019  20:09:53  PAGE 63


      010002D9H   PUBLIC    CODE     ---       ?C?LLDIXDATA8

      ---         MODULE    ---      ---       ?C?LSTXDATA
      0100030CH   PUBLIC    CODE     ---       ?C?LSTXDATA

      ---         MODULE    ---      ---       ?C?LSTKXDATA
      01000318H   PUBLIC    CODE     ---       ?C?LSTKXDATA

      ---         MODULE    ---      ---       ?C?LSTKPTR
      01000349H   PUBLIC    CODE     ---       ?C?LSTKPTR

      ---         MODULE    ---      ---       ?C_XBP
      0000000DH   PUBLIC    DATA     ---       ?C_XBP

      ---         MODULE    ---      ---       ?C?ADDXBP
      01000363H   PUBLIC    CODE     ---       ?C?ADDXBP

      ---         MODULE    ---      ---       ?C?XBPOFF
      01000387H   PUBLIC    CODE     ---       ?C?XBPOFF

      ---         MODULE    ---      ---       PRINTF
      0200939FH   PUBLIC    XDATA    ---       ?_PRINTF517?BYTE
      0200939FH   PUBLIC    XDATA    ---       ?_PRINTF?BYTE
      0200939FH   PUBLIC    XDATA    ---       ?_SPRINTF517?BYTE
      0200939FH   PUBLIC    XDATA    ---       ?_SPRINTF?BYTE
      01000DA3H   PUBLIC    CODE     ---       _PRINTF
      01000DA3H   PUBLIC    CODE     ---       _PRINTF517
      01000D9DH   PUBLIC    CODE     ---       _SPRINTF
      01000D9DH   PUBLIC    CODE     ---       _SPRINTF517

      ---         MODULE    ---      ---       ?C?STRCPY
      01000460H   PUBLIC    CODE     ---       ?C?STRCPY

      ---         MODULE    ---      ---       STRNCPY
      0200B2DBH   PUBLIC    XDATA    ---       ?_STRNCPY?BYTE
      010040D2H   PUBLIC    CODE     ---       _STRNCPY

      ---         MODULE    ---      ---       STRLEN
      010045D0H   PUBLIC    CODE     ---       _STRLEN

      ---         MODULE    ---      ---       STRSTR
      0200939FH   PUBLIC    XDATA    ---       ?_STRSTR?BYTE
      01003A86H   PUBLIC    CODE     ---       _STRSTR

      ---         MODULE    ---      ---       ?C?MEMSET
      0100047DH   PUBLIC    CODE     ---       ?C?MEMSET

      ---         MODULE    ---      ---       ?C_INIT
      01003CD6H   PUBLIC    CODE     ---       ?C_START

      ---         MODULE    ---      ---       ?C?LLDIDATA
      010004A9H   PUBLIC    CODE     ---       ?C?LLDIDATA

      ---         MODULE    ---      ---       ?C?LLDXDATA
      010004B5H   PUBLIC    CODE     ---       ?C?LLDXDATA

      ---         MODULE    ---      ---       ?C?LLDPDATA
      010004C1H   PUBLIC    CODE     ---       ?C?LLDPDATA

      ---         MODULE    ---      ---       ?C?LLDCODE
      010004CDH   PUBLIC    CODE     ---       ?C?LLDCODE

      ---         MODULE    ---      ---       ?C?LLDIDATA0
      010004DDH   PUBLIC    CODE     ---       ?C?LLDIDATA0

LX51 LINKER/LOCATER V4.66.93.0                                                        07/08/2019  20:09:53  PAGE 64


      ---         MODULE    ---      ---       ?C?LLDXDATA0
      010004EAH   PUBLIC    CODE     ---       ?C?LLDXDATA0

      ---         MODULE    ---      ---       ?C?LLDPDATA0
      010004F6H   PUBLIC    CODE     ---       ?C?LLDPDATA0

      ---         MODULE    ---      ---       ?C?LLDCODE0
      01000503H   PUBLIC    CODE     ---       ?C?LLDCODE0

      ---         MODULE    ---      ---       ?C?LSTIDATA
      01000513H   PUBLIC    CODE     ---       ?C?LSTIDATA

      ---         MODULE    ---      ---       ?C?LSTPDATA
      0100051FH   PUBLIC    CODE     ---       ?C?LSTPDATA

      ---         MODULE    ---      ---       ?C?LSTKIDATA
      0100052BH   PUBLIC    CODE     ---       ?C?LSTKIDATA

      ---         MODULE    ---      ---       ?C?LSTKPDATA
      01000544H   PUBLIC    CODE     ---       ?C?LSTKPDATA

      ---         MODULE    ---      ---       ?C?PLDIXDATA
      0100055DH   PUBLIC    CODE     ---       ?C?PLDIXDATA

      ---         MODULE    ---      ---       ?C?PSTXDATA
      01000574H   PUBLIC    CODE     ---       ?C?PSTXDATA

      ---         MODULE    ---      ---       ?C?CCASE
      0100057DH   PUBLIC    CODE     ---       ?C?CCASE

      ---         MODULE    ---      ---       PUTCHAR
      010044BCH   PUBLIC    CODE     ---       _PUTCHAR

Program Size: data=17.1 xdata=13867 const=102 code=18048
LX51 RUN COMPLETE.  0 WARNING(S),  0 ERROR(S)
